
c:/Users/Don/Documents/Particle/projects/MEG-Boron/MEG/target/2.0.1/boron/MEG.elf:     file format elf32-littlearm

Sections:
Idx Name          Size      VMA       LMA       File off  Algn
  0 .module_info  00000018  000d4000  000d4000  00004000  2**0
                  CONTENTS, ALLOC, LOAD, READONLY, DATA
  1 .dynalib      00000004  000d4018  000d4018  00004018  2**2
                  CONTENTS, ALLOC, LOAD, READONLY, DATA
  2 .text         000066e0  000d4020  000d4020  00004020  2**3
                  CONTENTS, ALLOC, LOAD, READONLY, CODE
  3 .ARM.exidx    00000008  000da700  000da700  0000a700  2**2
                  CONTENTS, ALLOC, LOAD, READONLY, DATA
  4 .backup       00000004  2003f400  000da708  0000f400  2**2
                  CONTENTS, ALLOC, LOAD, DATA
  5 .data         00000084  2003e0b0  000da70c  0001e0b0  2**2
                  CONTENTS, ALLOC, LOAD, DATA
  6 .bss          000006bc  2003e134  2003e134  0002e134  2**2
                  ALLOC
  7 .module_info_suffix 00000028  000da790  000da790  0002a790  2**0
                  CONTENTS, ALLOC, LOAD, READONLY, DATA
  8 .module_info_crc 00000004  000da7b8  000da7b8  0002a7b8  2**0
                  CONTENTS, ALLOC, LOAD, READONLY, DATA
  9 .debug_info   00198c0f  00000000  00000000  0002a7bc  2**0
                  CONTENTS, READONLY, DEBUGGING
 10 .debug_abbrev 000193c4  00000000  00000000  001c33cb  2**0
                  CONTENTS, READONLY, DEBUGGING
 11 .debug_loc    00037e15  00000000  00000000  001dc78f  2**0
                  CONTENTS, READONLY, DEBUGGING
 12 .debug_aranges 00003020  00000000  00000000  002145a4  2**0
                  CONTENTS, READONLY, DEBUGGING
 13 .debug_ranges 00008c58  00000000  00000000  002175c4  2**0
                  CONTENTS, READONLY, DEBUGGING
 14 .debug_macro  0003d9b8  00000000  00000000  0022021c  2**0
                  CONTENTS, READONLY, DEBUGGING
 15 .debug_line   00044a19  00000000  00000000  0025dbd4  2**0
                  CONTENTS, READONLY, DEBUGGING
 16 .debug_str    00116b37  00000000  00000000  002a25ed  2**0
                  CONTENTS, READONLY, DEBUGGING
 17 .debug_frame  00008890  00000000  00000000  003b9124  2**2
                  CONTENTS, READONLY, DEBUGGING

Disassembly of section .text:

000d4020 <module_user_pre_init>:
/**
 * Initializes this user module. Returns the start of the heap.
 */
void* module_user_pre_init() {

    if ( (&link_global_data_start!=&link_global_data_initial_values) && (link_global_data_size != 0))
   d4020:	4809      	ldr	r0, [pc, #36]	; (d4048 <module_user_pre_init+0x28>)
   d4022:	490a      	ldr	r1, [pc, #40]	; (d404c <module_user_pre_init+0x2c>)
   d4024:	4288      	cmp	r0, r1
void* module_user_pre_init() {
   d4026:	b508      	push	{r3, lr}
    if ( (&link_global_data_start!=&link_global_data_initial_values) && (link_global_data_size != 0))
   d4028:	d005      	beq.n	d4036 <module_user_pre_init+0x16>
   d402a:	4a09      	ldr	r2, [pc, #36]	; (d4050 <module_user_pre_init+0x30>)
   d402c:	4282      	cmp	r2, r0
   d402e:	d002      	beq.n	d4036 <module_user_pre_init+0x16>
    {
        memcpy(&link_global_data_start, &link_global_data_initial_values, link_global_data_size);
   d4030:	1a12      	subs	r2, r2, r0
   d4032:	f005 fb8f 	bl	d9754 <memcpy>
    }

    memset(&link_bss_location, 0, link_bss_size );
   d4036:	4807      	ldr	r0, [pc, #28]	; (d4054 <module_user_pre_init+0x34>)
   d4038:	4a07      	ldr	r2, [pc, #28]	; (d4058 <module_user_pre_init+0x38>)
   d403a:	2100      	movs	r1, #0
   d403c:	1a12      	subs	r2, r2, r0
   d403e:	f005 fb97 	bl	d9770 <memset>
    return &link_global_data_start;
}
   d4042:	4801      	ldr	r0, [pc, #4]	; (d4048 <module_user_pre_init+0x28>)
   d4044:	bd08      	pop	{r3, pc}
   d4046:	bf00      	nop
   d4048:	2003e0b0 	.word	0x2003e0b0
   d404c:	000da70c 	.word	0x000da70c
   d4050:	2003e134 	.word	0x2003e134
   d4054:	2003e134 	.word	0x2003e134
   d4058:	2003e7f0 	.word	0x2003e7f0

000d405c <module_user_init>:
extern constructor_ptr_t link_constructors_location[];
extern constructor_ptr_t link_constructors_end;
#define link_constructors_size   ((unsigned long)&link_constructors_end  -  (unsigned long)&link_constructors_location )

void module_user_init()
{
   d405c:	b570      	push	{r4, r5, r6, lr}
    module_user_init_hook();

    // invoke constructors
    int ctor_num;
    for (ctor_num=0; ctor_num < link_constructors_size/sizeof(constructor_ptr_t); ctor_num++ )
   d405e:	4e07      	ldr	r6, [pc, #28]	; (d407c <module_user_init+0x20>)
   d4060:	4c07      	ldr	r4, [pc, #28]	; (d4080 <module_user_init+0x24>)
    module_user_init_hook();
   d4062:	f003 fddf 	bl	d7c24 <module_user_init_hook>
    for (ctor_num=0; ctor_num < link_constructors_size/sizeof(constructor_ptr_t); ctor_num++ )
   d4066:	1ba4      	subs	r4, r4, r6
   d4068:	08a4      	lsrs	r4, r4, #2
   d406a:	2500      	movs	r5, #0
   d406c:	42a5      	cmp	r5, r4
   d406e:	d100      	bne.n	d4072 <module_user_init+0x16>
    {
        link_constructors_location[ctor_num]();
    }
}
   d4070:	bd70      	pop	{r4, r5, r6, pc}
        link_constructors_location[ctor_num]();
   d4072:	f856 3b04 	ldr.w	r3, [r6], #4
   d4076:	4798      	blx	r3
    for (ctor_num=0; ctor_num < link_constructors_size/sizeof(constructor_ptr_t); ctor_num++ )
   d4078:	3501      	adds	r5, #1
   d407a:	e7f7      	b.n	d406c <module_user_init+0x10>
   d407c:	000da6d0 	.word	0x000da6d0
   d4080:	000da6f4 	.word	0x000da6f4

000d4084 <module_user_setup>:

/**
 * Export these functions with a fuller name so they don't clash with the setup/loop wrappers in the system module.
 */
void module_user_setup() {
    setup();
   d4084:	f000 bd86 	b.w	d4b94 <setup>

000d4088 <module_user_loop>:
}

void module_user_loop() {
   d4088:	b508      	push	{r3, lr}
    loop();
   d408a:	f000 fbd3 	bl	d4834 <loop>
    _post_loop();
}
   d408e:	e8bd 4008 	ldmia.w	sp!, {r3, lr}
    _post_loop();
   d4092:	f003 bd89 	b.w	d7ba8 <_post_loop>

000d4096 <_Znwj>:
 * Implement C++ new/delete operators using the heap
 */

void *operator new(size_t size)
{
	return malloc(size);
   d4096:	f003 b811 	b.w	d70bc <malloc>

000d409a <_Znaj>:
   d409a:	f003 b80f 	b.w	d70bc <malloc>

000d409e <_ZdlPv>:
	return malloc(size);
}

void operator delete(void *p)
{
	free(p);
   d409e:	f003 b815 	b.w	d70cc <free>

000d40a2 <__cxa_guard_acquire>:

/* Provide default implemenation for __cxa_guard_acquire() and
 * __cxa_guard_release(). Note: these must be revisited if a multitasking
 * OS is ported to this platform. */
__extension__ typedef int __guard __attribute__((mode (__DI__)));
int __cxa_guard_acquire(__guard *g) {return !*(char *)(g);};
   d40a2:	7800      	ldrb	r0, [r0, #0]
   d40a4:	fab0 f080 	clz	r0, r0
   d40a8:	0940      	lsrs	r0, r0, #5
   d40aa:	4770      	bx	lr

000d40ac <__cxa_guard_release>:
void __cxa_guard_release (__guard *g) {*(char *)g = 1;};
   d40ac:	2301      	movs	r3, #1
   d40ae:	7003      	strb	r3, [r0, #0]
   d40b0:	4770      	bx	lr

000d40b2 <_ZN10CloudClass22update_string_variableEPKc18Spark_Data_TypeDefPKvPv>:

    static const void* update_string_variable(const char* name, Spark_Data_TypeDef type, const void* var, void* reserved)
    {
        const String* s = (const String*)var;
        return s->c_str();
    }
   d40b2:	6810      	ldr	r0, [r2, #0]
   d40b4:	4770      	bx	lr

000d40b6 <_ZN10Qwiic_RfidD1Ev>:
  String tag; 
  uint32_t time; 

};

class Qwiic_Rfid
   d40b6:	b570      	push	{r4, r5, r6, lr}
   d40b8:	4604      	mov	r4, r0
   d40ba:	f500 75d4 	add.w	r5, r0, #424	; 0x1a8
   d40be:	f100 0618 	add.w	r6, r0, #24
   d40c2:	42b5      	cmp	r5, r6
   d40c4:	d004      	beq.n	d40d0 <_ZN10Qwiic_RfidD1Ev+0x1a>
   d40c6:	3d14      	subs	r5, #20
struct rfidData {
   d40c8:	4628      	mov	r0, r5
   d40ca:	f003 fa75 	bl	d75b8 <_ZN6StringD1Ev>
   d40ce:	e7f8      	b.n	d40c2 <_ZN10Qwiic_RfidD1Ev+0xc>
   d40d0:	1d20      	adds	r0, r4, #4
   d40d2:	f003 fa71 	bl	d75b8 <_ZN6StringD1Ev>
class Qwiic_Rfid
   d40d6:	4620      	mov	r0, r4
   d40d8:	bd70      	pop	{r4, r5, r6, pc}
	...

000d40dc <_Z7silence6String>:
  }
  return 0;
}

int silence(String command)
{
   d40dc:	b538      	push	{r3, r4, r5, lr}
	operator StringIfHelperType() const { return buffer ? &String::StringIfHelper : 0; }
	int compareTo(const String &s) const;
	unsigned char equals(const String &s) const;
	unsigned char equals(const char *cstr) const;
	unsigned char operator == (const String &rhs) const {return equals(rhs);}
	unsigned char operator == (const char *cstr) const {return equals(cstr);}
   d40de:	4911      	ldr	r1, [pc, #68]	; (d4124 <_Z7silence6String+0x48>)
   d40e0:	4605      	mov	r5, r0
   d40e2:	f003 fb6c 	bl	d77be <_ZNK6String6equalsEPKc>
  if (command == "send")
   d40e6:	4604      	mov	r4, r0
   d40e8:	b150      	cbz	r0, d4100 <_Z7silence6String+0x24>
  {
    Serial.println("Notifications allowed.");
   d40ea:	f004 f95f 	bl	d83ac <_Z16_fetch_usbserialv>
   d40ee:	490e      	ldr	r1, [pc, #56]	; (d4128 <_Z7silence6String+0x4c>)
   d40f0:	f003 fbf5 	bl	d78de <_ZN5Print7printlnEPKc>
    sendAlert = true;
   d40f4:	4b0d      	ldr	r3, [pc, #52]	; (d412c <_Z7silence6String+0x50>)
   d40f6:	2001      	movs	r0, #1
   d40f8:	7018      	strb	r0, [r3, #0]
    alertInt = 1;
   d40fa:	4b0d      	ldr	r3, [pc, #52]	; (d4130 <_Z7silence6String+0x54>)
   d40fc:	6018      	str	r0, [r3, #0]
    sendAlert = false;
    alertInt = 0;
    return 2;
  }
  return 0;
}
   d40fe:	bd38      	pop	{r3, r4, r5, pc}
   d4100:	490c      	ldr	r1, [pc, #48]	; (d4134 <_Z7silence6String+0x58>)
   d4102:	4628      	mov	r0, r5
   d4104:	f003 fb5b 	bl	d77be <_ZNK6String6equalsEPKc>
  if (command == "stop")
   d4108:	2800      	cmp	r0, #0
   d410a:	d0f8      	beq.n	d40fe <_Z7silence6String+0x22>
    Serial.println("Notifications silenced.");
   d410c:	f004 f94e 	bl	d83ac <_Z16_fetch_usbserialv>
   d4110:	4909      	ldr	r1, [pc, #36]	; (d4138 <_Z7silence6String+0x5c>)
   d4112:	f003 fbe4 	bl	d78de <_ZN5Print7printlnEPKc>
    sendAlert = false;
   d4116:	4b05      	ldr	r3, [pc, #20]	; (d412c <_Z7silence6String+0x50>)
   d4118:	701c      	strb	r4, [r3, #0]
    alertInt = 0;
   d411a:	4b05      	ldr	r3, [pc, #20]	; (d4130 <_Z7silence6String+0x54>)
   d411c:	2002      	movs	r0, #2
   d411e:	601c      	str	r4, [r3, #0]
    return 2;
   d4120:	e7ed      	b.n	d40fe <_Z7silence6String+0x22>
   d4122:	bf00      	nop
   d4124:	000d984c 	.word	0x000d984c
   d4128:	000d9851 	.word	0x000d9851
   d412c:	2003e0c4 	.word	0x2003e0c4
   d4130:	2003e0b0 	.word	0x2003e0b0
   d4134:	000d9868 	.word	0x000d9868
   d4138:	000d986d 	.word	0x000d986d

000d413c <_ZN10CloudClass9_variableIcEEbPKT_PK6StringRK17CloudVariableTypeIPKcvE.isra.0>:
    static inline bool _variable(const T *varKey, const String *userVar, const CloudVariableTypeString& userVarType)
   d413c:	b51f      	push	{r0, r1, r2, r3, r4, lr}
        spark_variable_t extra = {};
   d413e:	2300      	movs	r3, #0
   d4140:	9301      	str	r3, [sp, #4]
   d4142:	9303      	str	r3, [sp, #12]
        extra.size = sizeof(extra);
   d4144:	230c      	movs	r3, #12
   d4146:	f8ad 3004 	strh.w	r3, [sp, #4]
        extra.update = update_string_variable;
   d414a:	4b04      	ldr	r3, [pc, #16]	; (d415c <_ZN10CloudClass9_variableIcEEbPKT_PK6StringRK17CloudVariableTypeIPKcvE.isra.0+0x20>)
   d414c:	9302      	str	r3, [sp, #8]
        return spark_variable(varKey, userVar, CloudVariableTypeString::TYPE_ID, &extra);
   d414e:	2204      	movs	r2, #4
   d4150:	ab01      	add	r3, sp, #4
   d4152:	f002 ff8b 	bl	d706c <spark_variable>
    }
   d4156:	b005      	add	sp, #20
   d4158:	f85d fb04 	ldr.w	pc, [sp], #4
   d415c:	000d40b3 	.word	0x000d40b3

000d4160 <_ZNK8particle30SystemSleepConfigurationHelper20wakeupSourceFeaturedE24hal_wakeup_source_type_t.isra.0>:
    hal_wakeup_source_base_t* wakeupSource() const {
        return config_->wakeup_sources;
    }

    hal_wakeup_source_base_t* wakeupSourceFeatured(hal_wakeup_source_type_t type) const {
        return wakeupSourceFeatured(type, config_->wakeup_sources);
   d4160:	68c0      	ldr	r0, [r0, #12]
    }

    hal_wakeup_source_base_t* wakeupSourceFeatured(hal_wakeup_source_type_t type, hal_wakeup_source_base_t* start) const {
        if (!start) {
   d4162:	b120      	cbz	r0, d416e <_ZNK8particle30SystemSleepConfigurationHelper20wakeupSourceFeaturedE24hal_wakeup_source_type_t.isra.0+0xe>
            return nullptr;
        }
        while (start) {
            if (start->type == type) {
   d4164:	8883      	ldrh	r3, [r0, #4]
   d4166:	428b      	cmp	r3, r1
   d4168:	d001      	beq.n	d416e <_ZNK8particle30SystemSleepConfigurationHelper20wakeupSourceFeaturedE24hal_wakeup_source_type_t.isra.0+0xe>
                return start;
            }
            start = start->next;
   d416a:	6880      	ldr	r0, [r0, #8]
        while (start) {
   d416c:	e7f9      	b.n	d4162 <_ZNK8particle30SystemSleepConfigurationHelper20wakeupSourceFeaturedE24hal_wakeup_source_type_t.isra.0+0x2>
    }
   d416e:	4770      	bx	lr

000d4170 <_ZN8particle24SystemSleepConfiguration7networkEmNS_9EnumFlagsINS_22SystemSleepNetworkFlagEvEE>:
            config_.wakeup_sources = reinterpret_cast<hal_wakeup_source_base_t*>(wakeupSource);
        }
        return *this;
    }

    SystemSleepConfiguration& network(network_interface_t netif, EnumFlags<SystemSleepNetworkFlag> flags = SystemSleepNetworkFlag::NONE) {
   d4170:	b5f8      	push	{r3, r4, r5, r6, r7, lr}
        if (valid_) {
   d4172:	7d03      	ldrb	r3, [r0, #20]
    SystemSleepConfiguration& network(network_interface_t netif, EnumFlags<SystemSleepNetworkFlag> flags = SystemSleepNetworkFlag::NONE) {
   d4174:	4605      	mov	r5, r0
   d4176:	460f      	mov	r7, r1
   d4178:	4616      	mov	r6, r2
        if (valid_) {
   d417a:	b16b      	cbz	r3, d4198 <_ZN8particle24SystemSleepConfiguration7networkEmNS_9EnumFlagsINS_22SystemSleepNetworkFlagEvEE+0x28>
            auto wakeup = wakeupSourceFeatured(HAL_WAKEUP_SOURCE_TYPE_NETWORK);
   d417c:	6800      	ldr	r0, [r0, #0]
   d417e:	210e      	movs	r1, #14
   d4180:	f7ff ffee 	bl	d4160 <_ZNK8particle30SystemSleepConfigurationHelper20wakeupSourceFeaturedE24hal_wakeup_source_type_t.isra.0>
            while (wakeup) {
   d4184:	b180      	cbz	r0, d41a8 <_ZN8particle24SystemSleepConfiguration7networkEmNS_9EnumFlagsINS_22SystemSleepNetworkFlagEvEE+0x38>
                auto networkWakeup = reinterpret_cast<hal_wakeup_source_network_t*>(wakeup);
                if (networkWakeup->index == netif) {
   d4186:	7b03      	ldrb	r3, [r0, #12]
   d4188:	42bb      	cmp	r3, r7
   d418a:	d107      	bne.n	d419c <_ZN8particle24SystemSleepConfiguration7networkEmNS_9EnumFlagsINS_22SystemSleepNetworkFlagEvEE+0x2c>
                    if (networkWakeup->flags != flags.value()) {
   d418c:	89c3      	ldrh	r3, [r0, #14]
   d418e:	8832      	ldrh	r2, [r6, #0]
   d4190:	4293      	cmp	r3, r2
   d4192:	d001      	beq.n	d4198 <_ZN8particle24SystemSleepConfiguration7networkEmNS_9EnumFlagsINS_22SystemSleepNetworkFlagEvEE+0x28>
                        networkWakeup->flags |= flags.value();
   d4194:	4313      	orrs	r3, r2
   d4196:	81c3      	strh	r3, [r0, #14]
            wakeupSource->index = static_cast<network_interface_index>(netif);
            wakeupSource->flags = flags.value();
            config_.wakeup_sources = reinterpret_cast<hal_wakeup_source_base_t*>(wakeupSource);
        }
        return *this;
    }
   d4198:	4628      	mov	r0, r5
   d419a:	bdf8      	pop	{r3, r4, r5, r6, r7, pc}
                wakeup = wakeupSourceFeatured(HAL_WAKEUP_SOURCE_TYPE_NETWORK, wakeup->next);
   d419c:	6880      	ldr	r0, [r0, #8]
        if (!start) {
   d419e:	b118      	cbz	r0, d41a8 <_ZN8particle24SystemSleepConfiguration7networkEmNS_9EnumFlagsINS_22SystemSleepNetworkFlagEvEE+0x38>
            if (start->type == type) {
   d41a0:	8883      	ldrh	r3, [r0, #4]
   d41a2:	2b0e      	cmp	r3, #14
   d41a4:	d1fa      	bne.n	d419c <_ZN8particle24SystemSleepConfiguration7networkEmNS_9EnumFlagsINS_22SystemSleepNetworkFlagEvEE+0x2c>
   d41a6:	e7ed      	b.n	d4184 <_ZN8particle24SystemSleepConfiguration7networkEmNS_9EnumFlagsINS_22SystemSleepNetworkFlagEvEE+0x14>
            auto wakeupSource = new(std::nothrow) hal_wakeup_source_network_t();
   d41a8:	490b      	ldr	r1, [pc, #44]	; (d41d8 <_ZN8particle24SystemSleepConfiguration7networkEmNS_9EnumFlagsINS_22SystemSleepNetworkFlagEvEE+0x68>)
   d41aa:	2014      	movs	r0, #20
   d41ac:	f004 fc6f 	bl	d8a8e <_ZnwjRKSt9nothrow_t>
   d41b0:	4604      	mov	r4, r0
   d41b2:	b170      	cbz	r0, d41d2 <_ZN8particle24SystemSleepConfiguration7networkEmNS_9EnumFlagsINS_22SystemSleepNetworkFlagEvEE+0x62>
   d41b4:	2214      	movs	r2, #20
   d41b6:	2100      	movs	r1, #0
   d41b8:	f005 fada 	bl	d9770 <memset>
            wakeupSource->base.size = sizeof(hal_wakeup_source_gpio_t);
   d41bc:	4b07      	ldr	r3, [pc, #28]	; (d41dc <_ZN8particle24SystemSleepConfiguration7networkEmNS_9EnumFlagsINS_22SystemSleepNetworkFlagEvEE+0x6c>)
   d41be:	6023      	str	r3, [r4, #0]
            wakeupSource->base.type = HAL_WAKEUP_SOURCE_TYPE_NETWORK;
   d41c0:	230e      	movs	r3, #14
   d41c2:	80a3      	strh	r3, [r4, #4]
            wakeupSource->base.next = config_.wakeup_sources;
   d41c4:	692b      	ldr	r3, [r5, #16]
   d41c6:	60a3      	str	r3, [r4, #8]
            wakeupSource->flags = flags.value();
   d41c8:	8833      	ldrh	r3, [r6, #0]
            wakeupSource->index = static_cast<network_interface_index>(netif);
   d41ca:	7327      	strb	r7, [r4, #12]
            wakeupSource->flags = flags.value();
   d41cc:	81e3      	strh	r3, [r4, #14]
            config_.wakeup_sources = reinterpret_cast<hal_wakeup_source_base_t*>(wakeupSource);
   d41ce:	612c      	str	r4, [r5, #16]
   d41d0:	e7e2      	b.n	d4198 <_ZN8particle24SystemSleepConfiguration7networkEmNS_9EnumFlagsINS_22SystemSleepNetworkFlagEvEE+0x28>
                valid_ = false;
   d41d2:	7528      	strb	r0, [r5, #20]
                return *this;
   d41d4:	e7e0      	b.n	d4198 <_ZN8particle24SystemSleepConfiguration7networkEmNS_9EnumFlagsINS_22SystemSleepNetworkFlagEvEE+0x28>
   d41d6:	bf00      	nop
   d41d8:	000da6cc 	.word	0x000da6cc
   d41dc:	00030010 	.word	0x00030010

000d41e0 <_Z11enableRelay6String>:
{
   d41e0:	b538      	push	{r3, r4, r5, lr}
   d41e2:	490a      	ldr	r1, [pc, #40]	; (d420c <_Z11enableRelay6String+0x2c>)
   d41e4:	4605      	mov	r5, r0
   d41e6:	f003 faea 	bl	d77be <_ZNK6String6equalsEPKc>
  if (command == "on")
   d41ea:	4604      	mov	r4, r0
   d41ec:	b128      	cbz	r0, d41fa <_Z11enableRelay6String+0x1a>
    digitalWrite(D5, HIGH);
   d41ee:	2101      	movs	r1, #1
}
   d41f0:	e8bd 4038 	ldmia.w	sp!, {r3, r4, r5, lr}
    digitalWrite(D5, LOW);
   d41f4:	2005      	movs	r0, #5
   d41f6:	f004 bb96 	b.w	d8926 <digitalWrite>
   d41fa:	4905      	ldr	r1, [pc, #20]	; (d4210 <_Z11enableRelay6String+0x30>)
   d41fc:	4628      	mov	r0, r5
   d41fe:	f003 fade 	bl	d77be <_ZNK6String6equalsEPKc>
  else if (command == "off")
   d4202:	b108      	cbz	r0, d4208 <_Z11enableRelay6String+0x28>
    digitalWrite(D5, LOW);
   d4204:	4621      	mov	r1, r4
   d4206:	e7f3      	b.n	d41f0 <_Z11enableRelay6String+0x10>
}
   d4208:	bd38      	pop	{r3, r4, r5, pc}
   d420a:	bf00      	nop
   d420c:	000da481 	.word	0x000da481
   d4210:	000d9885 	.word	0x000d9885

000d4214 <_Z12disableRelay6String>:
{
   d4214:	b538      	push	{r3, r4, r5, lr}
   d4216:	490a      	ldr	r1, [pc, #40]	; (d4240 <_Z12disableRelay6String+0x2c>)
   d4218:	4605      	mov	r5, r0
   d421a:	f003 fad0 	bl	d77be <_ZNK6String6equalsEPKc>
  if (command == "on")
   d421e:	4604      	mov	r4, r0
   d4220:	b128      	cbz	r0, d422e <_Z12disableRelay6String+0x1a>
    digitalWrite(D4, HIGH);
   d4222:	2101      	movs	r1, #1
}
   d4224:	e8bd 4038 	ldmia.w	sp!, {r3, r4, r5, lr}
    digitalWrite(D4, LOW);
   d4228:	2004      	movs	r0, #4
   d422a:	f004 bb7c 	b.w	d8926 <digitalWrite>
   d422e:	4905      	ldr	r1, [pc, #20]	; (d4244 <_Z12disableRelay6String+0x30>)
   d4230:	4628      	mov	r0, r5
   d4232:	f003 fac4 	bl	d77be <_ZNK6String6equalsEPKc>
  else if (command == "off")
   d4236:	b108      	cbz	r0, d423c <_Z12disableRelay6String+0x28>
    digitalWrite(D4, LOW);
   d4238:	4621      	mov	r1, r4
   d423a:	e7f3      	b.n	d4224 <_Z12disableRelay6String+0x10>
}
   d423c:	bd38      	pop	{r3, r4, r5, pc}
   d423e:	bf00      	nop
   d4240:	000da481 	.word	0x000da481
   d4244:	000d9885 	.word	0x000d9885

000d4248 <_Z3arm6String>:
{
   d4248:	b51f      	push	{r0, r1, r2, r3, r4, lr}
   d424a:	4921      	ldr	r1, [pc, #132]	; (d42d0 <_Z3arm6String+0x88>)
   d424c:	4604      	mov	r4, r0
   d424e:	f003 fab6 	bl	d77be <_ZNK6String6equalsEPKc>
  if (command == "disarm")
   d4252:	b300      	cbz	r0, d4296 <_Z3arm6String+0x4e>
    Serial.println("Disarmed");
   d4254:	f004 f8aa 	bl	d83ac <_Z16_fetch_usbserialv>
   d4258:	491e      	ldr	r1, [pc, #120]	; (d42d4 <_Z3arm6String+0x8c>)
   d425a:	f003 fb40 	bl	d78de <_ZN5Print7printlnEPKc>
    enableRelay("on");
   d425e:	491e      	ldr	r1, [pc, #120]	; (d42d8 <_Z3arm6String+0x90>)
   d4260:	4668      	mov	r0, sp
   d4262:	f003 f9f4 	bl	d764e <_ZN6StringC1EPKc>
   d4266:	4668      	mov	r0, sp
   d4268:	f7ff ffba 	bl	d41e0 <_Z11enableRelay6String>
   d426c:	4668      	mov	r0, sp
   d426e:	f003 f9a3 	bl	d75b8 <_ZN6StringD1Ev>
    disableRelay("off");
   d4272:	491a      	ldr	r1, [pc, #104]	; (d42dc <_Z3arm6String+0x94>)
   d4274:	4668      	mov	r0, sp
   d4276:	f003 f9ea 	bl	d764e <_ZN6StringC1EPKc>
   d427a:	4668      	mov	r0, sp
   d427c:	f7ff ffca 	bl	d4214 <_Z12disableRelay6String>
   d4280:	4668      	mov	r0, sp
   d4282:	f003 f999 	bl	d75b8 <_ZN6StringD1Ev>
    armed = false;
   d4286:	4a16      	ldr	r2, [pc, #88]	; (d42e0 <_Z3arm6String+0x98>)
   d4288:	2300      	movs	r3, #0
   d428a:	7013      	strb	r3, [r2, #0]
    armedInt = 0;
   d428c:	4a15      	ldr	r2, [pc, #84]	; (d42e4 <_Z3arm6String+0x9c>)
    return 1;
   d428e:	2001      	movs	r0, #1
    armedInt = 0;
   d4290:	6013      	str	r3, [r2, #0]
}
   d4292:	b004      	add	sp, #16
   d4294:	bd10      	pop	{r4, pc}
   d4296:	4914      	ldr	r1, [pc, #80]	; (d42e8 <_Z3arm6String+0xa0>)
   d4298:	4620      	mov	r0, r4
   d429a:	f003 fa90 	bl	d77be <_ZNK6String6equalsEPKc>
  if (command == "arm")
   d429e:	2800      	cmp	r0, #0
   d42a0:	d0f7      	beq.n	d4292 <_Z3arm6String+0x4a>
    Serial.println("Armed");
   d42a2:	f004 f883 	bl	d83ac <_Z16_fetch_usbserialv>
   d42a6:	4911      	ldr	r1, [pc, #68]	; (d42ec <_Z3arm6String+0xa4>)
   d42a8:	f003 fb19 	bl	d78de <_ZN5Print7printlnEPKc>
    enableRelay("off");
   d42ac:	490b      	ldr	r1, [pc, #44]	; (d42dc <_Z3arm6String+0x94>)
   d42ae:	4668      	mov	r0, sp
   d42b0:	f003 f9cd 	bl	d764e <_ZN6StringC1EPKc>
   d42b4:	4668      	mov	r0, sp
   d42b6:	f7ff ff93 	bl	d41e0 <_Z11enableRelay6String>
   d42ba:	4668      	mov	r0, sp
   d42bc:	f003 f97c 	bl	d75b8 <_ZN6StringD1Ev>
    armed = true;
   d42c0:	4a07      	ldr	r2, [pc, #28]	; (d42e0 <_Z3arm6String+0x98>)
   d42c2:	2301      	movs	r3, #1
   d42c4:	7013      	strb	r3, [r2, #0]
    armedInt = 1;
   d42c6:	4a07      	ldr	r2, [pc, #28]	; (d42e4 <_Z3arm6String+0x9c>)
   d42c8:	2002      	movs	r0, #2
   d42ca:	6013      	str	r3, [r2, #0]
    return 2;
   d42cc:	e7e1      	b.n	d4292 <_Z3arm6String+0x4a>
   d42ce:	bf00      	nop
   d42d0:	000d9889 	.word	0x000d9889
   d42d4:	000d9890 	.word	0x000d9890
   d42d8:	000da481 	.word	0x000da481
   d42dc:	000d9885 	.word	0x000d9885
   d42e0:	2003e0b4 	.word	0x2003e0b4
   d42e4:	2003e0b8 	.word	0x2003e0b8
   d42e8:	000d988c 	.word	0x000d988c
   d42ec:	000d9899 	.word	0x000d9899

000d42f0 <_Z7disable6String>:
  }
  //myRfid.clearTags();
}

int disable(String command)
{
   d42f0:	b530      	push	{r4, r5, lr}
   d42f2:	b085      	sub	sp, #20
   d42f4:	4605      	mov	r5, r0
  Serial.println("Disabling relay 2");
   d42f6:	f004 f859 	bl	d83ac <_Z16_fetch_usbserialv>
   d42fa:	4922      	ldr	r1, [pc, #136]	; (d4384 <_Z7disable6String+0x94>)
   d42fc:	f003 faef 	bl	d78de <_ZN5Print7printlnEPKc>
   d4300:	4921      	ldr	r1, [pc, #132]	; (d4388 <_Z7disable6String+0x98>)
   d4302:	4628      	mov	r0, r5
   d4304:	f003 fa5b 	bl	d77be <_ZNK6String6equalsEPKc>
  if (command == "disable")
   d4308:	4604      	mov	r4, r0
   d430a:	b1e8      	cbz	r0, d4348 <_Z7disable6String+0x58>
  {
    disabled = 1;
   d430c:	4b1f      	ldr	r3, [pc, #124]	; (d438c <_Z7disable6String+0x9c>)
    armed = true;
    armedInt = 1;
    disableRelay("on");
   d430e:	4920      	ldr	r1, [pc, #128]	; (d4390 <_Z7disable6String+0xa0>)
    disabled = 1;
   d4310:	2401      	movs	r4, #1
   d4312:	601c      	str	r4, [r3, #0]
    armed = true;
   d4314:	4b1f      	ldr	r3, [pc, #124]	; (d4394 <_Z7disable6String+0xa4>)
   d4316:	701c      	strb	r4, [r3, #0]
    armedInt = 1;
   d4318:	4b1f      	ldr	r3, [pc, #124]	; (d4398 <_Z7disable6String+0xa8>)
    disableRelay("on");
   d431a:	4668      	mov	r0, sp
    armedInt = 1;
   d431c:	601c      	str	r4, [r3, #0]
    disableRelay("on");
   d431e:	f003 f996 	bl	d764e <_ZN6StringC1EPKc>
   d4322:	4668      	mov	r0, sp
   d4324:	f7ff ff76 	bl	d4214 <_Z12disableRelay6String>
   d4328:	4668      	mov	r0, sp
   d432a:	f003 f945 	bl	d75b8 <_ZN6StringD1Ev>
    enableRelay("off"); 
   d432e:	491b      	ldr	r1, [pc, #108]	; (d439c <_Z7disable6String+0xac>)
   d4330:	4668      	mov	r0, sp
   d4332:	f003 f98c 	bl	d764e <_ZN6StringC1EPKc>
   d4336:	4668      	mov	r0, sp
   d4338:	f7ff ff52 	bl	d41e0 <_Z11enableRelay6String>
   d433c:	4668      	mov	r0, sp
   d433e:	f003 f93b 	bl	d75b8 <_ZN6StringD1Ev>
    return 1;
   d4342:	4620      	mov	r0, r4
    disableRelay("off");
    enableRelay("on");
    return 2;
  }
  return 0;
}
   d4344:	b005      	add	sp, #20
   d4346:	bd30      	pop	{r4, r5, pc}
   d4348:	4915      	ldr	r1, [pc, #84]	; (d43a0 <_Z7disable6String+0xb0>)
   d434a:	4628      	mov	r0, r5
   d434c:	f003 fa37 	bl	d77be <_ZNK6String6equalsEPKc>
  else if (command == "enable")
   d4350:	2800      	cmp	r0, #0
   d4352:	d0f7      	beq.n	d4344 <_Z7disable6String+0x54>
    disabled = 0;
   d4354:	4b0d      	ldr	r3, [pc, #52]	; (d438c <_Z7disable6String+0x9c>)
    disableRelay("off");
   d4356:	4911      	ldr	r1, [pc, #68]	; (d439c <_Z7disable6String+0xac>)
    disabled = 0;
   d4358:	601c      	str	r4, [r3, #0]
    disableRelay("off");
   d435a:	4668      	mov	r0, sp
   d435c:	f003 f977 	bl	d764e <_ZN6StringC1EPKc>
   d4360:	4668      	mov	r0, sp
   d4362:	f7ff ff57 	bl	d4214 <_Z12disableRelay6String>
   d4366:	4668      	mov	r0, sp
   d4368:	f003 f926 	bl	d75b8 <_ZN6StringD1Ev>
    enableRelay("on");
   d436c:	4908      	ldr	r1, [pc, #32]	; (d4390 <_Z7disable6String+0xa0>)
   d436e:	4668      	mov	r0, sp
   d4370:	f003 f96d 	bl	d764e <_ZN6StringC1EPKc>
   d4374:	4668      	mov	r0, sp
   d4376:	f7ff ff33 	bl	d41e0 <_Z11enableRelay6String>
   d437a:	4668      	mov	r0, sp
   d437c:	f003 f91c 	bl	d75b8 <_ZN6StringD1Ev>
   d4380:	2002      	movs	r0, #2
   d4382:	e7df      	b.n	d4344 <_Z7disable6String+0x54>
   d4384:	000d989f 	.word	0x000d989f
   d4388:	000d98b1 	.word	0x000d98b1
   d438c:	2003e158 	.word	0x2003e158
   d4390:	000da481 	.word	0x000da481
   d4394:	2003e0b4 	.word	0x2003e0b4
   d4398:	2003e0b8 	.word	0x2003e0b8
   d439c:	000d9885 	.word	0x000d9885
   d43a0:	000d98b9 	.word	0x000d98b9
   d43a4:	00000000 	.word	0x00000000

000d43a8 <_Z10getGPSDatav>:
{
   d43a8:	b57f      	push	{r0, r1, r2, r3, r4, r5, r6, lr}
  Serial.println("Getting location................................");
   d43aa:	f003 ffff 	bl	d83ac <_Z16_fetch_usbserialv>
   d43ae:	4942      	ldr	r1, [pc, #264]	; (d44b8 <_Z10getGPSDatav+0x110>)
   d43b0:	f003 fa95 	bl	d78de <_ZN5Print7printlnEPKc>
  fixType = myGPS.getFixType();
   d43b4:	4841      	ldr	r0, [pc, #260]	; (d44bc <_Z10getGPSDatav+0x114>)
   d43b6:	f240 414c 	movw	r1, #1100	; 0x44c
   d43ba:	f002 f9ad 	bl	d6718 <_ZN13SFE_UBLOX_GPS10getFixTypeEt>
   d43be:	4b40      	ldr	r3, [pc, #256]	; (d44c0 <_Z10getGPSDatav+0x118>)
   d43c0:	7018      	strb	r0, [r3, #0]
  if (fixType == 0)
   d43c2:	b918      	cbnz	r0, d43cc <_Z10getGPSDatav+0x24>
    awakeDuration = 35000;
   d43c4:	4b3f      	ldr	r3, [pc, #252]	; (d44c4 <_Z10getGPSDatav+0x11c>)
   d43c6:	f648 02b8 	movw	r2, #35000	; 0x88b8
   d43ca:	601a      	str	r2, [r3, #0]
  latitude = myGPS.getLatitude();
   d43cc:	f240 414c 	movw	r1, #1100	; 0x44c
   d43d0:	483a      	ldr	r0, [pc, #232]	; (d44bc <_Z10getGPSDatav+0x114>)
   d43d2:	4e3d      	ldr	r6, [pc, #244]	; (d44c8 <_Z10getGPSDatav+0x120>)
  longitude = myGPS.getLongitude();
   d43d4:	4d3d      	ldr	r5, [pc, #244]	; (d44cc <_Z10getGPSDatav+0x124>)
  latitude = myGPS.getLatitude();
   d43d6:	f002 f97d 	bl	d66d4 <_ZN13SFE_UBLOX_GPS11getLatitudeEt>
  longitude = myGPS.getLongitude();
   d43da:	f240 414c 	movw	r1, #1100	; 0x44c
  latitude = myGPS.getLatitude();
   d43de:	6030      	str	r0, [r6, #0]
  longitude = myGPS.getLongitude();
   d43e0:	4836      	ldr	r0, [pc, #216]	; (d44bc <_Z10getGPSDatav+0x114>)
   d43e2:	f002 f988 	bl	d66f6 <_ZN13SFE_UBLOX_GPS12getLongitudeEt>
  spd = myGPS.getGroundSpeed() / 278;
   d43e6:	f240 414c 	movw	r1, #1100	; 0x44c
  longitude = myGPS.getLongitude();
   d43ea:	6028      	str	r0, [r5, #0]
  spd = myGPS.getGroundSpeed() / 278;
   d43ec:	4833      	ldr	r0, [pc, #204]	; (d44bc <_Z10getGPSDatav+0x114>)
   d43ee:	f002 f9a6 	bl	d673e <_ZN13SFE_UBLOX_GPS14getGroundSpeedEt>
   d43f2:	f44f 738b 	mov.w	r3, #278	; 0x116
   d43f6:	fb90 f0f3 	sdiv	r0, r0, r3
   d43fa:	4b35      	ldr	r3, [pc, #212]	; (d44d0 <_Z10getGPSDatav+0x128>)
  latString = "";
   d43fc:	4935      	ldr	r1, [pc, #212]	; (d44d4 <_Z10getGPSDatav+0x12c>)
  spd = myGPS.getGroundSpeed() / 278;
   d43fe:	6018      	str	r0, [r3, #0]
  latString = "";
   d4400:	4835      	ldr	r0, [pc, #212]	; (d44d8 <_Z10getGPSDatav+0x130>)
   d4402:	f003 f977 	bl	d76f4 <_ZN6StringaSEPKc>
  lonString = "";
   d4406:	4933      	ldr	r1, [pc, #204]	; (d44d4 <_Z10getGPSDatav+0x12c>)
   d4408:	4834      	ldr	r0, [pc, #208]	; (d44dc <_Z10getGPSDatav+0x134>)
   d440a:	f003 f973 	bl	d76f4 <_ZN6StringaSEPKc>
  latString += String(latitude / 10000000.0);
   d440e:	6830      	ldr	r0, [r6, #0]
   d4410:	f004 fc96 	bl	d8d40 <__aeabi_i2d>
   d4414:	a326      	add	r3, pc, #152	; (adr r3, d44b0 <_Z10getGPSDatav+0x108>)
   d4416:	e9d3 2300 	ldrd	r2, r3, [r3]
   d441a:	f004 fe25 	bl	d9068 <__aeabi_ddiv>
   d441e:	ec41 0b10 	vmov	d0, r0, r1
   d4422:	2106      	movs	r1, #6
   d4424:	4668      	mov	r0, sp
   d4426:	f003 f98a 	bl	d773e <_ZN6StringC1Edi>
	String & operator += (const String &rhs)	{concat(rhs); return (*this);}
   d442a:	4669      	mov	r1, sp
   d442c:	482a      	ldr	r0, [pc, #168]	; (d44d8 <_Z10getGPSDatav+0x130>)
   d442e:	f003 f9b1 	bl	d7794 <_ZN6String6concatERKS_>
   d4432:	4668      	mov	r0, sp
   d4434:	f003 f8c0 	bl	d75b8 <_ZN6StringD1Ev>
  Serial.println(latitude / 10000000.0);
   d4438:	f003 ffb8 	bl	d83ac <_Z16_fetch_usbserialv>
   d443c:	4604      	mov	r4, r0
   d443e:	6830      	ldr	r0, [r6, #0]
   d4440:	f004 fc7e 	bl	d8d40 <__aeabi_i2d>
   d4444:	a31a      	add	r3, pc, #104	; (adr r3, d44b0 <_Z10getGPSDatav+0x108>)
   d4446:	e9d3 2300 	ldrd	r2, r3, [r3]
   d444a:	f004 fe0d 	bl	d9068 <__aeabi_ddiv>
   d444e:	ec41 0b10 	vmov	d0, r0, r1
   d4452:	2102      	movs	r1, #2
   d4454:	4620      	mov	r0, r4
   d4456:	f003 fb35 	bl	d7ac4 <_ZN5Print7printlnEdi>
  lonString += String(longitude / 10000000.0);
   d445a:	6828      	ldr	r0, [r5, #0]
   d445c:	f004 fc70 	bl	d8d40 <__aeabi_i2d>
   d4460:	a313      	add	r3, pc, #76	; (adr r3, d44b0 <_Z10getGPSDatav+0x108>)
   d4462:	e9d3 2300 	ldrd	r2, r3, [r3]
   d4466:	f004 fdff 	bl	d9068 <__aeabi_ddiv>
   d446a:	ec41 0b10 	vmov	d0, r0, r1
   d446e:	2106      	movs	r1, #6
   d4470:	4668      	mov	r0, sp
   d4472:	f003 f964 	bl	d773e <_ZN6StringC1Edi>
   d4476:	4669      	mov	r1, sp
   d4478:	4818      	ldr	r0, [pc, #96]	; (d44dc <_Z10getGPSDatav+0x134>)
   d447a:	f003 f98b 	bl	d7794 <_ZN6String6concatERKS_>
   d447e:	4668      	mov	r0, sp
   d4480:	f003 f89a 	bl	d75b8 <_ZN6StringD1Ev>
  Serial.println(longitude / 10000000.0);
   d4484:	f003 ff92 	bl	d83ac <_Z16_fetch_usbserialv>
   d4488:	4604      	mov	r4, r0
   d448a:	6828      	ldr	r0, [r5, #0]
   d448c:	f004 fc58 	bl	d8d40 <__aeabi_i2d>
   d4490:	a307      	add	r3, pc, #28	; (adr r3, d44b0 <_Z10getGPSDatav+0x108>)
   d4492:	e9d3 2300 	ldrd	r2, r3, [r3]
   d4496:	f004 fde7 	bl	d9068 <__aeabi_ddiv>
   d449a:	ec41 0b10 	vmov	d0, r0, r1
   d449e:	2102      	movs	r1, #2
   d44a0:	4620      	mov	r0, r4
   d44a2:	f003 fb0f 	bl	d7ac4 <_ZN5Print7printlnEdi>
}
   d44a6:	b004      	add	sp, #16
   d44a8:	bd70      	pop	{r4, r5, r6, pc}
   d44aa:	bf00      	nop
   d44ac:	f3af 8000 	nop.w
   d44b0:	00000000 	.word	0x00000000
   d44b4:	416312d0 	.word	0x416312d0
   d44b8:	000d98c0 	.word	0x000d98c0
   d44bc:	2003e188 	.word	0x2003e188
   d44c0:	2003e15c 	.word	0x2003e15c
   d44c4:	2003e0bc 	.word	0x2003e0bc
   d44c8:	2003e170 	.word	0x2003e170
   d44cc:	2003e184 	.word	0x2003e184
   d44d0:	2003e6ec 	.word	0x2003e6ec
   d44d4:	000da1b7 	.word	0x000da1b7
   d44d8:	2003e160 	.word	0x2003e160
   d44dc:	2003e174 	.word	0x2003e174

000d44e0 <_Z9startRFIDv>:
{
   d44e0:	b508      	push	{r3, lr}
  if (myRfid.begin())
   d44e2:	f004 fa7d 	bl	d89e0 <_Z19__fetch_global_Wirev>
   d44e6:	4601      	mov	r1, r0
   d44e8:	4808      	ldr	r0, [pc, #32]	; (d450c <_Z9startRFIDv+0x2c>)
   d44ea:	f002 fa2b 	bl	d6944 <_ZN10Qwiic_Rfid5beginER7TwoWire>
   d44ee:	b148      	cbz	r0, d4504 <_Z9startRFIDv+0x24>
    Serial.println("Ready to scan some tags!");
   d44f0:	f003 ff5c 	bl	d83ac <_Z16_fetch_usbserialv>
   d44f4:	4906      	ldr	r1, [pc, #24]	; (d4510 <_Z9startRFIDv+0x30>)
    Serial.println("Could not communicate with Qwiic RFID!");
   d44f6:	f003 f9f2 	bl	d78de <_ZN5Print7printlnEPKc>
}
   d44fa:	e8bd 4008 	ldmia.w	sp!, {r3, lr}
  myRfid.clearTags();
   d44fe:	4803      	ldr	r0, [pc, #12]	; (d450c <_Z9startRFIDv+0x2c>)
   d4500:	f002 bbc2 	b.w	d6c88 <_ZN10Qwiic_Rfid9clearTagsEv>
    Serial.println("Could not communicate with Qwiic RFID!");
   d4504:	f003 ff52 	bl	d83ac <_Z16_fetch_usbserialv>
   d4508:	4902      	ldr	r1, [pc, #8]	; (d4514 <_Z9startRFIDv+0x34>)
   d450a:	e7f4      	b.n	d44f6 <_Z9startRFIDv+0x16>
   d450c:	2003e534 	.word	0x2003e534
   d4510:	000d98f1 	.word	0x000d98f1
   d4514:	000d990a 	.word	0x000d990a

000d4518 <_Z10startAccelv>:
{
   d4518:	b510      	push	{r4, lr}
  if (accel.begin() == false)
   d451a:	480a      	ldr	r0, [pc, #40]	; (d4544 <_Z10startAccelv+0x2c>)
   d451c:	2200      	movs	r2, #0
   d451e:	2102      	movs	r1, #2
   d4520:	f002 f9d0 	bl	d68c4 <_ZN8MMA8452Q5beginE14MMA8452Q_Scale12MMA8452Q_ODR>
   d4524:	4604      	mov	r4, r0
   d4526:	b930      	cbnz	r0, d4536 <_Z10startAccelv+0x1e>
    Serial.println(" Accelerometer not Connected. Please check connections.");
   d4528:	f003 ff40 	bl	d83ac <_Z16_fetch_usbserialv>
   d452c:	4906      	ldr	r1, [pc, #24]	; (d4548 <_Z10startAccelv+0x30>)
   d452e:	f003 f9d6 	bl	d78de <_ZN5Print7printlnEPKc>
   d4532:	4620      	mov	r0, r4
}
   d4534:	bd10      	pop	{r4, pc}
    Serial.println("Accelerometer started.");
   d4536:	f003 ff39 	bl	d83ac <_Z16_fetch_usbserialv>
   d453a:	4904      	ldr	r1, [pc, #16]	; (d454c <_Z10startAccelv+0x34>)
   d453c:	f003 f9cf 	bl	d78de <_ZN5Print7printlnEPKc>
    success = true;
   d4540:	2001      	movs	r0, #1
   d4542:	e7f7      	b.n	d4534 <_Z10startAccelv+0x1c>
   d4544:	2003e13c 	.word	0x2003e13c
   d4548:	000d9931 	.word	0x000d9931
   d454c:	000d9969 	.word	0x000d9969

000d4550 <_Z8startGPSv>:
{
   d4550:	b510      	push	{r4, lr}
  if (myGPS.begin() == false) //Connect to the Ublox module using Wire port
   d4552:	f004 fa45 	bl	d89e0 <_Z19__fetch_global_Wirev>
   d4556:	2242      	movs	r2, #66	; 0x42
   d4558:	4601      	mov	r1, r0
   d455a:	480e      	ldr	r0, [pc, #56]	; (d4594 <_Z8startGPSv+0x44>)
   d455c:	f001 ffc6 	bl	d64ec <_ZN13SFE_UBLOX_GPS5beginER7TwoWireh>
   d4560:	4604      	mov	r4, r0
   d4562:	b980      	cbnz	r0, d4586 <_Z8startGPSv+0x36>
    Serial.println(F("Ublox GPS not detected at default I2C address. Please check wiring."));
   d4564:	f003 ff22 	bl	d83ac <_Z16_fetch_usbserialv>
   d4568:	490b      	ldr	r1, [pc, #44]	; (d4598 <_Z8startGPSv+0x48>)
   d456a:	f003 f9c2 	bl	d78f2 <_ZN5Print7printlnEPK19__FlashStringHelper>
  myGPS.setI2COutput(COM_TYPE_UBX); //Set the I2C port to output UBX only (turn off NMEA noise)
   d456e:	22fa      	movs	r2, #250	; 0xfa
   d4570:	2101      	movs	r1, #1
   d4572:	4808      	ldr	r0, [pc, #32]	; (d4594 <_Z8startGPSv+0x44>)
   d4574:	f002 f82e 	bl	d65d4 <_ZN13SFE_UBLOX_GPS12setI2COutputEht>
  myGPS.saveConfiguration();        //Save the current settings to flash and BBR
   d4578:	f240 414c 	movw	r1, #1100	; 0x44c
   d457c:	4805      	ldr	r0, [pc, #20]	; (d4594 <_Z8startGPSv+0x44>)
   d457e:	f001 ffd3 	bl	d6528 <_ZN13SFE_UBLOX_GPS17saveConfigurationEt>
}
   d4582:	4620      	mov	r0, r4
   d4584:	bd10      	pop	{r4, pc}
    Serial.println("GPS started.");
   d4586:	f003 ff11 	bl	d83ac <_Z16_fetch_usbserialv>
   d458a:	4904      	ldr	r1, [pc, #16]	; (d459c <_Z8startGPSv+0x4c>)
   d458c:	f003 f9a7 	bl	d78de <_ZN5Print7printlnEPKc>
    success = true;
   d4590:	e7ed      	b.n	d456e <_Z8startGPSv+0x1e>
   d4592:	bf00      	nop
   d4594:	2003e188 	.word	0x2003e188
   d4598:	000d9980 	.word	0x000d9980
   d459c:	000d99c4 	.word	0x000d99c4

000d45a0 <_Z17movementDetectionv>:
{
   d45a0:	b508      	push	{r3, lr}
  Serial.println("checking movement");
   d45a2:	f003 ff03 	bl	d83ac <_Z16_fetch_usbserialv>
   d45a6:	490a      	ldr	r1, [pc, #40]	; (d45d0 <_Z17movementDetectionv+0x30>)
   d45a8:	f003 f999 	bl	d78de <_ZN5Print7printlnEPKc>
  if (accel.available())
   d45ac:	4809      	ldr	r0, [pc, #36]	; (d45d4 <_Z17movementDetectionv+0x34>)
   d45ae:	f002 f928 	bl	d6802 <_ZN8MMA8452Q9availableEv>
   d45b2:	b908      	cbnz	r0, d45b8 <_Z17movementDetectionv+0x18>
  bool movement = false;
   d45b4:	2000      	movs	r0, #0
}
   d45b6:	bd08      	pop	{r3, pc}
    if (accel.readTap() > 0)
   d45b8:	4806      	ldr	r0, [pc, #24]	; (d45d4 <_Z17movementDetectionv+0x34>)
   d45ba:	f002 f94b 	bl	d6854 <_ZN8MMA8452Q7readTapEv>
   d45be:	2800      	cmp	r0, #0
   d45c0:	d0f8      	beq.n	d45b4 <_Z17movementDetectionv+0x14>
      Serial.println("Movement detected.");
   d45c2:	f003 fef3 	bl	d83ac <_Z16_fetch_usbserialv>
   d45c6:	4904      	ldr	r1, [pc, #16]	; (d45d8 <_Z17movementDetectionv+0x38>)
   d45c8:	f003 f989 	bl	d78de <_ZN5Print7printlnEPKc>
   d45cc:	2001      	movs	r0, #1
   d45ce:	e7f2      	b.n	d45b6 <_Z17movementDetectionv+0x16>
   d45d0:	000d99d1 	.word	0x000d99d1
   d45d4:	2003e13c 	.word	0x2003e13c
   d45d8:	000d99e3 	.word	0x000d99e3

000d45dc <_Z6sentryv>:
{
   d45dc:	b51f      	push	{r0, r1, r2, r3, r4, lr}
  Serial.println("Guarding...");
   d45de:	f003 fee5 	bl	d83ac <_Z16_fetch_usbserialv>
   d45e2:	4915      	ldr	r1, [pc, #84]	; (d4638 <_Z6sentryv+0x5c>)
   d45e4:	f003 f97b 	bl	d78de <_ZN5Print7printlnEPKc>
  getGPSData();
   d45e8:	f7ff fede 	bl	d43a8 <_Z10getGPSDatav>
  if (movementDetection() && (spd > 10))
   d45ec:	f7ff ffd8 	bl	d45a0 <_Z17movementDetectionv>
   d45f0:	b1f8      	cbz	r0, d4632 <_Z6sentryv+0x56>
   d45f2:	4b12      	ldr	r3, [pc, #72]	; (d463c <_Z6sentryv+0x60>)
   d45f4:	681b      	ldr	r3, [r3, #0]
   d45f6:	2b0a      	cmp	r3, #10
   d45f8:	dd1b      	ble.n	d4632 <_Z6sentryv+0x56>
    stolen = true;
   d45fa:	4b11      	ldr	r3, [pc, #68]	; (d4640 <_Z6sentryv+0x64>)
    arm("arm");
   d45fc:	4911      	ldr	r1, [pc, #68]	; (d4644 <_Z6sentryv+0x68>)
    stolen = true;
   d45fe:	2201      	movs	r2, #1
    arm("arm");
   d4600:	4668      	mov	r0, sp
    stolen = true;
   d4602:	701a      	strb	r2, [r3, #0]
    arm("arm");
   d4604:	f003 f823 	bl	d764e <_ZN6StringC1EPKc>
   d4608:	4668      	mov	r0, sp
   d460a:	f7ff fe1d 	bl	d4248 <_Z3arm6String>
   d460e:	4668      	mov	r0, sp
   d4610:	f002 ffd2 	bl	d75b8 <_ZN6StringD1Ev>
    disable("disable");
   d4614:	490c      	ldr	r1, [pc, #48]	; (d4648 <_Z6sentryv+0x6c>)
   d4616:	4668      	mov	r0, sp
   d4618:	f003 f819 	bl	d764e <_ZN6StringC1EPKc>
   d461c:	4668      	mov	r0, sp
   d461e:	f7ff fe67 	bl	d42f0 <_Z7disable6String>
   d4622:	4668      	mov	r0, sp
   d4624:	f002 ffc8 	bl	d75b8 <_ZN6StringD1Ev>
    Serial.println("STOLEN MESSAGE SENT");
   d4628:	f003 fec0 	bl	d83ac <_Z16_fetch_usbserialv>
   d462c:	4907      	ldr	r1, [pc, #28]	; (d464c <_Z6sentryv+0x70>)
   d462e:	f003 f956 	bl	d78de <_ZN5Print7printlnEPKc>
}
   d4632:	b005      	add	sp, #20
   d4634:	f85d fb04 	ldr.w	pc, [sp], #4
   d4638:	000d99f6 	.word	0x000d99f6
   d463c:	2003e6ec 	.word	0x2003e6ec
   d4640:	2003e6f0 	.word	0x2003e6f0
   d4644:	000d988c 	.word	0x000d988c
   d4648:	000d98b1 	.word	0x000d98b1
   d464c:	000d9a02 	.word	0x000d9a02

000d4650 <_Z7sendSMS6String>:
{
   d4650:	b51f      	push	{r0, r1, r2, r3, r4, lr}
   d4652:	4b0f      	ldr	r3, [pc, #60]	; (d4690 <_Z7sendSMS6String+0x40>)
        operator const char*() const { return c_str(); }
   d4654:	6802      	ldr	r2, [r0, #0]
inline particle::Flags<TagT, ValueT>::Flags(Flag<TagT, ValueT> flag) :
        val_(flag.value()) {
}

template<typename TagT, typename ValueT>
inline particle::Flags<TagT, ValueT>::Flags(ValueT val) :
   d4656:	781b      	ldrb	r3, [r3, #0]
        return publish_event(eventName, eventData, ttl, flags1 | flags2);
   d4658:	f88d 3000 	strb.w	r3, [sp]
   d465c:	490d      	ldr	r1, [pc, #52]	; (d4694 <_Z7sendSMS6String+0x44>)
   d465e:	233c      	movs	r3, #60	; 0x3c
   d4660:	a802      	add	r0, sp, #8
   d4662:	f003 fc5f 	bl	d7f24 <_ZN10CloudClass13publish_eventEPKcS1_iN8particle5FlagsI15PublishFlagTypehEE>
      // Does not throw if __r._M_get_use_count() == 0, caller must check.
      explicit __shared_count(const __weak_count<_Lp>& __r, std::nothrow_t);

      ~__shared_count() noexcept
      {
	if (_M_pi != nullptr)
   d4666:	9c03      	ldr	r4, [sp, #12]
   d4668:	b17c      	cbz	r4, d468a <_Z7sendSMS6String+0x3a>
      if (--_M_use_count == 0)
   d466a:	6863      	ldr	r3, [r4, #4]
   d466c:	3b01      	subs	r3, #1
   d466e:	6063      	str	r3, [r4, #4]
   d4670:	b95b      	cbnz	r3, d468a <_Z7sendSMS6String+0x3a>
          _M_dispose();
   d4672:	6823      	ldr	r3, [r4, #0]
   d4674:	4620      	mov	r0, r4
   d4676:	689b      	ldr	r3, [r3, #8]
   d4678:	4798      	blx	r3
          if (--_M_weak_count == 0)
   d467a:	68a3      	ldr	r3, [r4, #8]
   d467c:	3b01      	subs	r3, #1
   d467e:	60a3      	str	r3, [r4, #8]
   d4680:	b91b      	cbnz	r3, d468a <_Z7sendSMS6String+0x3a>
            _M_destroy();
   d4682:	6823      	ldr	r3, [r4, #0]
   d4684:	4620      	mov	r0, r4
   d4686:	68db      	ldr	r3, [r3, #12]
   d4688:	4798      	blx	r3
}
   d468a:	2000      	movs	r0, #0
   d468c:	b004      	add	sp, #16
   d468e:	bd10      	pop	{r4, pc}
   d4690:	2003e138 	.word	0x2003e138
   d4694:	000d9a16 	.word	0x000d9a16

000d4698 <_Z11stolenAlertb>:
{
   d4698:	b500      	push	{lr}
   d469a:	b089      	sub	sp, #36	; 0x24
  if (send)
   d469c:	2800      	cmp	r0, #0
   d469e:	d035      	beq.n	d470c <_Z11stolenAlertb+0x74>

#ifdef __cplusplus
extern "C" {
#endif

inline system_tick_t millis(void) { return HAL_Timer_Get_Milli_Seconds(); }
   d46a0:	f002 fb36 	bl	d6d10 <HAL_Timer_Get_Milli_Seconds>
    if (currentMillis - previousMillis > interval)
   d46a4:	4a1b      	ldr	r2, [pc, #108]	; (d4714 <_Z11stolenAlertb+0x7c>)
   d46a6:	491c      	ldr	r1, [pc, #112]	; (d4718 <_Z11stolenAlertb+0x80>)
   d46a8:	6813      	ldr	r3, [r2, #0]
   d46aa:	6809      	ldr	r1, [r1, #0]
   d46ac:	1ac3      	subs	r3, r0, r3
   d46ae:	428b      	cmp	r3, r1
   d46b0:	dd2c      	ble.n	d470c <_Z11stolenAlertb+0x74>
      previousMillis = currentMillis;
   d46b2:	6010      	str	r0, [r2, #0]
      Serial.println("STOLEN MESSAGE SENT");
   d46b4:	f003 fe7a 	bl	d83ac <_Z16_fetch_usbserialv>
   d46b8:	4918      	ldr	r1, [pc, #96]	; (d471c <_Z11stolenAlertb+0x84>)
   d46ba:	f003 f910 	bl	d78de <_ZN5Print7printlnEPKc>
      disable("disable");
   d46be:	4918      	ldr	r1, [pc, #96]	; (d4720 <_Z11stolenAlertb+0x88>)
   d46c0:	a804      	add	r0, sp, #16
   d46c2:	f002 ffc4 	bl	d764e <_ZN6StringC1EPKc>
   d46c6:	a804      	add	r0, sp, #16
   d46c8:	f7ff fe12 	bl	d42f0 <_Z7disable6String>
   d46cc:	a804      	add	r0, sp, #16
   d46ce:	f002 ff73 	bl	d75b8 <_ZN6StringD1Ev>
      String stolenString = "Stolen. Last location: https://www.google.com/maps/search/?api=1&query=";
   d46d2:	4914      	ldr	r1, [pc, #80]	; (d4724 <_Z11stolenAlertb+0x8c>)
   d46d4:	4668      	mov	r0, sp
   d46d6:	f002 ffba 	bl	d764e <_ZN6StringC1EPKc>
	String & operator += (const String &rhs)	{concat(rhs); return (*this);}
   d46da:	4913      	ldr	r1, [pc, #76]	; (d4728 <_Z11stolenAlertb+0x90>)
   d46dc:	4668      	mov	r0, sp
   d46de:	f003 f859 	bl	d7794 <_ZN6String6concatERKS_>
	String & operator += (const char *cstr)		{concat(cstr); return (*this);}
   d46e2:	4912      	ldr	r1, [pc, #72]	; (d472c <_Z11stolenAlertb+0x94>)
   d46e4:	4668      	mov	r0, sp
   d46e6:	f003 f859 	bl	d779c <_ZN6String6concatEPKc>
	String & operator += (const String &rhs)	{concat(rhs); return (*this);}
   d46ea:	4911      	ldr	r1, [pc, #68]	; (d4730 <_Z11stolenAlertb+0x98>)
   d46ec:	4668      	mov	r0, sp
   d46ee:	f003 f851 	bl	d7794 <_ZN6String6concatERKS_>
      sendSMS(stolenString);
   d46f2:	4669      	mov	r1, sp
   d46f4:	a804      	add	r0, sp, #16
   d46f6:	f002 ffea 	bl	d76ce <_ZN6StringC1ERKS_>
   d46fa:	a804      	add	r0, sp, #16
   d46fc:	f7ff ffa8 	bl	d4650 <_Z7sendSMS6String>
   d4700:	a804      	add	r0, sp, #16
   d4702:	f002 ff59 	bl	d75b8 <_ZN6StringD1Ev>
      String stolenString = "Stolen. Last location: https://www.google.com/maps/search/?api=1&query=";
   d4706:	4668      	mov	r0, sp
   d4708:	f002 ff56 	bl	d75b8 <_ZN6StringD1Ev>
}
   d470c:	b009      	add	sp, #36	; 0x24
   d470e:	f85d fb04 	ldr.w	pc, [sp], #4
   d4712:	bf00      	nop
   d4714:	2003e6e8 	.word	0x2003e6e8
   d4718:	2003e0c0 	.word	0x2003e0c0
   d471c:	000d9a02 	.word	0x000d9a02
   d4720:	000d98b1 	.word	0x000d98b1
   d4724:	000d9a21 	.word	0x000d9a21
   d4728:	2003e160 	.word	0x2003e160
   d472c:	000d9a69 	.word	0x000d9a69
   d4730:	2003e174 	.word	0x2003e174

000d4734 <_Z9checkRFIDv>:
{
   d4734:	b51f      	push	{r0, r1, r2, r3, r4, lr}
  Serial.println("Checking RFID");
   d4736:	f003 fe39 	bl	d83ac <_Z16_fetch_usbserialv>
  tag = myRfid.getTag();
   d473a:	4c2e      	ldr	r4, [pc, #184]	; (d47f4 <_Z9checkRFIDv+0xc0>)
  Serial.println("Checking RFID");
   d473c:	492e      	ldr	r1, [pc, #184]	; (d47f8 <_Z9checkRFIDv+0xc4>)
   d473e:	f003 f8ce 	bl	d78de <_ZN5Print7printlnEPKc>
  tag = myRfid.getTag();
   d4742:	492e      	ldr	r1, [pc, #184]	; (d47fc <_Z9checkRFIDv+0xc8>)
   d4744:	4668      	mov	r0, sp
   d4746:	f002 f9c5 	bl	d6ad4 <_ZN10Qwiic_Rfid6getTagEv>
   d474a:	4669      	mov	r1, sp
   d474c:	4620      	mov	r0, r4
   d474e:	f002 ffc9 	bl	d76e4 <_ZN6StringaSEOS_>
   d4752:	4668      	mov	r0, sp
   d4754:	f002 ff30 	bl	d75b8 <_ZN6StringD1Ev>
	unsigned char operator != (const String &rhs) const {return !equals(rhs);}
	unsigned char operator != (const char *cstr) const {return !equals(cstr);}
   d4758:	4929      	ldr	r1, [pc, #164]	; (d4800 <_Z9checkRFIDv+0xcc>)
   d475a:	4620      	mov	r0, r4
   d475c:	f003 f82f 	bl	d77be <_ZNK6String6equalsEPKc>
  if (tag != "000000")
   d4760:	b948      	cbnz	r0, d4776 <_Z9checkRFIDv+0x42>
    Serial.print("Tag: ");
   d4762:	f003 fe23 	bl	d83ac <_Z16_fetch_usbserialv>
   d4766:	4927      	ldr	r1, [pc, #156]	; (d4804 <_Z9checkRFIDv+0xd0>)
   d4768:	f003 f8a2 	bl	d78b0 <_ZN5Print5printEPKc>
    Serial.println(tag);
   d476c:	f003 fe1e 	bl	d83ac <_Z16_fetch_usbserialv>
   d4770:	6821      	ldr	r1, [r4, #0]
   d4772:	f003 f8b4 	bl	d78de <_ZN5Print7printlnEPKc>
  delay(50);
   d4776:	2032      	movs	r0, #50	; 0x32
   d4778:	f003 f9c2 	bl	d7b00 <delay>
	unsigned char operator == (const char *cstr) const {return equals(cstr);}
   d477c:	4922      	ldr	r1, [pc, #136]	; (d4808 <_Z9checkRFIDv+0xd4>)
   d477e:	481d      	ldr	r0, [pc, #116]	; (d47f4 <_Z9checkRFIDv+0xc0>)
   d4780:	f003 f81d 	bl	d77be <_ZNK6String6equalsEPKc>
  if (tag == "8507175142115" || tag == "140891033216") //change this to valid UIDs
   d4784:	b158      	cbz	r0, d479e <_Z9checkRFIDv+0x6a>
    Serial.println("Authorized Access");
   d4786:	f003 fe11 	bl	d83ac <_Z16_fetch_usbserialv>
   d478a:	4920      	ldr	r1, [pc, #128]	; (d480c <_Z9checkRFIDv+0xd8>)
   d478c:	f003 f8a7 	bl	d78de <_ZN5Print7printlnEPKc>
    armed = false;
   d4790:	4a1f      	ldr	r2, [pc, #124]	; (d4810 <_Z9checkRFIDv+0xdc>)
   d4792:	2300      	movs	r3, #0
   d4794:	7013      	strb	r3, [r2, #0]
    armedInt = 0;
   d4796:	4a1f      	ldr	r2, [pc, #124]	; (d4814 <_Z9checkRFIDv+0xe0>)
   d4798:	6013      	str	r3, [r2, #0]
}
   d479a:	b004      	add	sp, #16
   d479c:	bd10      	pop	{r4, pc}
   d479e:	491e      	ldr	r1, [pc, #120]	; (d4818 <_Z9checkRFIDv+0xe4>)
   d47a0:	4814      	ldr	r0, [pc, #80]	; (d47f4 <_Z9checkRFIDv+0xc0>)
   d47a2:	f003 f80c 	bl	d77be <_ZNK6String6equalsEPKc>
  if (tag == "8507175142115" || tag == "140891033216") //change this to valid UIDs
   d47a6:	4604      	mov	r4, r0
   d47a8:	2800      	cmp	r0, #0
   d47aa:	d1ec      	bne.n	d4786 <_Z9checkRFIDv+0x52>
   d47ac:	491b      	ldr	r1, [pc, #108]	; (d481c <_Z9checkRFIDv+0xe8>)
   d47ae:	4811      	ldr	r0, [pc, #68]	; (d47f4 <_Z9checkRFIDv+0xc0>)
   d47b0:	f003 f805 	bl	d77be <_ZNK6String6equalsEPKc>
  else if (tag == "850719716550") //change this to valid UIDs
   d47b4:	b1b8      	cbz	r0, d47e6 <_Z9checkRFIDv+0xb2>
    Serial.println("Master Key Authorized");
   d47b6:	f003 fdf9 	bl	d83ac <_Z16_fetch_usbserialv>
   d47ba:	4919      	ldr	r1, [pc, #100]	; (d4820 <_Z9checkRFIDv+0xec>)
   d47bc:	f003 f88f 	bl	d78de <_ZN5Print7printlnEPKc>
    armed = false;
   d47c0:	4b13      	ldr	r3, [pc, #76]	; (d4810 <_Z9checkRFIDv+0xdc>)
    disableRelay("off");
   d47c2:	4918      	ldr	r1, [pc, #96]	; (d4824 <_Z9checkRFIDv+0xf0>)
    armed = false;
   d47c4:	701c      	strb	r4, [r3, #0]
    armedInt = 0;
   d47c6:	4b13      	ldr	r3, [pc, #76]	; (d4814 <_Z9checkRFIDv+0xe0>)
   d47c8:	601c      	str	r4, [r3, #0]
    stolen = false;
   d47ca:	4b17      	ldr	r3, [pc, #92]	; (d4828 <_Z9checkRFIDv+0xf4>)
    disableRelay("off");
   d47cc:	4668      	mov	r0, sp
    stolen = false;
   d47ce:	701c      	strb	r4, [r3, #0]
    disableRelay("off");
   d47d0:	f002 ff3d 	bl	d764e <_ZN6StringC1EPKc>
   d47d4:	4668      	mov	r0, sp
   d47d6:	f7ff fd1d 	bl	d4214 <_Z12disableRelay6String>
   d47da:	4668      	mov	r0, sp
   d47dc:	f002 feec 	bl	d75b8 <_ZN6StringD1Ev>
    disabled = 0;
   d47e0:	4b12      	ldr	r3, [pc, #72]	; (d482c <_Z9checkRFIDv+0xf8>)
   d47e2:	601c      	str	r4, [r3, #0]
   d47e4:	e7d9      	b.n	d479a <_Z9checkRFIDv+0x66>
    Serial.println(" Access denied");
   d47e6:	f003 fde1 	bl	d83ac <_Z16_fetch_usbserialv>
   d47ea:	4911      	ldr	r1, [pc, #68]	; (d4830 <_Z9checkRFIDv+0xfc>)
   d47ec:	f003 f877 	bl	d78de <_ZN5Print7printlnEPKc>
}
   d47f0:	e7d3      	b.n	d479a <_Z9checkRFIDv+0x66>
   d47f2:	bf00      	nop
   d47f4:	2003e6f4 	.word	0x2003e6f4
   d47f8:	000d9a6b 	.word	0x000d9a6b
   d47fc:	2003e534 	.word	0x2003e534
   d4800:	000d9a79 	.word	0x000d9a79
   d4804:	000d9a80 	.word	0x000d9a80
   d4808:	000d9a86 	.word	0x000d9a86
   d480c:	000d9a94 	.word	0x000d9a94
   d4810:	2003e0b4 	.word	0x2003e0b4
   d4814:	2003e0b8 	.word	0x2003e0b8
   d4818:	000d9aa6 	.word	0x000d9aa6
   d481c:	000d9ab3 	.word	0x000d9ab3
   d4820:	000d9ac0 	.word	0x000d9ac0
   d4824:	000d9885 	.word	0x000d9885
   d4828:	2003e6f0 	.word	0x2003e6f0
   d482c:	2003e158 	.word	0x2003e158
   d4830:	000d9ad6 	.word	0x000d9ad6

000d4834 <loop>:
{
   d4834:	e92d 43f0 	stmdb	sp!, {r4, r5, r6, r7, r8, r9, lr}
  digitalWrite(D3, HIGH);
   d4838:	2101      	movs	r1, #1
{
   d483a:	b08b      	sub	sp, #44	; 0x2c
  digitalWrite(D3, HIGH);
   d483c:	2003      	movs	r0, #3
   d483e:	f004 f872 	bl	d8926 <digitalWrite>
  Serial.println("here");
   d4842:	f003 fdb3 	bl	d83ac <_Z16_fetch_usbserialv>
   d4846:	4988      	ldr	r1, [pc, #544]	; (d4a68 <loop+0x234>)
  while ((currentAwakeTime - previousAwakeTime < awakeDuration) || on)
   d4848:	f8df 925c 	ldr.w	r9, [pc, #604]	; d4aa8 <loop+0x274>
   d484c:	4e87      	ldr	r6, [pc, #540]	; (d4a6c <loop+0x238>)
  Serial.println("here");
   d484e:	f003 f846 	bl	d78de <_ZN5Print7printlnEPKc>
   d4852:	464f      	mov	r7, r9
  while ((currentAwakeTime - previousAwakeTime < awakeDuration) || on)
   d4854:	6832      	ldr	r2, [r6, #0]
   d4856:	f8d9 3000 	ldr.w	r3, [r9]
   d485a:	4d85      	ldr	r5, [pc, #532]	; (d4a70 <loop+0x23c>)
   d485c:	4c85      	ldr	r4, [pc, #532]	; (d4a74 <loop+0x240>)
   d485e:	f8df 824c 	ldr.w	r8, [pc, #588]	; d4aac <loop+0x278>
   d4862:	1a9b      	subs	r3, r3, r2
   d4864:	682a      	ldr	r2, [r5, #0]
   d4866:	4293      	cmp	r3, r2
   d4868:	db02      	blt.n	d4870 <loop+0x3c>
   d486a:	7823      	ldrb	r3, [r4, #0]
   d486c:	2b00      	cmp	r3, #0
   d486e:	d05d      	beq.n	d492c <loop+0xf8>
    getGPSData();
   d4870:	f7ff fd9a 	bl	d43a8 <_Z10getGPSDatav>
   d4874:	f002 fa4c 	bl	d6d10 <HAL_Timer_Get_Milli_Seconds>
    currentAwakeTime = millis();
   d4878:	6038      	str	r0, [r7, #0]
    if (digitalRead(D2) == HIGH)
   d487a:	2002      	movs	r0, #2
   d487c:	f004 f86c 	bl	d8958 <digitalRead>
   d4880:	2801      	cmp	r0, #1
   d4882:	4d7d      	ldr	r5, [pc, #500]	; (d4a78 <loop+0x244>)
   d4884:	d10f      	bne.n	d48a6 <loop+0x72>
      on = true;
   d4886:	7020      	strb	r0, [r4, #0]
      Serial.println("Vehicle On");
   d4888:	f003 fd90 	bl	d83ac <_Z16_fetch_usbserialv>
   d488c:	497b      	ldr	r1, [pc, #492]	; (d4a7c <loop+0x248>)
   d488e:	f003 f826 	bl	d78de <_ZN5Print7printlnEPKc>
    if (!on && !armed)
   d4892:	7823      	ldrb	r3, [r4, #0]
   d4894:	b9cb      	cbnz	r3, d48ca <loop+0x96>
   d4896:	782b      	ldrb	r3, [r5, #0]
   d4898:	b16b      	cbz	r3, d48b6 <loop+0x82>
    if (armed && !stolen)
   d489a:	f898 3000 	ldrb.w	r3, [r8]
   d489e:	b9bb      	cbnz	r3, d48d0 <loop+0x9c>
      sentry();
   d48a0:	f7ff fe9c 	bl	d45dc <_Z6sentryv>
   d48a4:	e014      	b.n	d48d0 <loop+0x9c>
      Serial.println("Vehicle Off ##################################");
   d48a6:	f003 fd81 	bl	d83ac <_Z16_fetch_usbserialv>
   d48aa:	4975      	ldr	r1, [pc, #468]	; (d4a80 <loop+0x24c>)
   d48ac:	f003 f817 	bl	d78de <_ZN5Print7printlnEPKc>
      on = false;
   d48b0:	2300      	movs	r3, #0
   d48b2:	7023      	strb	r3, [r4, #0]
    if (!on && !armed)
   d48b4:	e7ef      	b.n	d4896 <loop+0x62>
      arm("arm");
   d48b6:	4973      	ldr	r1, [pc, #460]	; (d4a84 <loop+0x250>)
   d48b8:	a804      	add	r0, sp, #16
   d48ba:	f002 fec8 	bl	d764e <_ZN6StringC1EPKc>
   d48be:	a804      	add	r0, sp, #16
   d48c0:	f7ff fcc2 	bl	d4248 <_Z3arm6String>
   d48c4:	a804      	add	r0, sp, #16
   d48c6:	f002 fe77 	bl	d75b8 <_ZN6StringD1Ev>
    if (armed && !stolen)
   d48ca:	782b      	ldrb	r3, [r5, #0]
   d48cc:	2b00      	cmp	r3, #0
   d48ce:	d1e4      	bne.n	d489a <loop+0x66>
    if (on && armed)
   d48d0:	7823      	ldrb	r3, [r4, #0]
   d48d2:	b12b      	cbz	r3, d48e0 <loop+0xac>
   d48d4:	782b      	ldrb	r3, [r5, #0]
   d48d6:	b1cb      	cbz	r3, d490c <loop+0xd8>
      checkRFID();
   d48d8:	f7ff ff2c 	bl	d4734 <_Z9checkRFIDv>
    if (on && !armed)
   d48dc:	7823      	ldrb	r3, [r4, #0]
   d48de:	b993      	cbnz	r3, d4906 <loop+0xd2>
    if (stolen)
   d48e0:	f898 3000 	ldrb.w	r3, [r8]
   d48e4:	b12b      	cbz	r3, d48f2 <loop+0xbe>
      stolenAlert(sendAlert);
   d48e6:	4b68      	ldr	r3, [pc, #416]	; (d4a88 <loop+0x254>)
   d48e8:	7818      	ldrb	r0, [r3, #0]
   d48ea:	f7ff fed5 	bl	d4698 <_Z11stolenAlertb>
      checkRFID();
   d48ee:	f7ff ff21 	bl	d4734 <_Z9checkRFIDv>
    if (disabled == 1)
   d48f2:	4b66      	ldr	r3, [pc, #408]	; (d4a8c <loop+0x258>)
   d48f4:	681b      	ldr	r3, [r3, #0]
   d48f6:	2b01      	cmp	r3, #1
   d48f8:	d1ac      	bne.n	d4854 <loop+0x20>
      Serial.println("Vehicle disabled");
   d48fa:	f003 fd57 	bl	d83ac <_Z16_fetch_usbserialv>
   d48fe:	4964      	ldr	r1, [pc, #400]	; (d4a90 <loop+0x25c>)
   d4900:	f002 ffed 	bl	d78de <_ZN5Print7printlnEPKc>
   d4904:	e7a6      	b.n	d4854 <loop+0x20>
    if (on && !armed)
   d4906:	782b      	ldrb	r3, [r5, #0]
   d4908:	2b00      	cmp	r3, #0
   d490a:	d1e9      	bne.n	d48e0 <loop+0xac>
      Serial.println("Ready to start");
   d490c:	f003 fd4e 	bl	d83ac <_Z16_fetch_usbserialv>
   d4910:	4960      	ldr	r1, [pc, #384]	; (d4a94 <loop+0x260>)
   d4912:	f002 ffe4 	bl	d78de <_ZN5Print7printlnEPKc>
      enableRelay("on");
   d4916:	4960      	ldr	r1, [pc, #384]	; (d4a98 <loop+0x264>)
   d4918:	a804      	add	r0, sp, #16
   d491a:	f002 fe98 	bl	d764e <_ZN6StringC1EPKc>
   d491e:	a804      	add	r0, sp, #16
   d4920:	f7ff fc5e 	bl	d41e0 <_Z11enableRelay6String>
   d4924:	a804      	add	r0, sp, #16
   d4926:	f002 fe47 	bl	d75b8 <_ZN6StringD1Ev>
   d492a:	e7d9      	b.n	d48e0 <loop+0xac>
  if (!on && !stolen)
   d492c:	f898 4000 	ldrb.w	r4, [r8]
   d4930:	2c00      	cmp	r4, #0
   d4932:	f040 8095 	bne.w	d4a60 <loop+0x22c>
    arm("arm");
   d4936:	4953      	ldr	r1, [pc, #332]	; (d4a84 <loop+0x250>)
   d4938:	a804      	add	r0, sp, #16
   d493a:	f002 fe88 	bl	d764e <_ZN6StringC1EPKc>
   d493e:	a804      	add	r0, sp, #16
   d4940:	f7ff fc82 	bl	d4248 <_Z3arm6String>
   d4944:	a804      	add	r0, sp, #16
   d4946:	f002 fe37 	bl	d75b8 <_ZN6StringD1Ev>
    digitalWrite(D4, LOW);
   d494a:	4621      	mov	r1, r4
   d494c:	2004      	movs	r0, #4
   d494e:	f003 ffea 	bl	d8926 <digitalWrite>
              valid_(true) {
   d4952:	2101      	movs	r1, #1
        config_.size = sizeof(hal_sleep_config_t);
   d4954:	4b51      	ldr	r3, [pc, #324]	; (d4a9c <loop+0x268>)
              valid_(true) {
   d4956:	f8ad 4019 	strh.w	r4, [sp, #25]
        : config_(config) {
   d495a:	a805      	add	r0, sp, #20
        config_.wakeup_sources = nullptr;
   d495c:	e9cd 4407 	strd	r4, r4, [sp, #28]
        : config_(config) {
   d4960:	9004      	str	r0, [sp, #16]
              valid_(true) {
   d4962:	f88d 401b 	strb.w	r4, [sp, #27]
   d4966:	f88d 1024 	strb.w	r1, [sp, #36]	; 0x24
        config_.size = sizeof(hal_sleep_config_t);
   d496a:	9305      	str	r3, [sp, #20]
            config_.mode = static_cast<hal_sleep_mode_t>(mode);
   d496c:	f88d 1018 	strb.w	r1, [sp, #24]
            auto wakeup = wakeupSourceFeatured(HAL_WAKEUP_SOURCE_TYPE_GPIO);
   d4970:	f7ff fbf6 	bl	d4160 <_ZNK8particle30SystemSleepConfigurationHelper20wakeupSourceFeaturedE24hal_wakeup_source_type_t.isra.0>
            while (wakeup) {
   d4974:	2800      	cmp	r0, #0
   d4976:	d041      	beq.n	d49fc <loop+0x1c8>
                if (gpioWakeup->pin == pin) {
   d4978:	8983      	ldrh	r3, [r0, #12]
   d497a:	2b05      	cmp	r3, #5
   d497c:	d138      	bne.n	d49f0 <loop+0x1bc>
                    gpioWakeup->mode = mode;
   d497e:	2301      	movs	r3, #1
   d4980:	7383      	strb	r3, [r0, #14]
        if (valid_) {
   d4982:	f89d 3024 	ldrb.w	r3, [sp, #36]	; 0x24
   d4986:	b15b      	cbz	r3, d49a0 <loop+0x16c>
      .duration(sleepDuration)
   d4988:	4b45      	ldr	r3, [pc, #276]	; (d4aa0 <loop+0x26c>)
            auto wakeup = wakeupSourceFeatured(HAL_WAKEUP_SOURCE_TYPE_RTC);
   d498a:	9804      	ldr	r0, [sp, #16]
   d498c:	f8d3 9000 	ldr.w	r9, [r3]
   d4990:	2104      	movs	r1, #4
   d4992:	f7ff fbe5 	bl	d4160 <_ZNK8particle30SystemSleepConfigurationHelper20wakeupSourceFeaturedE24hal_wakeup_source_type_t.isra.0>
            if (wakeup) {
   d4996:	4680      	mov	r8, r0
   d4998:	2800      	cmp	r0, #0
   d499a:	d044      	beq.n	d4a26 <loop+0x1f2>
                reinterpret_cast<hal_wakeup_source_rtc_t*>(wakeup)->ms = ms;
   d499c:	f8c0 900c 	str.w	r9, [r0, #12]
        : value_(0) {
}

template<typename T>
inline particle::EnumFlags<T, typename std::enable_if_t<std::is_enum<T>::value>>::EnumFlags(const T& value) {
    value_ = static_cast<ValueType>(value);
   d49a0:	2300      	movs	r3, #0
      .network(NETWORK_INTERFACE_CELLULAR);
   d49a2:	aa01      	add	r2, sp, #4
   d49a4:	2104      	movs	r1, #4
   d49a6:	a804      	add	r0, sp, #16
   d49a8:	f8ad 3004 	strh.w	r3, [sp, #4]
   d49ac:	f7ff fbe0 	bl	d4170 <_ZN8particle24SystemSleepConfiguration7networkEmNS_9EnumFlagsINS_22SystemSleepNetworkFlagEvEE>
    SystemSleepResult sleepResult = System.sleep(config);
   d49b0:	a904      	add	r1, sp, #16
   d49b2:	a801      	add	r0, sp, #4
   d49b4:	f002 fcce 	bl	d7354 <_ZN11SystemClass5sleepERKN8particle24SystemSleepConfigurationE>
    if (sleepResult.wakeupReason() == SystemSleepWakeupReason::BY_NETWORK) {
   d49b8:	9b01      	ldr	r3, [sp, #4]
    hal_wakeup_source_base_t** halWakeupSource() {
        return &wakeupSource_;
    }

    SystemSleepWakeupReason wakeupReason() const {
        if (wakeupSource_) {
   d49ba:	2b00      	cmp	r3, #0
   d49bc:	d046      	beq.n	d4a4c <loop+0x218>
   d49be:	889b      	ldrh	r3, [r3, #4]
   d49c0:	2b0e      	cmp	r3, #14
   d49c2:	d143      	bne.n	d4a4c <loop+0x218>
      awakeDuration = 30000;
   d49c4:	f247 5330 	movw	r3, #30000	; 0x7530
   d49c8:	602b      	str	r3, [r5, #0]
   d49ca:	f002 f9a1 	bl	d6d10 <HAL_Timer_Get_Milli_Seconds>
    previousAwakeTime = millis();
   d49ce:	6030      	str	r0, [r6, #0]
   d49d0:	f002 f99e 	bl	d6d10 <HAL_Timer_Get_Milli_Seconds>
    currentAwakeTime = millis();
   d49d4:	6038      	str	r0, [r7, #0]
        return toSleepResult();
    }

private:
    void freeWakeupSourceMemory() {
        if (wakeupSource_) {
   d49d6:	9801      	ldr	r0, [sp, #4]
   d49d8:	b108      	cbz	r0, d49de <loop+0x1aa>
            free(wakeupSource_);
   d49da:	f002 fb77 	bl	d70cc <free>
        auto wakeupSource = config_.wakeup_sources;
   d49de:	9808      	ldr	r0, [sp, #32]
        while (wakeupSource) {
   d49e0:	2800      	cmp	r0, #0
   d49e2:	d03d      	beq.n	d4a60 <loop+0x22c>
            auto next = wakeupSource->next;
   d49e4:	6884      	ldr	r4, [r0, #8]
            delete wakeupSource;
   d49e6:	210c      	movs	r1, #12
   d49e8:	f004 f84f 	bl	d8a8a <_ZdlPvj>
            wakeupSource = next;
   d49ec:	4620      	mov	r0, r4
        while (wakeupSource) {
   d49ee:	e7f7      	b.n	d49e0 <loop+0x1ac>
                wakeup = wakeupSourceFeatured(HAL_WAKEUP_SOURCE_TYPE_GPIO, wakeup->next);
   d49f0:	6880      	ldr	r0, [r0, #8]
        if (!start) {
   d49f2:	b118      	cbz	r0, d49fc <loop+0x1c8>
            if (start->type == type) {
   d49f4:	8883      	ldrh	r3, [r0, #4]
   d49f6:	2b01      	cmp	r3, #1
   d49f8:	d1fa      	bne.n	d49f0 <loop+0x1bc>
   d49fa:	e7bb      	b.n	d4974 <loop+0x140>
            auto wakeupSource = new(std::nothrow) hal_wakeup_source_gpio_t();
   d49fc:	4929      	ldr	r1, [pc, #164]	; (d4aa4 <loop+0x270>)
   d49fe:	2010      	movs	r0, #16
   d4a00:	f004 f845 	bl	d8a8e <_ZnwjRKSt9nothrow_t>
   d4a04:	4604      	mov	r4, r0
   d4a06:	b340      	cbz	r0, d4a5a <loop+0x226>
   d4a08:	2210      	movs	r2, #16
   d4a0a:	2100      	movs	r1, #0
   d4a0c:	f004 feb0 	bl	d9770 <memset>
            wakeupSource->base.next = config_.wakeup_sources;
   d4a10:	9a08      	ldr	r2, [sp, #32]
            wakeupSource->base.size = sizeof(hal_wakeup_source_gpio_t);
   d4a12:	4b22      	ldr	r3, [pc, #136]	; (d4a9c <loop+0x268>)
   d4a14:	6023      	str	r3, [r4, #0]
            wakeupSource->base.next = config_.wakeup_sources;
   d4a16:	60a2      	str	r2, [r4, #8]
            wakeupSource->base.type = HAL_WAKEUP_SOURCE_TYPE_GPIO;
   d4a18:	2301      	movs	r3, #1
            wakeupSource->pin = pin;
   d4a1a:	2205      	movs	r2, #5
            wakeupSource->base.type = HAL_WAKEUP_SOURCE_TYPE_GPIO;
   d4a1c:	80a3      	strh	r3, [r4, #4]
            wakeupSource->pin = pin;
   d4a1e:	81a2      	strh	r2, [r4, #12]
            wakeupSource->mode = mode;
   d4a20:	73a3      	strb	r3, [r4, #14]
            config_.wakeup_sources = reinterpret_cast<hal_wakeup_source_base_t*>(wakeupSource);
   d4a22:	9408      	str	r4, [sp, #32]
   d4a24:	e7ad      	b.n	d4982 <loop+0x14e>
            auto wakeupSource = new(std::nothrow) hal_wakeup_source_rtc_t();
   d4a26:	491f      	ldr	r1, [pc, #124]	; (d4aa4 <loop+0x270>)
   d4a28:	2010      	movs	r0, #16
   d4a2a:	f004 f830 	bl	d8a8e <_ZnwjRKSt9nothrow_t>
   d4a2e:	4604      	mov	r4, r0
   d4a30:	b198      	cbz	r0, d4a5a <loop+0x226>
   d4a32:	2210      	movs	r2, #16
   d4a34:	4641      	mov	r1, r8
   d4a36:	f004 fe9b 	bl	d9770 <memset>
            wakeupSource->base.size = sizeof(hal_wakeup_source_rtc_t);
   d4a3a:	4b18      	ldr	r3, [pc, #96]	; (d4a9c <loop+0x268>)
   d4a3c:	6023      	str	r3, [r4, #0]
            wakeupSource->base.type = HAL_WAKEUP_SOURCE_TYPE_RTC;
   d4a3e:	2304      	movs	r3, #4
   d4a40:	80a3      	strh	r3, [r4, #4]
            wakeupSource->base.next = config_.wakeup_sources;
   d4a42:	9b08      	ldr	r3, [sp, #32]
            config_.wakeup_sources = reinterpret_cast<hal_wakeup_source_base_t*>(wakeupSource);
   d4a44:	9408      	str	r4, [sp, #32]
            wakeupSource->ms = ms;
   d4a46:	e9c4 3902 	strd	r3, r9, [r4, #8]
            config_.wakeup_sources = reinterpret_cast<hal_wakeup_source_base_t*>(wakeupSource);
   d4a4a:	e7a9      	b.n	d49a0 <loop+0x16c>
      awakeDuration = 10000;
   d4a4c:	f242 7310 	movw	r3, #10000	; 0x2710
   d4a50:	602b      	str	r3, [r5, #0]
      sleepDuration = 60;
   d4a52:	4b13      	ldr	r3, [pc, #76]	; (d4aa0 <loop+0x26c>)
   d4a54:	223c      	movs	r2, #60	; 0x3c
   d4a56:	601a      	str	r2, [r3, #0]
   d4a58:	e7b7      	b.n	d49ca <loop+0x196>
                valid_ = false;
   d4a5a:	f88d 4024 	strb.w	r4, [sp, #36]	; 0x24
        if (valid_) {
   d4a5e:	e79f      	b.n	d49a0 <loop+0x16c>
}
   d4a60:	b00b      	add	sp, #44	; 0x2c
   d4a62:	e8bd 83f0 	ldmia.w	sp!, {r4, r5, r6, r7, r8, r9, pc}
   d4a66:	bf00      	nop
   d4a68:	000d9ae5 	.word	0x000d9ae5
   d4a6c:	2003e6e4 	.word	0x2003e6e4
   d4a70:	2003e0bc 	.word	0x2003e0bc
   d4a74:	2003e6e0 	.word	0x2003e6e0
   d4a78:	2003e0b4 	.word	0x2003e0b4
   d4a7c:	000d9aea 	.word	0x000d9aea
   d4a80:	000d9af5 	.word	0x000d9af5
   d4a84:	000d988c 	.word	0x000d988c
   d4a88:	2003e0c4 	.word	0x2003e0c4
   d4a8c:	2003e158 	.word	0x2003e158
   d4a90:	000d9b33 	.word	0x000d9b33
   d4a94:	000d9b24 	.word	0x000d9b24
   d4a98:	000da481 	.word	0x000da481
   d4a9c:	00030010 	.word	0x00030010
   d4aa0:	2003e0c8 	.word	0x2003e0c8
   d4aa4:	000da6cc 	.word	0x000da6cc
   d4aa8:	2003e154 	.word	0x2003e154
   d4aac:	2003e6f0 	.word	0x2003e6f0

000d4ab0 <_Z17cloudRegistrationv>:

void cloudRegistration()
{
   d4ab0:	e92d 47f0 	stmdb	sp!, {r4, r5, r6, r7, r8, r9, sl, lr}
        return _variable(varKey, &var, STRING);
   d4ab4:	4924      	ldr	r1, [pc, #144]	; (d4b48 <_Z17cloudRegistrationv+0x98>)
   d4ab6:	4825      	ldr	r0, [pc, #148]	; (d4b4c <_Z17cloudRegistrationv+0x9c>)
   d4ab8:	f7ff fb40 	bl	d413c <_ZN10CloudClass9_variableIcEEbPKT_PK6StringRK17CloudVariableTypeIPKcvE.isra.0>
   d4abc:	4924      	ldr	r1, [pc, #144]	; (d4b50 <_Z17cloudRegistrationv+0xa0>)
   d4abe:	4681      	mov	r9, r0
   d4ac0:	4824      	ldr	r0, [pc, #144]	; (d4b54 <_Z17cloudRegistrationv+0xa4>)
   d4ac2:	f7ff fb3b 	bl	d413c <_ZN10CloudClass9_variableIcEEbPKT_PK6StringRK17CloudVariableTypeIPKcvE.isra.0>
        return spark_variable(varKey, (const void*)userVar, T::TYPE_ID, NULL);
   d4ac6:	4924      	ldr	r1, [pc, #144]	; (d4b58 <_Z17cloudRegistrationv+0xa8>)
   d4ac8:	2300      	movs	r3, #0
   d4aca:	2202      	movs	r2, #2
        return _variable(varKey, &var, STRING);
   d4acc:	4680      	mov	r8, r0
        return spark_variable(varKey, (const void*)userVar, T::TYPE_ID, NULL);
   d4ace:	4823      	ldr	r0, [pc, #140]	; (d4b5c <_Z17cloudRegistrationv+0xac>)
   d4ad0:	f002 facc 	bl	d706c <spark_variable>
   d4ad4:	4922      	ldr	r1, [pc, #136]	; (d4b60 <_Z17cloudRegistrationv+0xb0>)
   d4ad6:	2300      	movs	r3, #0
   d4ad8:	2202      	movs	r2, #2
   d4ada:	4607      	mov	r7, r0
   d4adc:	4821      	ldr	r0, [pc, #132]	; (d4b64 <_Z17cloudRegistrationv+0xb4>)
   d4ade:	f002 fac5 	bl	d706c <spark_variable>
   d4ae2:	2300      	movs	r3, #0
   d4ae4:	4920      	ldr	r1, [pc, #128]	; (d4b68 <_Z17cloudRegistrationv+0xb8>)
   d4ae6:	2202      	movs	r2, #2
   d4ae8:	4606      	mov	r6, r0
   d4aea:	4820      	ldr	r0, [pc, #128]	; (d4b6c <_Z17cloudRegistrationv+0xbc>)
   d4aec:	f002 fabe 	bl	d706c <spark_variable>
        return register_function(call_raw_user_function, (void*)func, funcKey);
   d4af0:	4a1f      	ldr	r2, [pc, #124]	; (d4b70 <_Z17cloudRegistrationv+0xc0>)
   d4af2:	4920      	ldr	r1, [pc, #128]	; (d4b74 <_Z17cloudRegistrationv+0xc4>)
        return spark_variable(varKey, (const void*)userVar, T::TYPE_ID, NULL);
   d4af4:	4682      	mov	sl, r0
        return register_function(call_raw_user_function, (void*)func, funcKey);
   d4af6:	4820      	ldr	r0, [pc, #128]	; (d4b78 <_Z17cloudRegistrationv+0xc8>)
   d4af8:	f003 f921 	bl	d7d3e <_ZN10CloudClass17register_functionEPFiPvPKcS0_ES0_S2_>
   d4afc:	4a1f      	ldr	r2, [pc, #124]	; (d4b7c <_Z17cloudRegistrationv+0xcc>)
   d4afe:	4920      	ldr	r1, [pc, #128]	; (d4b80 <_Z17cloudRegistrationv+0xd0>)
   d4b00:	4605      	mov	r5, r0
   d4b02:	481d      	ldr	r0, [pc, #116]	; (d4b78 <_Z17cloudRegistrationv+0xc8>)
   d4b04:	f003 f91b 	bl	d7d3e <_ZN10CloudClass17register_functionEPFiPvPKcS0_ES0_S2_>
   d4b08:	4a1e      	ldr	r2, [pc, #120]	; (d4b84 <_Z17cloudRegistrationv+0xd4>)
   d4b0a:	491f      	ldr	r1, [pc, #124]	; (d4b88 <_Z17cloudRegistrationv+0xd8>)
   d4b0c:	4604      	mov	r4, r0
   d4b0e:	481a      	ldr	r0, [pc, #104]	; (d4b78 <_Z17cloudRegistrationv+0xc8>)
   d4b10:	f003 f915 	bl	d7d3e <_ZN10CloudClass17register_functionEPFiPvPKcS0_ES0_S2_>
  bool isDisabledVarSuccess = Particle.variable("disabled", disabled);
  bool armedVarSuccess = Particle.variable("armed", armedInt);
  bool disableFunSuccess = Particle.function("disable", disable);
  bool armFunSuccess = Particle.function("arm", arm);
  bool alertFunSuccess = Particle.function("silence", silence);
  if (latVarSuccess == false || lonVarSuccess == false || alertVarSuccess == false || isDisabledVarSuccess == false ||
   d4b14:	f1b9 0f00 	cmp.w	r9, #0
   d4b18:	d00a      	beq.n	d4b30 <_Z17cloudRegistrationv+0x80>
   d4b1a:	f1b8 0f00 	cmp.w	r8, #0
   d4b1e:	d007      	beq.n	d4b30 <_Z17cloudRegistrationv+0x80>
   d4b20:	b137      	cbz	r7, d4b30 <_Z17cloudRegistrationv+0x80>
   d4b22:	b12e      	cbz	r6, d4b30 <_Z17cloudRegistrationv+0x80>
   d4b24:	f1ba 0f00 	cmp.w	sl, #0
   d4b28:	d002      	beq.n	d4b30 <_Z17cloudRegistrationv+0x80>
      armedVarSuccess == false || disableFunSuccess == false || armFunSuccess == false || alertFunSuccess == false)
   d4b2a:	b10d      	cbz	r5, d4b30 <_Z17cloudRegistrationv+0x80>
   d4b2c:	b104      	cbz	r4, d4b30 <_Z17cloudRegistrationv+0x80>
   d4b2e:	b930      	cbnz	r0, d4b3e <_Z17cloudRegistrationv+0x8e>
  {
    Serial.println("Failed registration.");
   d4b30:	f003 fc3c 	bl	d83ac <_Z16_fetch_usbserialv>
   d4b34:	4915      	ldr	r1, [pc, #84]	; (d4b8c <_Z17cloudRegistrationv+0xdc>)
  }
  else
    Serial.println("Registration Successful.");
}
   d4b36:	e8bd 47f0 	ldmia.w	sp!, {r4, r5, r6, r7, r8, r9, sl, lr}
    Serial.println("Registration Successful.");
   d4b3a:	f002 bed0 	b.w	d78de <_ZN5Print7printlnEPKc>
   d4b3e:	f003 fc35 	bl	d83ac <_Z16_fetch_usbserialv>
   d4b42:	4913      	ldr	r1, [pc, #76]	; (d4b90 <_Z17cloudRegistrationv+0xe0>)
   d4b44:	e7f7      	b.n	d4b36 <_Z17cloudRegistrationv+0x86>
   d4b46:	bf00      	nop
   d4b48:	2003e160 	.word	0x2003e160
   d4b4c:	000d9b44 	.word	0x000d9b44
   d4b50:	2003e174 	.word	0x2003e174
   d4b54:	000d9b4d 	.word	0x000d9b4d
   d4b58:	2003e0b0 	.word	0x2003e0b0
   d4b5c:	000d9b57 	.word	0x000d9b57
   d4b60:	2003e158 	.word	0x2003e158
   d4b64:	000d9b3b 	.word	0x000d9b3b
   d4b68:	2003e0b8 	.word	0x2003e0b8
   d4b6c:	000d9893 	.word	0x000d9893
   d4b70:	000d98b1 	.word	0x000d98b1
   d4b74:	000d42f1 	.word	0x000d42f1
   d4b78:	000d7d13 	.word	0x000d7d13
   d4b7c:	000d988c 	.word	0x000d988c
   d4b80:	000d4249 	.word	0x000d4249
   d4b84:	000d9b61 	.word	0x000d9b61
   d4b88:	000d40dd 	.word	0x000d40dd
   d4b8c:	000d9b69 	.word	0x000d9b69
   d4b90:	000d9b7e 	.word	0x000d9b7e

000d4b94 <setup>:
void setup() {
   d4b94:	b507      	push	{r0, r1, r2, lr}
  cloudRegistration();
   d4b96:	f7ff ff8b 	bl	d4ab0 <_Z17cloudRegistrationv>
  Serial.begin(115200);
   d4b9a:	f003 fc07 	bl	d83ac <_Z16_fetch_usbserialv>
   d4b9e:	f44f 31e1 	mov.w	r1, #115200	; 0x1c200
   d4ba2:	f003 fbf7 	bl	d8394 <_ZN9USBSerial5beginEl>
  Wire.begin();
   d4ba6:	f003 ff1b 	bl	d89e0 <_Z19__fetch_global_Wirev>
   d4baa:	f003 fd5f 	bl	d866c <_ZN7TwoWire5beginEv>
  PMIC().disableCharging();
   d4bae:	2100      	movs	r1, #0
   d4bb0:	a801      	add	r0, sp, #4
   d4bb2:	f002 faba 	bl	d712a <_ZN4PMICC1Eb>
   d4bb6:	a801      	add	r0, sp, #4
   d4bb8:	f002 fb33 	bl	d7222 <_ZN4PMIC15disableChargingEv>
   d4bbc:	a801      	add	r0, sp, #4
   d4bbe:	f002 fac3 	bl	d7148 <_ZN4PMICD1Ev>
  pinMode(D5, INPUT);
   d4bc2:	2100      	movs	r1, #0
   d4bc4:	2005      	movs	r0, #5
   d4bc6:	f003 fe9d 	bl	d8904 <pinMode>
  pinMode(D4, OUTPUT);
   d4bca:	2101      	movs	r1, #1
   d4bcc:	2004      	movs	r0, #4
   d4bce:	f003 fe99 	bl	d8904 <pinMode>
  digitalWrite(D4, HIGH);
   d4bd2:	2101      	movs	r1, #1
   d4bd4:	2004      	movs	r0, #4
   d4bd6:	f003 fea6 	bl	d8926 <digitalWrite>
  pinMode(D3, OUTPUT);
   d4bda:	2101      	movs	r1, #1
   d4bdc:	2003      	movs	r0, #3
   d4bde:	f003 fe91 	bl	d8904 <pinMode>
  digitalWrite(D3, LOW);
   d4be2:	2100      	movs	r1, #0
   d4be4:	2003      	movs	r0, #3
   d4be6:	f003 fe9e 	bl	d8926 <digitalWrite>
  pinMode(D2, OUTPUT);
   d4bea:	2101      	movs	r1, #1
   d4bec:	2002      	movs	r0, #2
   d4bee:	f003 fe89 	bl	d8904 <pinMode>
  digitalWrite(D2, LOW);
   d4bf2:	2100      	movs	r1, #0
   d4bf4:	2002      	movs	r0, #2
   d4bf6:	f003 fe96 	bl	d8926 <digitalWrite>
  startRFID();
   d4bfa:	f7ff fc71 	bl	d44e0 <_Z9startRFIDv>
  startAccel();
   d4bfe:	f7ff fc8b 	bl	d4518 <_Z10startAccelv>
  startGPS();
   d4c02:	f7ff fca5 	bl	d4550 <_Z8startGPSv>
}
   d4c06:	b003      	add	sp, #12
   d4c08:	f85d fb04 	ldr.w	pc, [sp], #4

000d4c0c <_GLOBAL__sub_I_armed>:
  Serial.print("Longitude (deg): ");
  Serial.println(lonString);
  Serial.print("Speed: ");
  Serial.print(spd);
  Serial.println(" km/h");
}
   d4c0c:	b5f8      	push	{r3, r4, r5, r6, r7, lr}
        val_(val) {
   d4c0e:	4b1d      	ldr	r3, [pc, #116]	; (d4c84 <_GLOBAL__sub_I_armed+0x78>)
String latString = "";
   d4c10:	4d1d      	ldr	r5, [pc, #116]	; (d4c88 <_GLOBAL__sub_I_armed+0x7c>)
   d4c12:	4f1e      	ldr	r7, [pc, #120]	; (d4c8c <_GLOBAL__sub_I_armed+0x80>)
   d4c14:	4c1e      	ldr	r4, [pc, #120]	; (d4c90 <_GLOBAL__sub_I_armed+0x84>)
   d4c16:	2601      	movs	r6, #1
   d4c18:	701e      	strb	r6, [r3, #0]
   d4c1a:	4629      	mov	r1, r5
   d4c1c:	4638      	mov	r0, r7
   d4c1e:	f002 fd16 	bl	d764e <_ZN6StringC1EPKc>
   d4c22:	4638      	mov	r0, r7
String lonString = "";
   d4c24:	4f1b      	ldr	r7, [pc, #108]	; (d4c94 <_GLOBAL__sub_I_armed+0x88>)
String latString = "";
   d4c26:	4a1c      	ldr	r2, [pc, #112]	; (d4c98 <_GLOBAL__sub_I_armed+0x8c>)
   d4c28:	4621      	mov	r1, r4
   d4c2a:	f003 ff29 	bl	d8a80 <__aeabi_atexit>
String lonString = "";
   d4c2e:	4629      	mov	r1, r5
   d4c30:	4638      	mov	r0, r7
   d4c32:	f002 fd0c 	bl	d764e <_ZN6StringC1EPKc>
   d4c36:	4638      	mov	r0, r7
String tag;
   d4c38:	4f18      	ldr	r7, [pc, #96]	; (d4c9c <_GLOBAL__sub_I_armed+0x90>)
String lonString = "";
   d4c3a:	4a17      	ldr	r2, [pc, #92]	; (d4c98 <_GLOBAL__sub_I_armed+0x8c>)
   d4c3c:	4621      	mov	r1, r4
   d4c3e:	f003 ff1f 	bl	d8a80 <__aeabi_atexit>
String tag;
   d4c42:	4629      	mov	r1, r5
   d4c44:	4638      	mov	r0, r7
   d4c46:	f002 fd02 	bl	d764e <_ZN6StringC1EPKc>
   d4c4a:	4a13      	ldr	r2, [pc, #76]	; (d4c98 <_GLOBAL__sub_I_armed+0x8c>)
   d4c4c:	4621      	mov	r1, r4
   d4c4e:	4638      	mov	r0, r7
   d4c50:	f003 ff16 	bl	d8a80 <__aeabi_atexit>
SYSTEM_THREAD(ENABLED);
   d4c54:	2100      	movs	r1, #0
   d4c56:	4630      	mov	r0, r6
   d4c58:	f002 f982 	bl	d6f60 <system_thread_set_state>
Qwiic_Rfid myRfid(0xD7);
   d4c5c:	4c10      	ldr	r4, [pc, #64]	; (d4ca0 <_GLOBAL__sub_I_armed+0x94>)
SFE_UBLOX_GPS myGPS;
   d4c5e:	4811      	ldr	r0, [pc, #68]	; (d4ca4 <_GLOBAL__sub_I_armed+0x98>)
   d4c60:	f000 f82a 	bl	d4cb8 <_ZN13SFE_UBLOX_GPSC1Ev>
MMA8452Q accel;
   d4c64:	211d      	movs	r1, #29
   d4c66:	4810      	ldr	r0, [pc, #64]	; (d4ca8 <_GLOBAL__sub_I_armed+0x9c>)
   d4c68:	f001 fd7a 	bl	d6760 <_ZN8MMA8452QC1Eh>
Qwiic_Rfid myRfid(0xD7);
   d4c6c:	21d7      	movs	r1, #215	; 0xd7
   d4c6e:	4620      	mov	r0, r4
   d4c70:	f001 fe4c 	bl	d690c <_ZN10Qwiic_RfidC1Eh>
   d4c74:	4620      	mov	r0, r4
   d4c76:	4a08      	ldr	r2, [pc, #32]	; (d4c98 <_GLOBAL__sub_I_armed+0x8c>)
   d4c78:	490c      	ldr	r1, [pc, #48]	; (d4cac <_GLOBAL__sub_I_armed+0xa0>)
}
   d4c7a:	e8bd 40f8 	ldmia.w	sp!, {r3, r4, r5, r6, r7, lr}
Qwiic_Rfid myRfid(0xD7);
   d4c7e:	f003 beff 	b.w	d8a80 <__aeabi_atexit>
   d4c82:	bf00      	nop
   d4c84:	2003e138 	.word	0x2003e138
   d4c88:	000da1b7 	.word	0x000da1b7
   d4c8c:	2003e160 	.word	0x2003e160
   d4c90:	000d75b9 	.word	0x000d75b9
   d4c94:	2003e174 	.word	0x2003e174
   d4c98:	2003e134 	.word	0x2003e134
   d4c9c:	2003e6f4 	.word	0x2003e6f4
   d4ca0:	2003e534 	.word	0x2003e534
   d4ca4:	2003e188 	.word	0x2003e188
   d4ca8:	2003e13c 	.word	0x2003e13c
   d4cac:	000d40b7 	.word	0x000d40b7

000d4cb0 <_ZN7TwoWire5writeEi>:
  bool unlock();

  inline size_t write(unsigned long n) { return write((uint8_t)n); }
  inline size_t write(long n) { return write((uint8_t)n); }
  inline size_t write(unsigned int n) { return write((uint8_t)n); }
  inline size_t write(int n) { return write((uint8_t)n); }
   d4cb0:	6803      	ldr	r3, [r0, #0]
   d4cb2:	b2c9      	uxtb	r1, r1
   d4cb4:	689b      	ldr	r3, [r3, #8]
   d4cb6:	4718      	bx	r3

000d4cb8 <_ZN13SFE_UBLOX_GPSC1Ev>:
	SOFTWARE OR THE USE OR OTHER DEALINGS IN THE SOFTWARE.
*/

#include "SparkFun_Ublox_Arduino_Library.h"

SFE_UBLOX_GPS::SFE_UBLOX_GPS(void)
   d4cb8:	2142      	movs	r1, #66	; 0x42
   d4cba:	f8a0 1248 	strh.w	r1, [r0, #584]	; 0x248
   d4cbe:	f200 214b 	addw	r1, r0, #587	; 0x24b
   d4cc2:	f8c0 1358 	str.w	r1, [r0, #856]	; 0x358
   d4cc6:	491c      	ldr	r1, [pc, #112]	; (d4d38 <_ZN13SFE_UBLOX_GPSC1Ev+0x80>)
   d4cc8:	b510      	push	{r4, lr}
   d4cca:	2220      	movs	r2, #32
   d4ccc:	f200 244d 	addw	r4, r0, #589	; 0x24d
   d4cd0:	e9c0 41da 	strd	r4, r1, [r0, #872]	; 0x368
   d4cd4:	7002      	strb	r2, [r0, #0]
   d4cd6:	f200 344d 	addw	r4, r0, #845	; 0x34d
   d4cda:	2200      	movs	r2, #0
   d4cdc:	e9c0 12d7 	strd	r1, r2, [r0, #860]	; 0x35c
   d4ce0:	e9c0 41de 	strd	r4, r1, [r0, #888]	; 0x378
   d4ce4:	f44f 7100 	mov.w	r1, #512	; 0x200
   d4ce8:	f8a0 1380 	strh.w	r1, [r0, #896]	; 0x380
   d4cec:	2164      	movs	r1, #100	; 0x64
   d4cee:	f880 1382 	strb.w	r1, [r0, #898]	; 0x382
   d4cf2:	f04f 2101 	mov.w	r1, #16777472	; 0x1000100
   d4cf6:	e9c0 11e2 	strd	r1, r1, [r0, #904]	; 0x388
   d4cfa:	f8c0 1390 	str.w	r1, [r0, #912]	; 0x390
{
  // Constructor
  currentGeofenceParams.numFences = 0; // Zero the number of geofences currently in use
  moduleQueried.versionNumber = false;
   d4cfe:	f890 139c 	ldrb.w	r1, [r0, #924]	; 0x39c
SFE_UBLOX_GPS::SFE_UBLOX_GPS(void)
   d4d02:	f8a0 20f4 	strh.w	r2, [r0, #244]	; 0xf4
  moduleQueried.versionNumber = false;
   d4d06:	f362 01c3 	bfi	r1, r2, #3, #1
SFE_UBLOX_GPS::SFE_UBLOX_GPS(void)
   d4d0a:	e9c0 22d4 	strd	r2, r2, [r0, #848]	; 0x350
   d4d0e:	e9c0 22dc 	strd	r2, r2, [r0, #880]	; 0x370
   d4d12:	f8a0 2234 	strh.w	r2, [r0, #564]	; 0x234
   d4d16:	f880 2236 	strb.w	r2, [r0, #566]	; 0x236
   d4d1a:	f8c0 2240 	str.w	r2, [r0, #576]	; 0x240
   d4d1e:	f880 224a 	strb.w	r2, [r0, #586]	; 0x24a
   d4d22:	f8c0 2364 	str.w	r2, [r0, #868]	; 0x364
   d4d26:	f8c0 2384 	str.w	r2, [r0, #900]	; 0x384
   d4d2a:	f8a0 23a8 	strh.w	r2, [r0, #936]	; 0x3a8
  currentGeofenceParams.numFences = 0; // Zero the number of geofences currently in use
   d4d2e:	7102      	strb	r2, [r0, #4]
  moduleQueried.versionNumber = false;
   d4d30:	f880 139c 	strb.w	r1, [r0, #924]	; 0x39c
  // #elif defined(ARDUINO_ARCH_ESP32)

  // i2cTransactionSize = 32; //The ESP32 has an I2C buffer length of 128. We reduce it to 32 bytes to increase stability with the module

  // #endif
}
   d4d34:	bd10      	pop	{r4, pc}
   d4d36:	bf00      	nop
   d4d38:	02020000 	.word	0x02020000

000d4d3c <_ZN13SFE_UBLOX_GPS11processNMEAEc>:
//User could overwrite this function to pipe characters to nmea.process(c) of tinyGPS or MicroNMEA
//Or user could pipe each character to a buffer, radio, etc.
void SFE_UBLOX_GPS::processNMEA(char incoming)
{
  //If user has assigned an output port then pipe the characters there
  if (_nmeaOutputPort != NULL)
   d4d3c:	f8d0 0240 	ldr.w	r0, [r0, #576]	; 0x240
   d4d40:	b110      	cbz	r0, d4d48 <_ZN13SFE_UBLOX_GPS11processNMEAEc+0xc>
    _nmeaOutputPort->write(incoming); //Echo this byte to the serial port
   d4d42:	6803      	ldr	r3, [r0, #0]
   d4d44:	689b      	ldr	r3, [r3, #8]
   d4d46:	4718      	bx	r3
}
   d4d48:	4770      	bx	lr

000d4d4a <_ZN13SFE_UBLOX_GPS11processRTCMEh>:
  //  _debugSerial->print(F(" "));
  //  if(incoming < 0x10) _debugSerial->print(F("0"));
  //  if(incoming < 0x10) _debugSerial->print(F("0"));
  //  _debugSerial->print(incoming, HEX);
  //  if(rtcmFrameCounter % 16 == 0) _debugSerial->println();
}
   d4d4a:	4770      	bx	lr

000d4d4c <_ZN13SFE_UBLOX_GPS16processRTCMframeEh>:
{
   d4d4c:	b510      	push	{r4, lr}
  if (rtcmFrameCounter == 1)
   d4d4e:	f8b0 30f4 	ldrh.w	r3, [r0, #244]	; 0xf4
   d4d52:	2b01      	cmp	r3, #1
{
   d4d54:	4604      	mov	r4, r0
  if (rtcmFrameCounter == 1)
   d4d56:	d114      	bne.n	d4d82 <_ZN13SFE_UBLOX_GPS16processRTCMframeEh+0x36>
    rtcmLen = (incoming & 0x03) << 8; //Get the last two bits of this byte. Bits 8&9 of 10-bit length
   d4d58:	020a      	lsls	r2, r1, #8
   d4d5a:	f402 7240 	and.w	r2, r2, #768	; 0x300
    rtcmLen += 6;        //There are 6 additional bytes of what we presume is header, msgType, CRC, and stuff
   d4d5e:	f8a4 23a8 	strh.w	r2, [r4, #936]	; 0x3a8
  rtcmFrameCounter++;
   d4d62:	3301      	adds	r3, #1
   d4d64:	f8a4 30f4 	strh.w	r3, [r4, #244]	; 0xf4
  processRTCM(incoming); //Here is where we expose this byte to the user
   d4d68:	4620      	mov	r0, r4
   d4d6a:	f7ff ffee 	bl	d4d4a <_ZN13SFE_UBLOX_GPS11processRTCMEh>
  if (rtcmFrameCounter == rtcmLen)
   d4d6e:	f8b4 33a8 	ldrh.w	r3, [r4, #936]	; 0x3a8
   d4d72:	f8b4 20f4 	ldrh.w	r2, [r4, #244]	; 0xf4
   d4d76:	429a      	cmp	r2, r3
    currentSentence = NONE; //Reset and start looking for next sentence type
   d4d78:	bf04      	itt	eq
   d4d7a:	2300      	moveq	r3, #0
   d4d7c:	f884 3234 	strbeq.w	r3, [r4, #564]	; 0x234
}
   d4d80:	bd10      	pop	{r4, pc}
  else if (rtcmFrameCounter == 2)
   d4d82:	2b02      	cmp	r3, #2
   d4d84:	d1ed      	bne.n	d4d62 <_ZN13SFE_UBLOX_GPS16processRTCMframeEh+0x16>
    rtcmLen |= incoming; //Bits 0-7 of packet length
   d4d86:	f8b0 23a8 	ldrh.w	r2, [r0, #936]	; 0x3a8
   d4d8a:	430a      	orrs	r2, r1
    rtcmLen += 6;        //There are 6 additional bytes of what we presume is header, msgType, CRC, and stuff
   d4d8c:	3206      	adds	r2, #6
   d4d8e:	e7e6      	b.n	d4d5e <_ZN13SFE_UBLOX_GPS16processRTCMframeEh+0x12>

000d4d90 <_ZN13SFE_UBLOX_GPS14sendI2cCommandEP9ubxPackett>:
  return retVal;
}

//Returns false if sensor fails to respond to I2C traffic
sfe_ublox_status_e SFE_UBLOX_GPS::sendI2cCommand(ubxPacket *outgoingUBX, uint16_t maxWait)
{
   d4d90:	e92d 43f8 	stmdb	sp!, {r3, r4, r5, r6, r7, r8, r9, lr}
   d4d94:	4604      	mov	r4, r0
   d4d96:	460d      	mov	r5, r1
  //Point at 0xFF data register
  _i2cPort->beginTransmission((uint8_t)_gpsI2Caddress); //There is no register to write to, we just begin writing data bytes
   d4d98:	f890 1248 	ldrb.w	r1, [r0, #584]	; 0x248
   d4d9c:	f8d0 0238 	ldr.w	r0, [r0, #568]	; 0x238
   d4da0:	f003 fc96 	bl	d86d0 <_ZN7TwoWire17beginTransmissionEh>
  _i2cPort->write(0xFF);
   d4da4:	21ff      	movs	r1, #255	; 0xff
   d4da6:	f8d4 0238 	ldr.w	r0, [r4, #568]	; 0x238
   d4daa:	f7ff ff81 	bl	d4cb0 <_ZN7TwoWire5writeEi>
  if (_i2cPort->endTransmission(false) != 0)         //Don't release bus
   d4dae:	f8d4 0238 	ldr.w	r0, [r4, #568]	; 0x238
   d4db2:	2100      	movs	r1, #0
   d4db4:	f003 fca8 	bl	d8708 <_ZN7TwoWire15endTransmissionEh>
   d4db8:	4606      	mov	r6, r0
   d4dba:	b110      	cbz	r0, d4dc2 <_ZN13SFE_UBLOX_GPS14sendI2cCommandEP9ubxPackett+0x32>
    return (SFE_UBLOX_STATUS_I2C_COMM_FAILURE); //Sensor did not ACK
   d4dbc:	200c      	movs	r0, #12

  //All done transmitting bytes. Release bus.
  if (_i2cPort->endTransmission() != 0)
    return (SFE_UBLOX_STATUS_I2C_COMM_FAILURE); //Sensor did not ACK
  return (SFE_UBLOX_STATUS_SUCCESS);
}
   d4dbe:	e8bd 83f8 	ldmia.w	sp!, {r3, r4, r5, r6, r7, r8, r9, pc}
  _i2cPort->beginTransmission((uint8_t)_gpsI2Caddress); //There is no register to write to, we just begin writing data bytes
   d4dc2:	f894 1248 	ldrb.w	r1, [r4, #584]	; 0x248
   d4dc6:	f8d4 0238 	ldr.w	r0, [r4, #568]	; 0x238
   d4dca:	f003 fc81 	bl	d86d0 <_ZN7TwoWire17beginTransmissionEh>
  _i2cPort->write(UBX_SYNCH_1);                         // - oh ublox, you're funny. I will call you micro-blox from now on.
   d4dce:	f8d4 0238 	ldr.w	r0, [r4, #568]	; 0x238
   d4dd2:	6803      	ldr	r3, [r0, #0]
   d4dd4:	21b5      	movs	r1, #181	; 0xb5
   d4dd6:	689b      	ldr	r3, [r3, #8]
   d4dd8:	4798      	blx	r3
  _i2cPort->write(UBX_SYNCH_2);                         //b
   d4dda:	f8d4 0238 	ldr.w	r0, [r4, #568]	; 0x238
   d4dde:	6803      	ldr	r3, [r0, #0]
   d4de0:	2162      	movs	r1, #98	; 0x62
   d4de2:	689b      	ldr	r3, [r3, #8]
   d4de4:	4798      	blx	r3
  _i2cPort->write(outgoingUBX->cls);
   d4de6:	f8d4 0238 	ldr.w	r0, [r4, #568]	; 0x238
   d4dea:	7829      	ldrb	r1, [r5, #0]
   d4dec:	6803      	ldr	r3, [r0, #0]
   d4dee:	689b      	ldr	r3, [r3, #8]
   d4df0:	4798      	blx	r3
  _i2cPort->write(outgoingUBX->id);
   d4df2:	f8d4 0238 	ldr.w	r0, [r4, #568]	; 0x238
   d4df6:	7869      	ldrb	r1, [r5, #1]
   d4df8:	6803      	ldr	r3, [r0, #0]
   d4dfa:	689b      	ldr	r3, [r3, #8]
   d4dfc:	4798      	blx	r3
  _i2cPort->write(outgoingUBX->len & 0xFF);     //LSB
   d4dfe:	78a9      	ldrb	r1, [r5, #2]
   d4e00:	f8d4 0238 	ldr.w	r0, [r4, #568]	; 0x238
   d4e04:	f7ff ff54 	bl	d4cb0 <_ZN7TwoWire5writeEi>
  _i2cPort->write(outgoingUBX->len >> 8);       //MSB
   d4e08:	8869      	ldrh	r1, [r5, #2]
   d4e0a:	f8d4 0238 	ldr.w	r0, [r4, #568]	; 0x238
   d4e0e:	0a09      	lsrs	r1, r1, #8
   d4e10:	f7ff ff4e 	bl	d4cb0 <_ZN7TwoWire5writeEi>
  if (_i2cPort->endTransmission(false) != 0)    //Do not release bus
   d4e14:	f8d4 0238 	ldr.w	r0, [r4, #568]	; 0x238
   d4e18:	4631      	mov	r1, r6
   d4e1a:	f003 fc75 	bl	d8708 <_ZN7TwoWire15endTransmissionEh>
   d4e1e:	2800      	cmp	r0, #0
   d4e20:	d1cc      	bne.n	d4dbc <_ZN13SFE_UBLOX_GPS14sendI2cCommandEP9ubxPackett+0x2c>
  uint16_t bytesToSend = outgoingUBX->len;
   d4e22:	f8b5 8002 	ldrh.w	r8, [r5, #2]
  uint16_t startSpot = 0;
   d4e26:	4606      	mov	r6, r0
  while (bytesToSend > 1)
   d4e28:	f1b8 0f01 	cmp.w	r8, #1
   d4e2c:	f8d4 0238 	ldr.w	r0, [r4, #568]	; 0x238
   d4e30:	f894 1248 	ldrb.w	r1, [r4, #584]	; 0x248
   d4e34:	d926      	bls.n	d4e84 <_ZN13SFE_UBLOX_GPS14sendI2cCommandEP9ubxPackett+0xf4>
    uint8_t len = bytesToSend;
   d4e36:	7827      	ldrb	r7, [r4, #0]
   d4e38:	fa5f f288 	uxtb.w	r2, r8
    if (len > i2cTransactionSize)
   d4e3c:	4297      	cmp	r7, r2
   d4e3e:	bf28      	it	cs
   d4e40:	4617      	movcs	r7, r2
    _i2cPort->beginTransmission((uint8_t)_gpsI2Caddress);
   d4e42:	f003 fc45 	bl	d86d0 <_ZN7TwoWire17beginTransmissionEh>
   d4e46:	f04f 0900 	mov.w	r9, #0
    for (uint16_t x = 0; x < len; x++)
   d4e4a:	b2bf      	uxth	r7, r7
   d4e4c:	fa1f f389 	uxth.w	r3, r9
   d4e50:	429f      	cmp	r7, r3
   d4e52:	f8d4 0238 	ldr.w	r0, [r4, #568]	; 0x238
   d4e56:	d909      	bls.n	d4e6c <_ZN13SFE_UBLOX_GPS14sendI2cCommandEP9ubxPackett+0xdc>
      _i2cPort->write(outgoingUBX->payload[startSpot + x]); //Write a portion of the payload to the bus
   d4e58:	68ab      	ldr	r3, [r5, #8]
   d4e5a:	6802      	ldr	r2, [r0, #0]
   d4e5c:	4433      	add	r3, r6
   d4e5e:	6892      	ldr	r2, [r2, #8]
   d4e60:	f813 1009 	ldrb.w	r1, [r3, r9]
   d4e64:	4790      	blx	r2
    for (uint16_t x = 0; x < len; x++)
   d4e66:	f109 0901 	add.w	r9, r9, #1
   d4e6a:	e7ef      	b.n	d4e4c <_ZN13SFE_UBLOX_GPS14sendI2cCommandEP9ubxPackett+0xbc>
    if (_i2cPort->endTransmission(false) != 0)    //Don't release bus
   d4e6c:	2100      	movs	r1, #0
   d4e6e:	f003 fc4b 	bl	d8708 <_ZN7TwoWire15endTransmissionEh>
   d4e72:	2800      	cmp	r0, #0
   d4e74:	d1a2      	bne.n	d4dbc <_ZN13SFE_UBLOX_GPS14sendI2cCommandEP9ubxPackett+0x2c>
    startSpot += len; //Move the pointer forward
   d4e76:	443e      	add	r6, r7
    bytesToSend -= len;
   d4e78:	eba8 0707 	sub.w	r7, r8, r7
    startSpot += len; //Move the pointer forward
   d4e7c:	b2b6      	uxth	r6, r6
    bytesToSend -= len;
   d4e7e:	fa1f f887 	uxth.w	r8, r7
  while (bytesToSend > 1)
   d4e82:	e7d1      	b.n	d4e28 <_ZN13SFE_UBLOX_GPS14sendI2cCommandEP9ubxPackett+0x98>
  _i2cPort->beginTransmission((uint8_t)_gpsI2Caddress);
   d4e84:	f003 fc24 	bl	d86d0 <_ZN7TwoWire17beginTransmissionEh>
  if (bytesToSend == 1)
   d4e88:	f1b8 0f01 	cmp.w	r8, #1
   d4e8c:	d106      	bne.n	d4e9c <_ZN13SFE_UBLOX_GPS14sendI2cCommandEP9ubxPackett+0x10c>
    _i2cPort->write(outgoingUBX->payload, 1);
   d4e8e:	f8d4 0238 	ldr.w	r0, [r4, #568]	; 0x238
   d4e92:	68a9      	ldr	r1, [r5, #8]
   d4e94:	6803      	ldr	r3, [r0, #0]
   d4e96:	4642      	mov	r2, r8
   d4e98:	68db      	ldr	r3, [r3, #12]
   d4e9a:	4798      	blx	r3
  _i2cPort->write(outgoingUBX->checksumA);
   d4e9c:	f8d4 0238 	ldr.w	r0, [r4, #568]	; 0x238
   d4ea0:	7b29      	ldrb	r1, [r5, #12]
   d4ea2:	6803      	ldr	r3, [r0, #0]
   d4ea4:	689b      	ldr	r3, [r3, #8]
   d4ea6:	4798      	blx	r3
  _i2cPort->write(outgoingUBX->checksumB);
   d4ea8:	f8d4 0238 	ldr.w	r0, [r4, #568]	; 0x238
   d4eac:	7b69      	ldrb	r1, [r5, #13]
   d4eae:	6803      	ldr	r3, [r0, #0]
   d4eb0:	689b      	ldr	r3, [r3, #8]
   d4eb2:	4798      	blx	r3
  if (_i2cPort->endTransmission() != 0)
   d4eb4:	f8d4 0238 	ldr.w	r0, [r4, #568]	; 0x238
   d4eb8:	f003 fc2a 	bl	d8710 <_ZN7TwoWire15endTransmissionEv>
   d4ebc:	2800      	cmp	r0, #0
   d4ebe:	f43f af7e 	beq.w	d4dbe <_ZN13SFE_UBLOX_GPS14sendI2cCommandEP9ubxPackett+0x2e>
   d4ec2:	e77b      	b.n	d4dbc <_ZN13SFE_UBLOX_GPS14sendI2cCommandEP9ubxPackett+0x2c>

000d4ec4 <_ZN13SFE_UBLOX_GPS17sendSerialCommandEP9ubxPacket>:

//Given a packet and payload, send everything including CRC bytesA via Serial port
void SFE_UBLOX_GPS::sendSerialCommand(ubxPacket *outgoingUBX)
{
   d4ec4:	b570      	push	{r4, r5, r6, lr}
   d4ec6:	4605      	mov	r5, r0
  //Write header bytes
  _serialPort->write(UBX_SYNCH_1); // - oh ublox, you're funny. I will call you micro-blox from now on.
   d4ec8:	f8d0 023c 	ldr.w	r0, [r0, #572]	; 0x23c
   d4ecc:	6803      	ldr	r3, [r0, #0]
{
   d4ece:	460c      	mov	r4, r1
  _serialPort->write(UBX_SYNCH_1); // - oh ublox, you're funny. I will call you micro-blox from now on.
   d4ed0:	689b      	ldr	r3, [r3, #8]
   d4ed2:	21b5      	movs	r1, #181	; 0xb5
   d4ed4:	4798      	blx	r3
  _serialPort->write(UBX_SYNCH_2); //b
   d4ed6:	f8d5 023c 	ldr.w	r0, [r5, #572]	; 0x23c
   d4eda:	6803      	ldr	r3, [r0, #0]
   d4edc:	2162      	movs	r1, #98	; 0x62
   d4ede:	689b      	ldr	r3, [r3, #8]
   d4ee0:	4798      	blx	r3
  _serialPort->write(outgoingUBX->cls);
   d4ee2:	f8d5 023c 	ldr.w	r0, [r5, #572]	; 0x23c
   d4ee6:	7821      	ldrb	r1, [r4, #0]
   d4ee8:	6803      	ldr	r3, [r0, #0]
   d4eea:	689b      	ldr	r3, [r3, #8]
   d4eec:	4798      	blx	r3
  _serialPort->write(outgoingUBX->id);
   d4eee:	f8d5 023c 	ldr.w	r0, [r5, #572]	; 0x23c
   d4ef2:	7861      	ldrb	r1, [r4, #1]
   d4ef4:	6803      	ldr	r3, [r0, #0]
   d4ef6:	689b      	ldr	r3, [r3, #8]
   d4ef8:	4798      	blx	r3
  _serialPort->write(outgoingUBX->len & 0xFF); //LSB
   d4efa:	f8d5 023c 	ldr.w	r0, [r5, #572]	; 0x23c
   d4efe:	78a1      	ldrb	r1, [r4, #2]
   d4f00:	6803      	ldr	r3, [r0, #0]
   d4f02:	689b      	ldr	r3, [r3, #8]
   d4f04:	4798      	blx	r3
  _serialPort->write(outgoingUBX->len >> 8);   //MSB
   d4f06:	f8d5 023c 	ldr.w	r0, [r5, #572]	; 0x23c
   d4f0a:	8861      	ldrh	r1, [r4, #2]
   d4f0c:	6803      	ldr	r3, [r0, #0]
   d4f0e:	0a09      	lsrs	r1, r1, #8
   d4f10:	689b      	ldr	r3, [r3, #8]
   d4f12:	4798      	blx	r3

  //Write payload.
  for (int i = 0; i < outgoingUBX->len; i++)
   d4f14:	2600      	movs	r6, #0
   d4f16:	f8d5 023c 	ldr.w	r0, [r5, #572]	; 0x23c
   d4f1a:	8862      	ldrh	r2, [r4, #2]
   d4f1c:	6803      	ldr	r3, [r0, #0]
   d4f1e:	42b2      	cmp	r2, r6
   d4f20:	689b      	ldr	r3, [r3, #8]
   d4f22:	dd04      	ble.n	d4f2e <_ZN13SFE_UBLOX_GPS17sendSerialCommandEP9ubxPacket+0x6a>
  {
    _serialPort->write(outgoingUBX->payload[i]);
   d4f24:	68a2      	ldr	r2, [r4, #8]
   d4f26:	5d91      	ldrb	r1, [r2, r6]
   d4f28:	4798      	blx	r3
  for (int i = 0; i < outgoingUBX->len; i++)
   d4f2a:	3601      	adds	r6, #1
   d4f2c:	e7f3      	b.n	d4f16 <_ZN13SFE_UBLOX_GPS17sendSerialCommandEP9ubxPacket+0x52>
  }

  //Write checksum
  _serialPort->write(outgoingUBX->checksumA);
   d4f2e:	7b21      	ldrb	r1, [r4, #12]
   d4f30:	4798      	blx	r3
  _serialPort->write(outgoingUBX->checksumB);
   d4f32:	f8d5 023c 	ldr.w	r0, [r5, #572]	; 0x23c
   d4f36:	7b61      	ldrb	r1, [r4, #13]
   d4f38:	6803      	ldr	r3, [r0, #0]
}
   d4f3a:	e8bd 4070 	ldmia.w	sp!, {r4, r5, r6, lr}
  _serialPort->write(outgoingUBX->checksumB);
   d4f3e:	689b      	ldr	r3, [r3, #8]
   d4f40:	4718      	bx	r3

000d4f42 <_ZN13SFE_UBLOX_GPS12calcChecksumEP9ubxPacket>:
}

//Given a message, calc and store the two byte "8-Bit Fletcher" checksum over the entirety of the message
//This is called before we send a command message
void SFE_UBLOX_GPS::calcChecksum(ubxPacket *msg)
{
   d4f42:	b530      	push	{r4, r5, lr}
  msg->checksumB = 0;

  msg->checksumA += msg->cls;
  msg->checksumB += msg->checksumA;

  msg->checksumA += msg->id;
   d4f44:	784a      	ldrb	r2, [r1, #1]
  msg->checksumA += msg->cls;
   d4f46:	780d      	ldrb	r5, [r1, #0]
  msg->checksumB += msg->checksumA;

  msg->checksumA += (msg->len & 0xFF);
   d4f48:	884c      	ldrh	r4, [r1, #2]
  msg->checksumA += msg->id;
   d4f4a:	442a      	add	r2, r5
  msg->checksumA += (msg->len & 0xFF);
   d4f4c:	fa54 f082 	uxtab	r0, r4, r2
  msg->checksumB += msg->checksumA;

  msg->checksumA += (msg->len >> 8);
   d4f50:	eb00 2314 	add.w	r3, r0, r4, lsr #8
  msg->checksumB += msg->checksumA;
   d4f54:	fa55 f282 	uxtab	r2, r5, r2
  msg->checksumA += (msg->len >> 8);
   d4f58:	f003 03ff 	and.w	r3, r3, #255	; 0xff
  msg->checksumB += msg->checksumA;
   d4f5c:	fa52 f280 	uxtab	r2, r2, r0
  msg->checksumA += (msg->len >> 8);
   d4f60:	730b      	strb	r3, [r1, #12]
  msg->checksumB += msg->checksumA;
   d4f62:	4413      	add	r3, r2
   d4f64:	734b      	strb	r3, [r1, #13]
   d4f66:	2200      	movs	r2, #0

  for (uint16_t i = 0; i < msg->len; i++)
   d4f68:	b293      	uxth	r3, r2
   d4f6a:	429c      	cmp	r4, r3
   d4f6c:	d90a      	bls.n	d4f84 <_ZN13SFE_UBLOX_GPS12calcChecksumEP9ubxPacket+0x42>
  {
    msg->checksumA += msg->payload[i];
   d4f6e:	688b      	ldr	r3, [r1, #8]
   d4f70:	7b08      	ldrb	r0, [r1, #12]
   d4f72:	5c9b      	ldrb	r3, [r3, r2]
   d4f74:	4403      	add	r3, r0
    msg->checksumB += msg->checksumA;
   d4f76:	7b48      	ldrb	r0, [r1, #13]
    msg->checksumA += msg->payload[i];
   d4f78:	b2db      	uxtb	r3, r3
   d4f7a:	730b      	strb	r3, [r1, #12]
    msg->checksumB += msg->checksumA;
   d4f7c:	4403      	add	r3, r0
   d4f7e:	734b      	strb	r3, [r1, #13]
  for (uint16_t i = 0; i < msg->len; i++)
   d4f80:	3201      	adds	r2, #1
   d4f82:	e7f1      	b.n	d4f68 <_ZN13SFE_UBLOX_GPS12calcChecksumEP9ubxPacket+0x26>
  }
}
   d4f84:	bd30      	pop	{r4, r5, pc}

000d4f86 <_ZN13SFE_UBLOX_GPS13addToChecksumEh>:

//Given a message and a byte, add to rolling "8-Bit Fletcher" checksum
//This is used when receiving messages from module
void SFE_UBLOX_GPS::addToChecksum(uint8_t incoming)
{
  rollingChecksumA += incoming;
   d4f86:	f890 3396 	ldrb.w	r3, [r0, #918]	; 0x396
   d4f8a:	4419      	add	r1, r3
  rollingChecksumB += rollingChecksumA;
   d4f8c:	f890 3397 	ldrb.w	r3, [r0, #919]	; 0x397
  rollingChecksumA += incoming;
   d4f90:	b2c9      	uxtb	r1, r1
   d4f92:	f880 1396 	strb.w	r1, [r0, #918]	; 0x396
  rollingChecksumB += rollingChecksumA;
   d4f96:	4419      	add	r1, r3
   d4f98:	f880 1397 	strb.w	r1, [r0, #919]	; 0x397
}
   d4f9c:	4770      	bx	lr

000d4f9e <_ZN13SFE_UBLOX_GPS11extractLongEh>:
//Given a spot in the payload array, extract four bytes and build a long
uint32_t SFE_UBLOX_GPS::extractLong(uint8_t spotToStart)
{
  uint32_t val = 0;
  val |= (uint32_t)payloadCfg[spotToStart + 0] << 8 * 0;
  val |= (uint32_t)payloadCfg[spotToStart + 1] << 8 * 1;
   d4f9e:	4401      	add	r1, r0
  val |= (uint32_t)payloadCfg[spotToStart + 2] << 8 * 2;
   d4fa0:	f891 324f 	ldrb.w	r3, [r1, #591]	; 0x24f
  val |= (uint32_t)payloadCfg[spotToStart + 1] << 8 * 1;
   d4fa4:	f891 024e 	ldrb.w	r0, [r1, #590]	; 0x24e
  val |= (uint32_t)payloadCfg[spotToStart + 2] << 8 * 2;
   d4fa8:	041b      	lsls	r3, r3, #16
   d4faa:	ea43 2300 	orr.w	r3, r3, r0, lsl #8
  val |= (uint32_t)payloadCfg[spotToStart + 0] << 8 * 0;
   d4fae:	f891 024d 	ldrb.w	r0, [r1, #589]	; 0x24d
  val |= (uint32_t)payloadCfg[spotToStart + 2] << 8 * 2;
   d4fb2:	4303      	orrs	r3, r0
  val |= (uint32_t)payloadCfg[spotToStart + 3] << 8 * 3;
   d4fb4:	f891 0250 	ldrb.w	r0, [r1, #592]	; 0x250
  return (val);
}
   d4fb8:	ea43 6000 	orr.w	r0, r3, r0, lsl #24
   d4fbc:	4770      	bx	lr
	...

000d4fc0 <_ZN13SFE_UBLOX_GPS16processUBXpacketEP9ubxPacket>:
{
   d4fc0:	b510      	push	{r4, lr}
  switch (msg->cls)
   d4fc2:	780c      	ldrb	r4, [r1, #0]
   d4fc4:	2c01      	cmp	r4, #1
{
   d4fc6:	4602      	mov	r2, r0
  switch (msg->cls)
   d4fc8:	d003      	beq.n	d4fd2 <_ZN13SFE_UBLOX_GPS16processUBXpacketEP9ubxPacket+0x12>
   d4fca:	2c28      	cmp	r4, #40	; 0x28
   d4fcc:	f000 8167 	beq.w	d529e <_ZN13SFE_UBLOX_GPS16processUBXpacketEP9ubxPacket+0x2de>
}
   d4fd0:	bd10      	pop	{r4, pc}
    if (msg->id == UBX_NAV_PVT && msg->len == 92)
   d4fd2:	680b      	ldr	r3, [r1, #0]
   d4fd4:	49f1      	ldr	r1, [pc, #964]	; (d539c <_ZN13SFE_UBLOX_GPS16processUBXpacketEP9ubxPacket+0x3dc>)
   d4fd6:	f023 03ff 	bic.w	r3, r3, #255	; 0xff
   d4fda:	428b      	cmp	r3, r1
   d4fdc:	f040 80d4 	bne.w	d5188 <_ZN13SFE_UBLOX_GPS16processUBXpacketEP9ubxPacket+0x1c8>
      timeOfWeek = extractLong(0);
   d4fe0:	2100      	movs	r1, #0
   d4fe2:	f7ff ffdc 	bl	d4f9e <_ZN13SFE_UBLOX_GPS11extractLongEh>
      gpsMillisecond = extractLong(0) % 1000; //Get last three digits of iTOW
   d4fe6:	2100      	movs	r1, #0
      timeOfWeek = extractLong(0);
   d4fe8:	f8c2 00d0 	str.w	r0, [r2, #208]	; 0xd0
      gpsMillisecond = extractLong(0) % 1000; //Get last three digits of iTOW
   d4fec:	4610      	mov	r0, r2
   d4fee:	f7ff ffd6 	bl	d4f9e <_ZN13SFE_UBLOX_GPS11extractLongEh>
   d4ff2:	f44f 737a 	mov.w	r3, #1000	; 0x3e8
   d4ff6:	fbb0 f1f3 	udiv	r1, r0, r3
   d4ffa:	fb01 0313 	mls	r3, r1, r3, r0
   d4ffe:	f8a2 3078 	strh.w	r3, [r2, #120]	; 0x78
//Given a spot in the payload array, extract two bytes and build an int
uint16_t SFE_UBLOX_GPS::extractInt(uint8_t spotToStart)
{
  uint16_t val = 0;
  val |= (uint16_t)payloadCfg[spotToStart + 0] << 8 * 0;
  val |= (uint16_t)payloadCfg[spotToStart + 1] << 8 * 1;
   d5002:	f892 1252 	ldrb.w	r1, [r2, #594]	; 0x252
   d5006:	f892 3251 	ldrb.w	r3, [r2, #593]	; 0x251
   d500a:	ea43 2301 	orr.w	r3, r3, r1, lsl #8
      gpsYear = extractInt(4);
   d500e:	f8a2 3070 	strh.w	r3, [r2, #112]	; 0x70
      gpsMonth = extractByte(6);
   d5012:	f892 3253 	ldrb.w	r3, [r2, #595]	; 0x253
   d5016:	f882 3072 	strb.w	r3, [r2, #114]	; 0x72
      gpsDay = extractByte(7);
   d501a:	f892 3254 	ldrb.w	r3, [r2, #596]	; 0x254
   d501e:	f882 3073 	strb.w	r3, [r2, #115]	; 0x73
      gpsHour = extractByte(8);
   d5022:	f892 3255 	ldrb.w	r3, [r2, #597]	; 0x255
   d5026:	f882 3074 	strb.w	r3, [r2, #116]	; 0x74
      gpsMinute = extractByte(9);
   d502a:	f892 3256 	ldrb.w	r3, [r2, #598]	; 0x256
   d502e:	f882 3075 	strb.w	r3, [r2, #117]	; 0x75
      gpsSecond = extractByte(10);
   d5032:	f892 3257 	ldrb.w	r3, [r2, #599]	; 0x257
   d5036:	f882 3076 	strb.w	r3, [r2, #118]	; 0x76
}

//Given a spot, extract a byte from the payload
uint8_t SFE_UBLOX_GPS::extractByte(uint8_t spotToStart)
{
  return (payloadCfg[spotToStart]);
   d503a:	f892 3258 	ldrb.w	r3, [r2, #600]	; 0x258
      gpsDateValid = extractByte(11) & 0x01;
   d503e:	f003 0101 	and.w	r1, r3, #1
      gpsTimeValid = (extractByte(11) & 0x02) >> 1;
   d5042:	f3c3 0340 	ubfx	r3, r3, #1, #1
      gpsDateValid = extractByte(11) & 0x01;
   d5046:	f882 1080 	strb.w	r1, [r2, #128]	; 0x80
      gpsTimeValid = (extractByte(11) & 0x02) >> 1;
   d504a:	f882 3081 	strb.w	r3, [r2, #129]	; 0x81
  unsignedSigned.unsignedLong = extractLong(spotToStart);
   d504e:	4610      	mov	r0, r2
   d5050:	2110      	movs	r1, #16
   d5052:	f7ff ffa4 	bl	d4f9e <_ZN13SFE_UBLOX_GPS11extractLongEh>
      fixType = extractByte(20 - startingSpot);
   d5056:	f892 3261 	ldrb.w	r3, [r2, #609]	; 0x261
   d505a:	f882 30ad 	strb.w	r3, [r2, #173]	; 0xad
  return (payloadCfg[spotToStart]);
   d505e:	f892 3262 	ldrb.w	r3, [r2, #610]	; 0x262
      gpsNanosecond = extractSignedLong(16); //Includes milliseconds
   d5062:	67d0      	str	r0, [r2, #124]	; 0x7c
      gnssFixOk = extractByte(21 - startingSpot) & 0x1; //Get the 1st bit
   d5064:	f003 0101 	and.w	r1, r3, #1
   d5068:	f882 1082 	strb.w	r1, [r2, #130]	; 0x82
      diffSoln = (extractByte(21 - startingSpot) >> 1) & 0x1; //Get the 2nd bit
   d506c:	f3c3 0140 	ubfx	r1, r3, #1, #1
   d5070:	f882 1083 	strb.w	r1, [r2, #131]	; 0x83
      carrierSolution = extractByte(21 - startingSpot) >> 6; //Get 6th&7th bits of this byte
   d5074:	1199      	asrs	r1, r3, #6
      headVehValid = (extractByte(21 - startingSpot) >> 5) & 0x1; // Get the 5th bit
   d5076:	f3c3 1340 	ubfx	r3, r3, #5, #1
   d507a:	f882 3084 	strb.w	r3, [r2, #132]	; 0x84
      SIV = extractByte(23 - startingSpot);
   d507e:	f892 3264 	ldrb.w	r3, [r2, #612]	; 0x264
   d5082:	f882 30ac 	strb.w	r3, [r2, #172]	; 0xac
      carrierSolution = extractByte(21 - startingSpot) >> 6; //Get 6th&7th bits of this byte
   d5086:	f882 10ae 	strb.w	r1, [r2, #174]	; 0xae
  unsignedSigned.unsignedLong = extractLong(spotToStart);
   d508a:	4610      	mov	r0, r2
   d508c:	2118      	movs	r1, #24
   d508e:	f7ff ff86 	bl	d4f9e <_ZN13SFE_UBLOX_GPS11extractLongEh>
   d5092:	211c      	movs	r1, #28
      longitude = extractSignedLong(24 - startingSpot);
   d5094:	f8c2 008c 	str.w	r0, [r2, #140]	; 0x8c
  unsignedSigned.unsignedLong = extractLong(spotToStart);
   d5098:	4610      	mov	r0, r2
   d509a:	f7ff ff80 	bl	d4f9e <_ZN13SFE_UBLOX_GPS11extractLongEh>
   d509e:	2120      	movs	r1, #32
      latitude = extractSignedLong(28 - startingSpot);
   d50a0:	f8c2 0088 	str.w	r0, [r2, #136]	; 0x88
  unsignedSigned.unsignedLong = extractLong(spotToStart);
   d50a4:	4610      	mov	r0, r2
   d50a6:	f7ff ff7a 	bl	d4f9e <_ZN13SFE_UBLOX_GPS11extractLongEh>
   d50aa:	2124      	movs	r1, #36	; 0x24
      altitude = extractSignedLong(32 - startingSpot);
   d50ac:	f8c2 0090 	str.w	r0, [r2, #144]	; 0x90
  unsignedSigned.unsignedLong = extractLong(spotToStart);
   d50b0:	4610      	mov	r0, r2
   d50b2:	f7ff ff74 	bl	d4f9e <_ZN13SFE_UBLOX_GPS11extractLongEh>
      horizontalAccEst = extractLong(40 - startingSpot);
   d50b6:	2128      	movs	r1, #40	; 0x28
      altitudeMSL = extractSignedLong(36 - startingSpot);
   d50b8:	f8c2 0094 	str.w	r0, [r2, #148]	; 0x94
      horizontalAccEst = extractLong(40 - startingSpot);
   d50bc:	4610      	mov	r0, r2
   d50be:	f7ff ff6e 	bl	d4f9e <_ZN13SFE_UBLOX_GPS11extractLongEh>
      verticalAccEst = extractLong(44 - startingSpot);
   d50c2:	212c      	movs	r1, #44	; 0x2c
      horizontalAccEst = extractLong(40 - startingSpot);
   d50c4:	f8c2 0098 	str.w	r0, [r2, #152]	; 0x98
      verticalAccEst = extractLong(44 - startingSpot);
   d50c8:	4610      	mov	r0, r2
   d50ca:	f7ff ff68 	bl	d4f9e <_ZN13SFE_UBLOX_GPS11extractLongEh>
  unsignedSigned.unsignedLong = extractLong(spotToStart);
   d50ce:	2130      	movs	r1, #48	; 0x30
      verticalAccEst = extractLong(44 - startingSpot);
   d50d0:	f8c2 009c 	str.w	r0, [r2, #156]	; 0x9c
  unsignedSigned.unsignedLong = extractLong(spotToStart);
   d50d4:	4610      	mov	r0, r2
   d50d6:	f7ff ff62 	bl	d4f9e <_ZN13SFE_UBLOX_GPS11extractLongEh>
   d50da:	2134      	movs	r1, #52	; 0x34
      nedNorthVel = extractSignedLong(48 - startingSpot);
   d50dc:	f8c2 00a0 	str.w	r0, [r2, #160]	; 0xa0
  unsignedSigned.unsignedLong = extractLong(spotToStart);
   d50e0:	4610      	mov	r0, r2
   d50e2:	f7ff ff5c 	bl	d4f9e <_ZN13SFE_UBLOX_GPS11extractLongEh>
   d50e6:	2138      	movs	r1, #56	; 0x38
      nedEastVel = extractSignedLong(52 - startingSpot);
   d50e8:	f8c2 00a4 	str.w	r0, [r2, #164]	; 0xa4
  unsignedSigned.unsignedLong = extractLong(spotToStart);
   d50ec:	4610      	mov	r0, r2
   d50ee:	f7ff ff56 	bl	d4f9e <_ZN13SFE_UBLOX_GPS11extractLongEh>
   d50f2:	213c      	movs	r1, #60	; 0x3c
      nedDownVel = extractSignedLong(56 - startingSpot);
   d50f4:	f8c2 00a8 	str.w	r0, [r2, #168]	; 0xa8
  unsignedSigned.unsignedLong = extractLong(spotToStart);
   d50f8:	4610      	mov	r0, r2
   d50fa:	f7ff ff50 	bl	d4f9e <_ZN13SFE_UBLOX_GPS11extractLongEh>
   d50fe:	2140      	movs	r1, #64	; 0x40
      groundSpeed = extractSignedLong(60 - startingSpot);
   d5100:	f8c2 00b0 	str.w	r0, [r2, #176]	; 0xb0
  unsignedSigned.unsignedLong = extractLong(spotToStart);
   d5104:	4610      	mov	r0, r2
   d5106:	f7ff ff4a 	bl	d4f9e <_ZN13SFE_UBLOX_GPS11extractLongEh>
      speedAccEst = extractLong(68 - startingSpot);
   d510a:	2144      	movs	r1, #68	; 0x44
      headingOfMotion = extractSignedLong(64 - startingSpot);
   d510c:	f8c2 00b4 	str.w	r0, [r2, #180]	; 0xb4
      speedAccEst = extractLong(68 - startingSpot);
   d5110:	4610      	mov	r0, r2
   d5112:	f7ff ff44 	bl	d4f9e <_ZN13SFE_UBLOX_GPS11extractLongEh>
      headingAccEst = extractLong(72 - startingSpot);
   d5116:	2148      	movs	r1, #72	; 0x48
      speedAccEst = extractLong(68 - startingSpot);
   d5118:	f8c2 00b8 	str.w	r0, [r2, #184]	; 0xb8
      headingAccEst = extractLong(72 - startingSpot);
   d511c:	4610      	mov	r0, r2
   d511e:	f7ff ff3e 	bl	d4f9e <_ZN13SFE_UBLOX_GPS11extractLongEh>
  val |= (uint16_t)payloadCfg[spotToStart + 1] << 8 * 1;
   d5122:	f892 129a 	ldrb.w	r1, [r2, #666]	; 0x29a
   d5126:	f892 3299 	ldrb.w	r3, [r2, #665]	; 0x299
      headingAccEst = extractLong(72 - startingSpot);
   d512a:	f8c2 00bc 	str.w	r0, [r2, #188]	; 0xbc
  val |= (uint16_t)payloadCfg[spotToStart + 1] << 8 * 1;
   d512e:	ea43 2301 	orr.w	r3, r3, r1, lsl #8
      pDOP = extractInt(76 - startingSpot);
   d5132:	f8a2 30c0 	strh.w	r3, [r2, #192]	; 0xc0
      invalidLlh = extractByte(78 - startingSpot) & 0x1;
   d5136:	f892 329b 	ldrb.w	r3, [r2, #667]	; 0x29b
  unsignedSigned.unsignedLong = extractLong(spotToStart);
   d513a:	2154      	movs	r1, #84	; 0x54
      invalidLlh = extractByte(78 - startingSpot) & 0x1;
   d513c:	f003 0301 	and.w	r3, r3, #1
  unsignedSigned.unsignedLong = extractLong(spotToStart);
   d5140:	4610      	mov	r0, r2
      invalidLlh = extractByte(78 - startingSpot) & 0x1;
   d5142:	f882 30c2 	strb.w	r3, [r2, #194]	; 0xc2
  unsignedSigned.unsignedLong = extractLong(spotToStart);
   d5146:	f7ff ff2a 	bl	d4f9e <_ZN13SFE_UBLOX_GPS11extractLongEh>
  val |= (uint16_t)payloadCfg[spotToStart + 1] << 8 * 1;
   d514a:	f892 12a6 	ldrb.w	r1, [r2, #678]	; 0x2a6
   d514e:	f892 32a5 	ldrb.w	r3, [r2, #677]	; 0x2a5
      headVeh = extractSignedLong(84 - startingSpot);
   d5152:	f8c2 00c4 	str.w	r0, [r2, #196]	; 0xc4
  val |= (uint16_t)payloadCfg[spotToStart + 1] << 8 * 1;
   d5156:	ea43 2301 	orr.w	r3, r3, r1, lsl #8
      magDec = extractSignedInt(88 - startingSpot);
   d515a:	f8a2 30c8 	strh.w	r3, [r2, #200]	; 0xc8
  val |= (uint16_t)payloadCfg[spotToStart + 1] << 8 * 1;
   d515e:	f892 12a8 	ldrb.w	r1, [r2, #680]	; 0x2a8
   d5162:	f892 32a7 	ldrb.w	r3, [r2, #679]	; 0x2a7
   d5166:	ea43 2301 	orr.w	r3, r3, r1, lsl #8
      magAcc = extractInt(90 - startingSpot);
   d516a:	f8a2 30ca 	strh.w	r3, [r2, #202]	; 0xca
      moduleQueried.gpsiTOW = true;
   d516e:	f04f 33ff 	mov.w	r3, #4294967295
   d5172:	f8c2 3398 	str.w	r3, [r2, #920]	; 0x398
      moduleQueried.headVeh = true;
   d5176:	f892 339c 	ldrb.w	r3, [r2, #924]	; 0x39c
   d517a:	f023 0307 	bic.w	r3, r3, #7
   d517e:	f043 0307 	orr.w	r3, r3, #7
   d5182:	f882 339c 	strb.w	r3, [r2, #924]	; 0x39c
   d5186:	e723      	b.n	d4fd0 <_ZN13SFE_UBLOX_GPS16processUBXpacketEP9ubxPacket+0x10>
    else if (msg->id == UBX_NAV_HPPOSLLH && msg->len == 36)
   d5188:	4985      	ldr	r1, [pc, #532]	; (d53a0 <_ZN13SFE_UBLOX_GPS16processUBXpacketEP9ubxPacket+0x3e0>)
   d518a:	428b      	cmp	r3, r1
   d518c:	d147      	bne.n	d521e <_ZN13SFE_UBLOX_GPS16processUBXpacketEP9ubxPacket+0x25e>
      timeOfWeek = extractLong(4);
   d518e:	2104      	movs	r1, #4
   d5190:	f7ff ff05 	bl	d4f9e <_ZN13SFE_UBLOX_GPS11extractLongEh>
  unsignedSigned.unsignedLong = extractLong(spotToStart);
   d5194:	2108      	movs	r1, #8
      timeOfWeek = extractLong(4);
   d5196:	f8c2 00d0 	str.w	r0, [r2, #208]	; 0xd0
  unsignedSigned.unsignedLong = extractLong(spotToStart);
   d519a:	4610      	mov	r0, r2
   d519c:	f7ff feff 	bl	d4f9e <_ZN13SFE_UBLOX_GPS11extractLongEh>
   d51a0:	210c      	movs	r1, #12
      highResLongitude = extractSignedLong(8);
   d51a2:	f8c2 00d8 	str.w	r0, [r2, #216]	; 0xd8
  unsignedSigned.unsignedLong = extractLong(spotToStart);
   d51a6:	4610      	mov	r0, r2
   d51a8:	f7ff fef9 	bl	d4f9e <_ZN13SFE_UBLOX_GPS11extractLongEh>
   d51ac:	2110      	movs	r1, #16
      highResLatitude = extractSignedLong(12);
   d51ae:	f8c2 00d4 	str.w	r0, [r2, #212]	; 0xd4
  unsignedSigned.unsignedLong = extractLong(spotToStart);
   d51b2:	4610      	mov	r0, r2
   d51b4:	f7ff fef3 	bl	d4f9e <_ZN13SFE_UBLOX_GPS11extractLongEh>
   d51b8:	2114      	movs	r1, #20
      elipsoid = extractSignedLong(16);
   d51ba:	f8c2 00dc 	str.w	r0, [r2, #220]	; 0xdc
  unsignedSigned.unsignedLong = extractLong(spotToStart);
   d51be:	4610      	mov	r0, r2
   d51c0:	f7ff feed 	bl	d4f9e <_ZN13SFE_UBLOX_GPS11extractLongEh>
      highResLongitudeHp = extractSignedChar(24);
   d51c4:	f892 3265 	ldrb.w	r3, [r2, #613]	; 0x265
   d51c8:	f882 30f3 	strb.w	r3, [r2, #243]	; 0xf3
      highResLatitudeHp = extractSignedChar(25);
   d51cc:	f892 3266 	ldrb.w	r3, [r2, #614]	; 0x266
   d51d0:	f882 30f2 	strb.w	r3, [r2, #242]	; 0xf2
      elipsoidHp = extractSignedChar(26);
   d51d4:	f892 3267 	ldrb.w	r3, [r2, #615]	; 0x267
   d51d8:	f882 30f0 	strb.w	r3, [r2, #240]	; 0xf0
      meanSeaLevelHp = extractSignedChar(27);
   d51dc:	f892 3268 	ldrb.w	r3, [r2, #616]	; 0x268
      meanSeaLevel = extractSignedLong(20);
   d51e0:	f8c2 00e0 	str.w	r0, [r2, #224]	; 0xe0
      meanSeaLevelHp = extractSignedChar(27);
   d51e4:	f882 30f1 	strb.w	r3, [r2, #241]	; 0xf1
      horizontalAccuracy = extractLong(28);
   d51e8:	211c      	movs	r1, #28
   d51ea:	4610      	mov	r0, r2
   d51ec:	f7ff fed7 	bl	d4f9e <_ZN13SFE_UBLOX_GPS11extractLongEh>
      verticalAccuracy = extractLong(32);
   d51f0:	2120      	movs	r1, #32
      horizontalAccuracy = extractLong(28);
   d51f2:	f8c2 00e8 	str.w	r0, [r2, #232]	; 0xe8
      verticalAccuracy = extractLong(32);
   d51f6:	4610      	mov	r0, r2
   d51f8:	f7ff fed1 	bl	d4f9e <_ZN13SFE_UBLOX_GPS11extractLongEh>
      moduleQueried.gpsiTOW = true; // this can arrive via HPPOS too.
   d51fc:	f892 3398 	ldrb.w	r3, [r2, #920]	; 0x398
      verticalAccuracy = extractLong(32);
   d5200:	f8c2 00ec 	str.w	r0, [r2, #236]	; 0xec
      moduleQueried.gpsiTOW = true; // this can arrive via HPPOS too.
   d5204:	f043 0301 	orr.w	r3, r3, #1
   d5208:	f882 3398 	strb.w	r3, [r2, #920]	; 0x398
      highResModuleQueried.all = true;
   d520c:	f8b2 33a0 	ldrh.w	r3, [r2, #928]	; 0x3a0
   d5210:	f443 53ff 	orr.w	r3, r3, #8160	; 0x1fe0
   d5214:	f043 031d 	orr.w	r3, r3, #29
   d5218:	f8a2 33a0 	strh.w	r3, [r2, #928]	; 0x3a0
   d521c:	e6d8      	b.n	d4fd0 <_ZN13SFE_UBLOX_GPS16processUBXpacketEP9ubxPacket+0x10>
    else if (msg->id == UBX_NAV_DOP && msg->len == 18)
   d521e:	4961      	ldr	r1, [pc, #388]	; (d53a4 <_ZN13SFE_UBLOX_GPS16processUBXpacketEP9ubxPacket+0x3e4>)
   d5220:	428b      	cmp	r3, r1
   d5222:	f47f aed5 	bne.w	d4fd0 <_ZN13SFE_UBLOX_GPS16processUBXpacketEP9ubxPacket+0x10>
  val |= (uint16_t)payloadCfg[spotToStart + 1] << 8 * 1;
   d5226:	f890 1252 	ldrb.w	r1, [r0, #594]	; 0x252
   d522a:	f890 3251 	ldrb.w	r3, [r0, #593]	; 0x251
   d522e:	ea43 2301 	orr.w	r3, r3, r1, lsl #8
      geometricDOP = extractInt(4);
   d5232:	f8a0 30f6 	strh.w	r3, [r0, #246]	; 0xf6
  val |= (uint16_t)payloadCfg[spotToStart + 1] << 8 * 1;
   d5236:	f890 1254 	ldrb.w	r1, [r0, #596]	; 0x254
   d523a:	f890 3253 	ldrb.w	r3, [r0, #595]	; 0x253
   d523e:	ea43 2301 	orr.w	r3, r3, r1, lsl #8
      positionDOP = extractInt(6);
   d5242:	f8a0 30f8 	strh.w	r3, [r0, #248]	; 0xf8
  val |= (uint16_t)payloadCfg[spotToStart + 1] << 8 * 1;
   d5246:	f890 1256 	ldrb.w	r1, [r0, #598]	; 0x256
   d524a:	f890 3255 	ldrb.w	r3, [r0, #597]	; 0x255
   d524e:	ea43 2301 	orr.w	r3, r3, r1, lsl #8
      timeDOP = extractInt(8);
   d5252:	f8a0 30fa 	strh.w	r3, [r0, #250]	; 0xfa
  val |= (uint16_t)payloadCfg[spotToStart + 1] << 8 * 1;
   d5256:	f890 1258 	ldrb.w	r1, [r0, #600]	; 0x258
   d525a:	f890 3257 	ldrb.w	r3, [r0, #599]	; 0x257
   d525e:	ea43 2301 	orr.w	r3, r3, r1, lsl #8
      verticalDOP = extractInt(10);
   d5262:	f8a0 30fc 	strh.w	r3, [r0, #252]	; 0xfc
  val |= (uint16_t)payloadCfg[spotToStart + 1] << 8 * 1;
   d5266:	f890 125a 	ldrb.w	r1, [r0, #602]	; 0x25a
   d526a:	f890 3259 	ldrb.w	r3, [r0, #601]	; 0x259
   d526e:	ea43 2301 	orr.w	r3, r3, r1, lsl #8
      horizontalDOP = extractInt(12);
   d5272:	f8a0 30fe 	strh.w	r3, [r0, #254]	; 0xfe
  val |= (uint16_t)payloadCfg[spotToStart + 1] << 8 * 1;
   d5276:	f890 125c 	ldrb.w	r1, [r0, #604]	; 0x25c
   d527a:	f890 325b 	ldrb.w	r3, [r0, #603]	; 0x25b
   d527e:	ea43 2301 	orr.w	r3, r3, r1, lsl #8
      northingDOP = extractInt(14);
   d5282:	f8a0 3100 	strh.w	r3, [r0, #256]	; 0x100
  val |= (uint16_t)payloadCfg[spotToStart + 1] << 8 * 1;
   d5286:	f890 125e 	ldrb.w	r1, [r0, #606]	; 0x25e
   d528a:	f890 325d 	ldrb.w	r3, [r0, #605]	; 0x25d
   d528e:	ea43 2301 	orr.w	r3, r3, r1, lsl #8
      eastingDOP = extractInt(16);
   d5292:	f8a0 3102 	strh.w	r3, [r0, #258]	; 0x102
      dopModuleQueried.all = true;
   d5296:	23ff      	movs	r3, #255	; 0xff
   d5298:	f880 33a2 	strb.w	r3, [r0, #930]	; 0x3a2
   d529c:	e698      	b.n	d4fd0 <_ZN13SFE_UBLOX_GPS16processUBXpacketEP9ubxPacket+0x10>
    if (msg->id == UBX_HNR_ATT && msg->len == 32)
   d529e:	680b      	ldr	r3, [r1, #0]
   d52a0:	4941      	ldr	r1, [pc, #260]	; (d53a8 <_ZN13SFE_UBLOX_GPS16processUBXpacketEP9ubxPacket+0x3e8>)
   d52a2:	f023 03ff 	bic.w	r3, r3, #255	; 0xff
   d52a6:	428b      	cmp	r3, r1
   d52a8:	d12c      	bne.n	d5304 <_ZN13SFE_UBLOX_GPS16processUBXpacketEP9ubxPacket+0x344>
      hnrAtt.iTOW = extractLong(0);
   d52aa:	2100      	movs	r1, #0
   d52ac:	f7ff fe77 	bl	d4f9e <_ZN13SFE_UBLOX_GPS11extractLongEh>
  unsignedSigned.unsignedLong = extractLong(spotToStart);
   d52b0:	2108      	movs	r1, #8
      hnrAtt.iTOW = extractLong(0);
   d52b2:	f8c2 01a8 	str.w	r0, [r2, #424]	; 0x1a8
  unsignedSigned.unsignedLong = extractLong(spotToStart);
   d52b6:	4610      	mov	r0, r2
   d52b8:	f7ff fe71 	bl	d4f9e <_ZN13SFE_UBLOX_GPS11extractLongEh>
   d52bc:	210c      	movs	r1, #12
      hnrAtt.roll = extractSignedLong(8);
   d52be:	f8c2 01ac 	str.w	r0, [r2, #428]	; 0x1ac
  unsignedSigned.unsignedLong = extractLong(spotToStart);
   d52c2:	4610      	mov	r0, r2
   d52c4:	f7ff fe6b 	bl	d4f9e <_ZN13SFE_UBLOX_GPS11extractLongEh>
   d52c8:	2110      	movs	r1, #16
      hnrAtt.pitch = extractSignedLong(12);
   d52ca:	f8c2 01b0 	str.w	r0, [r2, #432]	; 0x1b0
  unsignedSigned.unsignedLong = extractLong(spotToStart);
   d52ce:	4610      	mov	r0, r2
   d52d0:	f7ff fe65 	bl	d4f9e <_ZN13SFE_UBLOX_GPS11extractLongEh>
      hnrAtt.accRoll = extractLong(20);
   d52d4:	2114      	movs	r1, #20
      hnrAtt.heading = extractSignedLong(16);
   d52d6:	f8c2 01b4 	str.w	r0, [r2, #436]	; 0x1b4
      hnrAtt.accRoll = extractLong(20);
   d52da:	4610      	mov	r0, r2
   d52dc:	f7ff fe5f 	bl	d4f9e <_ZN13SFE_UBLOX_GPS11extractLongEh>
      hnrAtt.accPitch = extractLong(24);
   d52e0:	2118      	movs	r1, #24
      hnrAtt.accRoll = extractLong(20);
   d52e2:	f8c2 01b8 	str.w	r0, [r2, #440]	; 0x1b8
      hnrAtt.accPitch = extractLong(24);
   d52e6:	4610      	mov	r0, r2
   d52e8:	f7ff fe59 	bl	d4f9e <_ZN13SFE_UBLOX_GPS11extractLongEh>
      hnrAtt.accHeading = extractLong(28);
   d52ec:	211c      	movs	r1, #28
      hnrAtt.accPitch = extractLong(24);
   d52ee:	f8c2 01bc 	str.w	r0, [r2, #444]	; 0x1bc
      hnrAtt.accHeading = extractLong(28);
   d52f2:	4610      	mov	r0, r2
   d52f4:	f7ff fe53 	bl	d4f9e <_ZN13SFE_UBLOX_GPS11extractLongEh>
      hnrAttQueried = true;
   d52f8:	2301      	movs	r3, #1
      hnrAtt.accHeading = extractLong(28);
   d52fa:	f8c2 01c0 	str.w	r0, [r2, #448]	; 0x1c0
      hnrAttQueried = true;
   d52fe:	f882 33a4 	strb.w	r3, [r2, #932]	; 0x3a4
   d5302:	e665      	b.n	d4fd0 <_ZN13SFE_UBLOX_GPS16processUBXpacketEP9ubxPacket+0x10>
    else if (msg->id == UBX_HNR_INS && msg->len == 36)
   d5304:	4929      	ldr	r1, [pc, #164]	; (d53ac <_ZN13SFE_UBLOX_GPS16processUBXpacketEP9ubxPacket+0x3ec>)
   d5306:	428b      	cmp	r3, r1
   d5308:	d152      	bne.n	d53b0 <_ZN13SFE_UBLOX_GPS16processUBXpacketEP9ubxPacket+0x3f0>
      hnrVehDyn.iTOW = extractLong(8);
   d530a:	2108      	movs	r1, #8
   d530c:	f7ff fe47 	bl	d4f9e <_ZN13SFE_UBLOX_GPS11extractLongEh>
  unsignedSigned.unsignedLong = extractLong(spotToStart);
   d5310:	210c      	movs	r1, #12
      hnrVehDyn.iTOW = extractLong(8);
   d5312:	f8c2 01cc 	str.w	r0, [r2, #460]	; 0x1cc
  unsignedSigned.unsignedLong = extractLong(spotToStart);
   d5316:	4610      	mov	r0, r2
   d5318:	f7ff fe41 	bl	d4f9e <_ZN13SFE_UBLOX_GPS11extractLongEh>
   d531c:	2110      	movs	r1, #16
      hnrVehDyn.xAngRate = extractSignedLong(12);
   d531e:	f8c2 01d0 	str.w	r0, [r2, #464]	; 0x1d0
  unsignedSigned.unsignedLong = extractLong(spotToStart);
   d5322:	4610      	mov	r0, r2
   d5324:	f7ff fe3b 	bl	d4f9e <_ZN13SFE_UBLOX_GPS11extractLongEh>
   d5328:	2114      	movs	r1, #20
      hnrVehDyn.yAngRate = extractSignedLong(16);
   d532a:	f8c2 01d4 	str.w	r0, [r2, #468]	; 0x1d4
  unsignedSigned.unsignedLong = extractLong(spotToStart);
   d532e:	4610      	mov	r0, r2
   d5330:	f7ff fe35 	bl	d4f9e <_ZN13SFE_UBLOX_GPS11extractLongEh>
   d5334:	2118      	movs	r1, #24
      hnrVehDyn.zAngRate = extractSignedLong(20);
   d5336:	f8c2 01d8 	str.w	r0, [r2, #472]	; 0x1d8
  unsignedSigned.unsignedLong = extractLong(spotToStart);
   d533a:	4610      	mov	r0, r2
   d533c:	f7ff fe2f 	bl	d4f9e <_ZN13SFE_UBLOX_GPS11extractLongEh>
   d5340:	211c      	movs	r1, #28
      hnrVehDyn.xAccel = extractSignedLong(24);
   d5342:	f8c2 01dc 	str.w	r0, [r2, #476]	; 0x1dc
  unsignedSigned.unsignedLong = extractLong(spotToStart);
   d5346:	4610      	mov	r0, r2
   d5348:	f7ff fe29 	bl	d4f9e <_ZN13SFE_UBLOX_GPS11extractLongEh>
   d534c:	2120      	movs	r1, #32
      hnrVehDyn.yAccel = extractSignedLong(28);
   d534e:	f8c2 01e0 	str.w	r0, [r2, #480]	; 0x1e0
  unsignedSigned.unsignedLong = extractLong(spotToStart);
   d5352:	4610      	mov	r0, r2
   d5354:	f7ff fe23 	bl	d4f9e <_ZN13SFE_UBLOX_GPS11extractLongEh>
      uint32_t bitfield0 = extractLong(0);
   d5358:	2100      	movs	r1, #0
      hnrVehDyn.zAccel = extractSignedLong(32);
   d535a:	f8c2 01e4 	str.w	r0, [r2, #484]	; 0x1e4
      uint32_t bitfield0 = extractLong(0);
   d535e:	4610      	mov	r0, r2
   d5360:	f7ff fe1d 	bl	d4f9e <_ZN13SFE_UBLOX_GPS11extractLongEh>
      hnrVehDyn.xAngRateValid = (bitfield0 & 0x00000100) > 0;
   d5364:	f3c0 2300 	ubfx	r3, r0, #8, #1
   d5368:	f882 31c4 	strb.w	r3, [r2, #452]	; 0x1c4
      hnrVehDyn.yAngRateValid = (bitfield0 & 0x00000200) > 0;
   d536c:	f3c0 2340 	ubfx	r3, r0, #9, #1
   d5370:	f882 31c5 	strb.w	r3, [r2, #453]	; 0x1c5
      hnrVehDyn.zAngRateValid = (bitfield0 & 0x00000400) > 0;
   d5374:	f3c0 2380 	ubfx	r3, r0, #10, #1
   d5378:	f882 31c6 	strb.w	r3, [r2, #454]	; 0x1c6
      hnrVehDyn.xAccelValid = (bitfield0 & 0x00000800) > 0;
   d537c:	f3c0 23c0 	ubfx	r3, r0, #11, #1
   d5380:	f882 31c7 	strb.w	r3, [r2, #455]	; 0x1c7
      hnrVehDyn.yAccelValid = (bitfield0 & 0x00001000) > 0;
   d5384:	f3c0 3300 	ubfx	r3, r0, #12, #1
   d5388:	f882 31c8 	strb.w	r3, [r2, #456]	; 0x1c8
      hnrVehDyn.zAccelValid = (bitfield0 & 0x00002000) > 0;
   d538c:	f3c0 3040 	ubfx	r0, r0, #13, #1
      hnrDynQueried = true;
   d5390:	2301      	movs	r3, #1
      hnrVehDyn.zAccelValid = (bitfield0 & 0x00002000) > 0;
   d5392:	f882 01c9 	strb.w	r0, [r2, #457]	; 0x1c9
      hnrDynQueried = true;
   d5396:	f882 33a5 	strb.w	r3, [r2, #933]	; 0x3a5
   d539a:	e619      	b.n	d4fd0 <_ZN13SFE_UBLOX_GPS16processUBXpacketEP9ubxPacket+0x10>
   d539c:	005c0700 	.word	0x005c0700
   d53a0:	00241400 	.word	0x00241400
   d53a4:	00120400 	.word	0x00120400
   d53a8:	00200100 	.word	0x00200100
   d53ac:	00240200 	.word	0x00240200
    else if (msg->id == UBX_HNR_PVT && msg->len == 72)
   d53b0:	f5b3 0f90 	cmp.w	r3, #4718592	; 0x480000
   d53b4:	f47f ae0c 	bne.w	d4fd0 <_ZN13SFE_UBLOX_GPS16processUBXpacketEP9ubxPacket+0x10>
      hnrPVT.iTOW = extractLong(0);
   d53b8:	2100      	movs	r1, #0
   d53ba:	f7ff fdf0 	bl	d4f9e <_ZN13SFE_UBLOX_GPS11extractLongEh>
  val |= (uint16_t)payloadCfg[spotToStart + 1] << 8 * 1;
   d53be:	f892 1252 	ldrb.w	r1, [r2, #594]	; 0x252
   d53c2:	f892 3251 	ldrb.w	r3, [r2, #593]	; 0x251
      hnrPVT.iTOW = extractLong(0);
   d53c6:	f8c2 01e8 	str.w	r0, [r2, #488]	; 0x1e8
  val |= (uint16_t)payloadCfg[spotToStart + 1] << 8 * 1;
   d53ca:	ea43 2301 	orr.w	r3, r3, r1, lsl #8
      hnrPVT.year = extractInt(4);
   d53ce:	f8a2 31ec 	strh.w	r3, [r2, #492]	; 0x1ec
      hnrPVT.month = extractByte(6);
   d53d2:	f892 3253 	ldrb.w	r3, [r2, #595]	; 0x253
   d53d6:	f882 31ee 	strb.w	r3, [r2, #494]	; 0x1ee
      hnrPVT.day = extractByte(7);
   d53da:	f892 3254 	ldrb.w	r3, [r2, #596]	; 0x254
   d53de:	f882 31ef 	strb.w	r3, [r2, #495]	; 0x1ef
      hnrPVT.hour = extractByte(8);
   d53e2:	f892 3255 	ldrb.w	r3, [r2, #597]	; 0x255
   d53e6:	f882 31f0 	strb.w	r3, [r2, #496]	; 0x1f0
      hnrPVT.min = extractByte(9);
   d53ea:	f892 3256 	ldrb.w	r3, [r2, #598]	; 0x256
   d53ee:	f882 31f1 	strb.w	r3, [r2, #497]	; 0x1f1
      hnrPVT.sec = extractByte(10);
   d53f2:	f892 3257 	ldrb.w	r3, [r2, #599]	; 0x257
   d53f6:	f882 31f2 	strb.w	r3, [r2, #498]	; 0x1f2
  unsignedSigned.unsignedLong = extractLong(spotToStart);
   d53fa:	4610      	mov	r0, r2
   d53fc:	210c      	movs	r1, #12
   d53fe:	f7ff fdce 	bl	d4f9e <_ZN13SFE_UBLOX_GPS11extractLongEh>
      hnrPVT.gpsFix = extractByte(16);
   d5402:	f892 325d 	ldrb.w	r3, [r2, #605]	; 0x25d
   d5406:	f882 31fc 	strb.w	r3, [r2, #508]	; 0x1fc
      hnrPVT.nano = extractSignedLong(12);
   d540a:	f8c2 01f8 	str.w	r0, [r2, #504]	; 0x1f8
  unsignedSigned.unsignedLong = extractLong(spotToStart);
   d540e:	2114      	movs	r1, #20
   d5410:	4610      	mov	r0, r2
   d5412:	f7ff fdc4 	bl	d4f9e <_ZN13SFE_UBLOX_GPS11extractLongEh>
   d5416:	2118      	movs	r1, #24
      hnrPVT.lon = extractSignedLong(20);
   d5418:	f8c2 0204 	str.w	r0, [r2, #516]	; 0x204
  unsignedSigned.unsignedLong = extractLong(spotToStart);
   d541c:	4610      	mov	r0, r2
   d541e:	f7ff fdbe 	bl	d4f9e <_ZN13SFE_UBLOX_GPS11extractLongEh>
   d5422:	211c      	movs	r1, #28
      hnrPVT.lat = extractSignedLong(24);
   d5424:	f8c2 0208 	str.w	r0, [r2, #520]	; 0x208
  unsignedSigned.unsignedLong = extractLong(spotToStart);
   d5428:	4610      	mov	r0, r2
   d542a:	f7ff fdb8 	bl	d4f9e <_ZN13SFE_UBLOX_GPS11extractLongEh>
   d542e:	2120      	movs	r1, #32
      hnrPVT.height = extractSignedLong(28);
   d5430:	f8c2 020c 	str.w	r0, [r2, #524]	; 0x20c
  unsignedSigned.unsignedLong = extractLong(spotToStart);
   d5434:	4610      	mov	r0, r2
   d5436:	f7ff fdb2 	bl	d4f9e <_ZN13SFE_UBLOX_GPS11extractLongEh>
   d543a:	2124      	movs	r1, #36	; 0x24
      hnrPVT.hMSL = extractSignedLong(32);
   d543c:	f8c2 0210 	str.w	r0, [r2, #528]	; 0x210
  unsignedSigned.unsignedLong = extractLong(spotToStart);
   d5440:	4610      	mov	r0, r2
   d5442:	f7ff fdac 	bl	d4f9e <_ZN13SFE_UBLOX_GPS11extractLongEh>
   d5446:	4621      	mov	r1, r4
      hnrPVT.gSpeed = extractSignedLong(36);
   d5448:	f8c2 0214 	str.w	r0, [r2, #532]	; 0x214
  unsignedSigned.unsignedLong = extractLong(spotToStart);
   d544c:	4610      	mov	r0, r2
   d544e:	f7ff fda6 	bl	d4f9e <_ZN13SFE_UBLOX_GPS11extractLongEh>
   d5452:	212c      	movs	r1, #44	; 0x2c
      hnrPVT.speed = extractSignedLong(40);
   d5454:	f8c2 0218 	str.w	r0, [r2, #536]	; 0x218
  unsignedSigned.unsignedLong = extractLong(spotToStart);
   d5458:	4610      	mov	r0, r2
   d545a:	f7ff fda0 	bl	d4f9e <_ZN13SFE_UBLOX_GPS11extractLongEh>
   d545e:	2130      	movs	r1, #48	; 0x30
      hnrPVT.headMot = extractSignedLong(44);
   d5460:	f8c2 021c 	str.w	r0, [r2, #540]	; 0x21c
  unsignedSigned.unsignedLong = extractLong(spotToStart);
   d5464:	4610      	mov	r0, r2
   d5466:	f7ff fd9a 	bl	d4f9e <_ZN13SFE_UBLOX_GPS11extractLongEh>
      hnrPVT.hAcc = extractLong(52);
   d546a:	2134      	movs	r1, #52	; 0x34
      hnrPVT.headVeh = extractSignedLong(48);
   d546c:	f8c2 0220 	str.w	r0, [r2, #544]	; 0x220
      hnrPVT.hAcc = extractLong(52);
   d5470:	4610      	mov	r0, r2
   d5472:	f7ff fd94 	bl	d4f9e <_ZN13SFE_UBLOX_GPS11extractLongEh>
      hnrPVT.vAcc = extractLong(56);
   d5476:	2138      	movs	r1, #56	; 0x38
      hnrPVT.hAcc = extractLong(52);
   d5478:	f8c2 0224 	str.w	r0, [r2, #548]	; 0x224
      hnrPVT.vAcc = extractLong(56);
   d547c:	4610      	mov	r0, r2
   d547e:	f7ff fd8e 	bl	d4f9e <_ZN13SFE_UBLOX_GPS11extractLongEh>
      hnrPVT.sAcc = extractLong(60);
   d5482:	213c      	movs	r1, #60	; 0x3c
      hnrPVT.vAcc = extractLong(56);
   d5484:	f8c2 0228 	str.w	r0, [r2, #552]	; 0x228
      hnrPVT.sAcc = extractLong(60);
   d5488:	4610      	mov	r0, r2
   d548a:	f7ff fd88 	bl	d4f9e <_ZN13SFE_UBLOX_GPS11extractLongEh>
      hnrPVT.headAcc = extractLong(64);
   d548e:	2140      	movs	r1, #64	; 0x40
      hnrPVT.sAcc = extractLong(60);
   d5490:	f8c2 022c 	str.w	r0, [r2, #556]	; 0x22c
      hnrPVT.headAcc = extractLong(64);
   d5494:	4610      	mov	r0, r2
   d5496:	f7ff fd82 	bl	d4f9e <_ZN13SFE_UBLOX_GPS11extractLongEh>
  return (payloadCfg[spotToStart]);
   d549a:	f892 3258 	ldrb.w	r3, [r2, #600]	; 0x258
      hnrPVT.headAcc = extractLong(64);
   d549e:	f8c2 0230 	str.w	r0, [r2, #560]	; 0x230
      hnrPVT.validDate = (valid & 0x01) > 0;
   d54a2:	f003 0101 	and.w	r1, r3, #1
   d54a6:	f882 11f3 	strb.w	r1, [r2, #499]	; 0x1f3
      hnrPVT.validTime = (valid & 0x02) > 0;
   d54aa:	f3c3 0140 	ubfx	r1, r3, #1, #1
      hnrPVT.fullyResolved = (valid & 0x04) > 0;
   d54ae:	f3c3 0380 	ubfx	r3, r3, #2, #1
   d54b2:	f882 31f5 	strb.w	r3, [r2, #501]	; 0x1f5
  return (payloadCfg[spotToStart]);
   d54b6:	f892 325e 	ldrb.w	r3, [r2, #606]	; 0x25e
      hnrPVT.validTime = (valid & 0x02) > 0;
   d54ba:	f882 11f4 	strb.w	r1, [r2, #500]	; 0x1f4
      hnrPVT.gpsFixOK = (flags & 0x01) > 0;
   d54be:	f003 0101 	and.w	r1, r3, #1
   d54c2:	f882 11fd 	strb.w	r1, [r2, #509]	; 0x1fd
      hnrPVT.diffSoln = (flags & 0x02) > 0;
   d54c6:	f3c3 0140 	ubfx	r1, r3, #1, #1
   d54ca:	f882 11fe 	strb.w	r1, [r2, #510]	; 0x1fe
      hnrPVT.WKNSET = (flags & 0x04) > 0;
   d54ce:	f3c3 0180 	ubfx	r1, r3, #2, #1
   d54d2:	f882 11ff 	strb.w	r1, [r2, #511]	; 0x1ff
      hnrPVT.TOWSET = (flags & 0x08) > 0;
   d54d6:	f3c3 01c0 	ubfx	r1, r3, #3, #1
      hnrPVT.headVehValid = (flags & 0x10) > 0;
   d54da:	f3c3 1300 	ubfx	r3, r3, #4, #1
      hnrPVT.TOWSET = (flags & 0x08) > 0;
   d54de:	f882 1200 	strb.w	r1, [r2, #512]	; 0x200
      hnrPVT.headVehValid = (flags & 0x10) > 0;
   d54e2:	f882 3201 	strb.w	r3, [r2, #513]	; 0x201
      hnrPVTQueried = true;
   d54e6:	2301      	movs	r3, #1
   d54e8:	f882 33a6 	strb.w	r3, [r2, #934]	; 0x3a6
}
   d54ec:	e570      	b.n	d4fd0 <_ZN13SFE_UBLOX_GPS16processUBXpacketEP9ubxPacket+0x10>
   d54ee:	bf00      	nop

000d54f0 <_ZN5Print5printIhLi0EEEjT_i>:

template <typename T, std::enable_if_t<!std::is_base_of<Printable, T>::value && (std::is_integral<T>::value || std::is_convertible<T, unsigned long long>::value ||
    std::is_convertible<T, long long>::value), int>>
size_t Print::print(T n, int base)
{
    if (base == 0) {
   d54f0:	b912      	cbnz	r2, d54f8 <_ZN5Print5printIhLi0EEEjT_i+0x8>
        return write(n);
   d54f2:	6803      	ldr	r3, [r0, #0]
   d54f4:	689b      	ldr	r3, [r3, #8]
   d54f6:	4718      	bx	r3
            val = n;
        }
#if __GNUC__ >= 9
#pragma GCC diagnostic pop
#endif // __GNUC__ >= 9
        return printNumber(val, base) + t;
   d54f8:	b2d2      	uxtb	r2, r2
   d54fa:	f002 b9fc 	b.w	d78f6 <_ZN5Print11printNumberEmh>
	...

000d5500 <_ZN13SFE_UBLOX_GPS11printPacketEP9ubxPacket>:
{
   d5500:	b5f8      	push	{r3, r4, r5, r6, r7, lr}
  if (_printDebug == true)
   d5502:	f890 3249 	ldrb.w	r3, [r0, #585]	; 0x249
{
   d5506:	4604      	mov	r4, r0
   d5508:	460d      	mov	r5, r1
  if (_printDebug == true)
   d550a:	2b00      	cmp	r3, #0
   d550c:	d07c      	beq.n	d5608 <_ZN13SFE_UBLOX_GPS11printPacketEP9ubxPacket+0x108>
    _debugSerial->print(F("CLS:"));
   d550e:	493f      	ldr	r1, [pc, #252]	; (d560c <_ZN13SFE_UBLOX_GPS11printPacketEP9ubxPacket+0x10c>)
   d5510:	f8d0 0244 	ldr.w	r0, [r0, #580]	; 0x244
   d5514:	f002 f9d3 	bl	d78be <_ZN5Print5printEPK19__FlashStringHelper>
    if (packet->cls == UBX_CLASS_NAV) //1
   d5518:	782b      	ldrb	r3, [r5, #0]
   d551a:	2b01      	cmp	r3, #1
   d551c:	d139      	bne.n	d5592 <_ZN13SFE_UBLOX_GPS11printPacketEP9ubxPacket+0x92>
      _debugSerial->print(F("NAV"));
   d551e:	493c      	ldr	r1, [pc, #240]	; (d5610 <_ZN13SFE_UBLOX_GPS11printPacketEP9ubxPacket+0x110>)
   d5520:	f8d4 0244 	ldr.w	r0, [r4, #580]	; 0x244
      _debugSerial->print(F("ACK"));
   d5524:	f002 f9cb 	bl	d78be <_ZN5Print5printEPK19__FlashStringHelper>
    _debugSerial->print(F(" ID:"));
   d5528:	493a      	ldr	r1, [pc, #232]	; (d5614 <_ZN13SFE_UBLOX_GPS11printPacketEP9ubxPacket+0x114>)
   d552a:	f8d4 0244 	ldr.w	r0, [r4, #580]	; 0x244
   d552e:	f002 f9c6 	bl	d78be <_ZN5Print5printEPK19__FlashStringHelper>
    if (packet->cls == UBX_CLASS_NAV && packet->id == UBX_NAV_PVT)
   d5532:	882b      	ldrh	r3, [r5, #0]
   d5534:	f240 7201 	movw	r2, #1793	; 0x701
   d5538:	4293      	cmp	r3, r2
   d553a:	d142      	bne.n	d55c2 <_ZN13SFE_UBLOX_GPS11printPacketEP9ubxPacket+0xc2>
      _debugSerial->print(F("PVT"));
   d553c:	4936      	ldr	r1, [pc, #216]	; (d5618 <_ZN13SFE_UBLOX_GPS11printPacketEP9ubxPacket+0x118>)
   d553e:	f8d4 0244 	ldr.w	r0, [r4, #580]	; 0x244
      _debugSerial->print(F("RATE"));
   d5542:	f002 f9bc 	bl	d78be <_ZN5Print5printEPK19__FlashStringHelper>
    _debugSerial->print(F(" Len: 0x"));
   d5546:	4935      	ldr	r1, [pc, #212]	; (d561c <_ZN13SFE_UBLOX_GPS11printPacketEP9ubxPacket+0x11c>)
   d5548:	f8d4 0244 	ldr.w	r0, [r4, #580]	; 0x244
   d554c:	f002 f9b7 	bl	d78be <_ZN5Print5printEPK19__FlashStringHelper>
   d5550:	8869      	ldrh	r1, [r5, #2]
   d5552:	f8d4 0244 	ldr.w	r0, [r4, #580]	; 0x244
   d5556:	2210      	movs	r2, #16
   d5558:	f002 f9cd 	bl	d78f6 <_ZN5Print11printNumberEmh>
    if (ignoreThisPayload == false)
   d555c:	f894 6380 	ldrb.w	r6, [r4, #896]	; 0x380
   d5560:	2e00      	cmp	r6, #0
   d5562:	d146      	bne.n	d55f2 <_ZN13SFE_UBLOX_GPS11printPacketEP9ubxPacket+0xf2>
      _debugSerial->print(F(" Payload:"));
   d5564:	492e      	ldr	r1, [pc, #184]	; (d5620 <_ZN13SFE_UBLOX_GPS11printPacketEP9ubxPacket+0x120>)
   d5566:	f8d4 0244 	ldr.w	r0, [r4, #580]	; 0x244
        _debugSerial->print(F(" "));
   d556a:	4f2e      	ldr	r7, [pc, #184]	; (d5624 <_ZN13SFE_UBLOX_GPS11printPacketEP9ubxPacket+0x124>)
      _debugSerial->print(F(" Payload:"));
   d556c:	f002 f9a7 	bl	d78be <_ZN5Print5printEPK19__FlashStringHelper>
      for (int x = 0; x < packet->len; x++)
   d5570:	886b      	ldrh	r3, [r5, #2]
   d5572:	f8d4 0244 	ldr.w	r0, [r4, #580]	; 0x244
   d5576:	42b3      	cmp	r3, r6
   d5578:	dd40      	ble.n	d55fc <_ZN13SFE_UBLOX_GPS11printPacketEP9ubxPacket+0xfc>
        _debugSerial->print(F(" "));
   d557a:	4639      	mov	r1, r7
   d557c:	f002 f99f 	bl	d78be <_ZN5Print5printEPK19__FlashStringHelper>
        _debugSerial->print(packet->payload[x], HEX);
   d5580:	68ab      	ldr	r3, [r5, #8]
   d5582:	f8d4 0244 	ldr.w	r0, [r4, #580]	; 0x244
   d5586:	5d99      	ldrb	r1, [r3, r6]
   d5588:	2210      	movs	r2, #16
   d558a:	f7ff ffb1 	bl	d54f0 <_ZN5Print5printIhLi0EEEjT_i>
      for (int x = 0; x < packet->len; x++)
   d558e:	3601      	adds	r6, #1
   d5590:	e7ee      	b.n	d5570 <_ZN13SFE_UBLOX_GPS11printPacketEP9ubxPacket+0x70>
    else if (packet->cls == UBX_CLASS_ACK) //5
   d5592:	2b05      	cmp	r3, #5
   d5594:	f8d4 0244 	ldr.w	r0, [r4, #580]	; 0x244
   d5598:	d101      	bne.n	d559e <_ZN13SFE_UBLOX_GPS11printPacketEP9ubxPacket+0x9e>
      _debugSerial->print(F("ACK"));
   d559a:	4923      	ldr	r1, [pc, #140]	; (d5628 <_ZN13SFE_UBLOX_GPS11printPacketEP9ubxPacket+0x128>)
   d559c:	e7c2      	b.n	d5524 <_ZN13SFE_UBLOX_GPS11printPacketEP9ubxPacket+0x24>
    else if (packet->cls == UBX_CLASS_CFG) //6
   d559e:	2b06      	cmp	r3, #6
   d55a0:	d101      	bne.n	d55a6 <_ZN13SFE_UBLOX_GPS11printPacketEP9ubxPacket+0xa6>
      _debugSerial->print(F("CFG"));
   d55a2:	4922      	ldr	r1, [pc, #136]	; (d562c <_ZN13SFE_UBLOX_GPS11printPacketEP9ubxPacket+0x12c>)
   d55a4:	e7be      	b.n	d5524 <_ZN13SFE_UBLOX_GPS11printPacketEP9ubxPacket+0x24>
    else if (packet->cls == UBX_CLASS_MON) //0x0A
   d55a6:	2b0a      	cmp	r3, #10
   d55a8:	d101      	bne.n	d55ae <_ZN13SFE_UBLOX_GPS11printPacketEP9ubxPacket+0xae>
      _debugSerial->print(F("MON"));
   d55aa:	4921      	ldr	r1, [pc, #132]	; (d5630 <_ZN13SFE_UBLOX_GPS11printPacketEP9ubxPacket+0x130>)
   d55ac:	e7ba      	b.n	d5524 <_ZN13SFE_UBLOX_GPS11printPacketEP9ubxPacket+0x24>
      _debugSerial->print(F("0x"));
   d55ae:	4921      	ldr	r1, [pc, #132]	; (d5634 <_ZN13SFE_UBLOX_GPS11printPacketEP9ubxPacket+0x134>)
   d55b0:	f002 f985 	bl	d78be <_ZN5Print5printEPK19__FlashStringHelper>
      _debugSerial->print(packet->cls, HEX);
   d55b4:	7829      	ldrb	r1, [r5, #0]
   d55b6:	f8d4 0244 	ldr.w	r0, [r4, #580]	; 0x244
   d55ba:	2210      	movs	r2, #16
   d55bc:	f7ff ff98 	bl	d54f0 <_ZN5Print5printIhLi0EEEjT_i>
   d55c0:	e7b2      	b.n	d5528 <_ZN13SFE_UBLOX_GPS11printPacketEP9ubxPacket+0x28>
    else if (packet->cls == UBX_CLASS_CFG && packet->id == UBX_CFG_RATE)
   d55c2:	f640 0206 	movw	r2, #2054	; 0x806
   d55c6:	4293      	cmp	r3, r2
   d55c8:	f8d4 0244 	ldr.w	r0, [r4, #580]	; 0x244
   d55cc:	d101      	bne.n	d55d2 <_ZN13SFE_UBLOX_GPS11printPacketEP9ubxPacket+0xd2>
      _debugSerial->print(F("RATE"));
   d55ce:	491a      	ldr	r1, [pc, #104]	; (d5638 <_ZN13SFE_UBLOX_GPS11printPacketEP9ubxPacket+0x138>)
   d55d0:	e7b7      	b.n	d5542 <_ZN13SFE_UBLOX_GPS11printPacketEP9ubxPacket+0x42>
    else if (packet->cls == UBX_CLASS_CFG && packet->id == UBX_CFG_CFG)
   d55d2:	f640 1206 	movw	r2, #2310	; 0x906
   d55d6:	4293      	cmp	r3, r2
   d55d8:	d101      	bne.n	d55de <_ZN13SFE_UBLOX_GPS11printPacketEP9ubxPacket+0xde>
      _debugSerial->print(F("SAVE"));
   d55da:	4918      	ldr	r1, [pc, #96]	; (d563c <_ZN13SFE_UBLOX_GPS11printPacketEP9ubxPacket+0x13c>)
   d55dc:	e7b1      	b.n	d5542 <_ZN13SFE_UBLOX_GPS11printPacketEP9ubxPacket+0x42>
      _debugSerial->print(F("0x"));
   d55de:	4915      	ldr	r1, [pc, #84]	; (d5634 <_ZN13SFE_UBLOX_GPS11printPacketEP9ubxPacket+0x134>)
   d55e0:	f002 f96d 	bl	d78be <_ZN5Print5printEPK19__FlashStringHelper>
      _debugSerial->print(packet->id, HEX);
   d55e4:	7869      	ldrb	r1, [r5, #1]
   d55e6:	f8d4 0244 	ldr.w	r0, [r4, #580]	; 0x244
   d55ea:	2210      	movs	r2, #16
   d55ec:	f7ff ff80 	bl	d54f0 <_ZN5Print5printIhLi0EEEjT_i>
   d55f0:	e7a9      	b.n	d5546 <_ZN13SFE_UBLOX_GPS11printPacketEP9ubxPacket+0x46>
      _debugSerial->print(F(" Payload: IGNORED"));
   d55f2:	4913      	ldr	r1, [pc, #76]	; (d5640 <_ZN13SFE_UBLOX_GPS11printPacketEP9ubxPacket+0x140>)
   d55f4:	f8d4 0244 	ldr.w	r0, [r4, #580]	; 0x244
   d55f8:	f002 f961 	bl	d78be <_ZN5Print5printEPK19__FlashStringHelper>
    _debugSerial->println();
   d55fc:	f8d4 0244 	ldr.w	r0, [r4, #580]	; 0x244
}
   d5600:	e8bd 40f8 	ldmia.w	sp!, {r3, r4, r5, r6, r7, lr}
    _debugSerial->println();
   d5604:	f002 b95f 	b.w	d78c6 <_ZN5Print7printlnEv>
}
   d5608:	bdf8      	pop	{r3, r4, r5, r6, r7, pc}
   d560a:	bf00      	nop
   d560c:	000d9ba6 	.word	0x000d9ba6
   d5610:	000d9bab 	.word	0x000d9bab
   d5614:	000d9bbb 	.word	0x000d9bbb
   d5618:	000d9bc0 	.word	0x000d9bc0
   d561c:	000d9bce 	.word	0x000d9bce
   d5620:	000d9bd7 	.word	0x000d9bd7
   d5624:	000da1b6 	.word	0x000da1b6
   d5628:	000d9baf 	.word	0x000d9baf
   d562c:	000d9bb3 	.word	0x000d9bb3
   d5630:	000d9bb7 	.word	0x000d9bb7
   d5634:	000d9c61 	.word	0x000d9c61
   d5638:	000d9bc4 	.word	0x000d9bc4
   d563c:	000d9bc9 	.word	0x000d9bc9
   d5640:	000d9be1 	.word	0x000d9be1

000d5644 <_ZN5Print7printlnIhLi0EEEjT_i>:
    size_t println(T b, int base = DEC) {
   d5644:	b538      	push	{r3, r4, r5, lr}
   d5646:	4605      	mov	r5, r0
        size_t n = print(b, base);
   d5648:	f7ff ff52 	bl	d54f0 <_ZN5Print5printIhLi0EEEjT_i>
   d564c:	4604      	mov	r4, r0
        n += println();
   d564e:	4628      	mov	r0, r5
   d5650:	f002 f939 	bl	d78c6 <_ZN5Print7printlnEv>
    }
   d5654:	4420      	add	r0, r4
   d5656:	bd38      	pop	{r3, r4, r5, pc}

000d5658 <_ZN13SFE_UBLOX_GPS10processUBXEhP9ubxPackethh>:
{
   d5658:	e92d 43f8 	stmdb	sp!, {r3, r4, r5, r6, r7, r8, r9, lr}
   d565c:	4698      	mov	r8, r3
   int max_payload_size = (activePacketBuffer == SFE_UBLOX_PACKET_PACKETCFG) ? MAX_PAYLOAD_SIZE : 2;
   d565e:	f890 3381 	ldrb.w	r3, [r0, #897]	; 0x381
{
   d5662:	f89d 6020 	ldrb.w	r6, [sp, #32]
   int max_payload_size = (activePacketBuffer == SFE_UBLOX_PACKET_PACKETCFG) ? MAX_PAYLOAD_SIZE : 2;
   d5666:	2b00      	cmp	r3, #0
  if (incomingUBX->counter < incomingUBX->len + 4)
   d5668:	8853      	ldrh	r3, [r2, #2]
{
   d566a:	4615      	mov	r5, r2
  if (incomingUBX->counter < incomingUBX->len + 4)
   d566c:	8892      	ldrh	r2, [r2, #4]
   d566e:	f103 0303 	add.w	r3, r3, #3
   int max_payload_size = (activePacketBuffer == SFE_UBLOX_PACKET_PACKETCFG) ? MAX_PAYLOAD_SIZE : 2;
   d5672:	bf0c      	ite	eq
   d5674:	f44f 7980 	moveq.w	r9, #256	; 0x100
   d5678:	f04f 0902 	movne.w	r9, #2
  if (incomingUBX->counter < incomingUBX->len + 4)
   d567c:	4293      	cmp	r3, r2
{
   d567e:	4604      	mov	r4, r0
   d5680:	460f      	mov	r7, r1
  if (incomingUBX->counter < incomingUBX->len + 4)
   d5682:	db01      	blt.n	d5688 <_ZN13SFE_UBLOX_GPS10processUBXEhP9ubxPackethh+0x30>
    addToChecksum(incoming);
   d5684:	f7ff fc7f 	bl	d4f86 <_ZN13SFE_UBLOX_GPS13addToChecksumEh>
  if (incomingUBX->counter == 0)
   d5688:	88aa      	ldrh	r2, [r5, #4]
   d568a:	b912      	cbnz	r2, d5692 <_ZN13SFE_UBLOX_GPS10processUBXEhP9ubxPackethh+0x3a>
    incomingUBX->cls = incoming;
   d568c:	702f      	strb	r7, [r5, #0]
   bool overrun = false;
   d568e:	2600      	movs	r6, #0
   d5690:	e06c      	b.n	d576c <_ZN13SFE_UBLOX_GPS10processUBXEhP9ubxPackethh+0x114>
  else if (incomingUBX->counter == 1)
   d5692:	2a01      	cmp	r2, #1
   d5694:	d101      	bne.n	d569a <_ZN13SFE_UBLOX_GPS10processUBXEhP9ubxPackethh+0x42>
    incomingUBX->id = incoming;
   d5696:	706f      	strb	r7, [r5, #1]
   d5698:	e7f9      	b.n	d568e <_ZN13SFE_UBLOX_GPS10processUBXEhP9ubxPackethh+0x36>
  else if (incomingUBX->counter == 2) //Len LSB
   d569a:	2a02      	cmp	r2, #2
   d569c:	d101      	bne.n	d56a2 <_ZN13SFE_UBLOX_GPS10processUBXEhP9ubxPackethh+0x4a>
    incomingUBX->len = incoming;
   d569e:	806f      	strh	r7, [r5, #2]
   d56a0:	e7f5      	b.n	d568e <_ZN13SFE_UBLOX_GPS10processUBXEhP9ubxPackethh+0x36>
  else if (incomingUBX->counter == 3) //Len MSB
   d56a2:	2a03      	cmp	r2, #3
   d56a4:	8869      	ldrh	r1, [r5, #2]
   d56a6:	d103      	bne.n	d56b0 <_ZN13SFE_UBLOX_GPS10processUBXEhP9ubxPackethh+0x58>
    incomingUBX->len |= incoming << 8;
   d56a8:	ea41 2107 	orr.w	r1, r1, r7, lsl #8
   d56ac:	8069      	strh	r1, [r5, #2]
   d56ae:	e7ee      	b.n	d568e <_ZN13SFE_UBLOX_GPS10processUBXEhP9ubxPackethh+0x36>
  else if (incomingUBX->counter == incomingUBX->len + 4) //ChecksumA
   d56b0:	1d0b      	adds	r3, r1, #4
   d56b2:	429a      	cmp	r2, r3
   d56b4:	d101      	bne.n	d56ba <_ZN13SFE_UBLOX_GPS10processUBXEhP9ubxPackethh+0x62>
    incomingUBX->checksumA = incoming;
   d56b6:	732f      	strb	r7, [r5, #12]
   d56b8:	e7e9      	b.n	d568e <_ZN13SFE_UBLOX_GPS10processUBXEhP9ubxPackethh+0x36>
  else if (incomingUBX->counter == incomingUBX->len + 5) //ChecksumB
   d56ba:	3105      	adds	r1, #5
   d56bc:	428a      	cmp	r2, r1
   d56be:	f040 8155 	bne.w	d596c <_ZN13SFE_UBLOX_GPS10processUBXEhP9ubxPackethh+0x314>
    currentSentence = NONE; //We're done! Reset the sentence to being looking for a new start char
   d56c2:	2200      	movs	r2, #0
    incomingUBX->checksumB = incoming;
   d56c4:	736f      	strb	r7, [r5, #13]
    currentSentence = NONE; //We're done! Reset the sentence to being looking for a new start char
   d56c6:	f884 2234 	strb.w	r2, [r4, #564]	; 0x234
    if ((incomingUBX->checksumA == rollingChecksumA) && (incomingUBX->checksumB == rollingChecksumB))
   d56ca:	f8b4 3396 	ldrh.w	r3, [r4, #918]	; 0x396
   d56ce:	89a9      	ldrh	r1, [r5, #12]
   d56d0:	4299      	cmp	r1, r3
   d56d2:	782b      	ldrb	r3, [r5, #0]
   d56d4:	f040 80df 	bne.w	d5896 <_ZN13SFE_UBLOX_GPS10processUBXEhP9ubxPackethh+0x23e>
      incomingUBX->valid = SFE_UBLOX_PACKET_VALIDITY_VALID; // Flag the packet as valid
   d56d8:	2201      	movs	r2, #1
      if ((incomingUBX->cls == requestedClass) && (incomingUBX->id == requestedID))
   d56da:	4543      	cmp	r3, r8
      incomingUBX->valid = SFE_UBLOX_PACKET_VALIDITY_VALID; // Flag the packet as valid
   d56dc:	73aa      	strb	r2, [r5, #14]
      if ((incomingUBX->cls == requestedClass) && (incomingUBX->id == requestedID))
   d56de:	d163      	bne.n	d57a8 <_ZN13SFE_UBLOX_GPS10processUBXEhP9ubxPackethh+0x150>
   d56e0:	786a      	ldrb	r2, [r5, #1]
   d56e2:	42b2      	cmp	r2, r6
   d56e4:	d160      	bne.n	d57a8 <_ZN13SFE_UBLOX_GPS10processUBXEhP9ubxPackethh+0x150>
        incomingUBX->classAndIDmatch = SFE_UBLOX_PACKET_VALIDITY_VALID; // If we have a match, set the classAndIDmatch flag to valid
   d56e6:	2301      	movs	r3, #1
   d56e8:	73eb      	strb	r3, [r5, #15]
      if (_printDebug == true)
   d56ea:	f894 3249 	ldrb.w	r3, [r4, #585]	; 0x249
   d56ee:	b3ab      	cbz	r3, d575c <_ZN13SFE_UBLOX_GPS10processUBXEhP9ubxPackethh+0x104>
        _debugSerial->print(F("Incoming: Size: "));
   d56f0:	49ac      	ldr	r1, [pc, #688]	; (d59a4 <_ZN13SFE_UBLOX_GPS10processUBXEhP9ubxPackethh+0x34c>)
   d56f2:	f8d4 0244 	ldr.w	r0, [r4, #580]	; 0x244
   d56f6:	f002 f8e2 	bl	d78be <_ZN5Print5printEPK19__FlashStringHelper>
        return printNumber(val, base) + t;
   d56fa:	220a      	movs	r2, #10
   d56fc:	8869      	ldrh	r1, [r5, #2]
   d56fe:	f8d4 0244 	ldr.w	r0, [r4, #580]	; 0x244
   d5702:	f002 f8f8 	bl	d78f6 <_ZN5Print11printNumberEmh>
        _debugSerial->print(F(" Received: "));
   d5706:	49a8      	ldr	r1, [pc, #672]	; (d59a8 <_ZN13SFE_UBLOX_GPS10processUBXEhP9ubxPackethh+0x350>)
   d5708:	f8d4 0244 	ldr.w	r0, [r4, #580]	; 0x244
   d570c:	f002 f8d7 	bl	d78be <_ZN5Print5printEPK19__FlashStringHelper>
        printPacket(incomingUBX);
   d5710:	4629      	mov	r1, r5
   d5712:	4620      	mov	r0, r4
   d5714:	f7ff fef4 	bl	d5500 <_ZN13SFE_UBLOX_GPS11printPacketEP9ubxPacket>
        if (incomingUBX->valid == SFE_UBLOX_PACKET_VALIDITY_VALID)
   d5718:	7bab      	ldrb	r3, [r5, #14]
   d571a:	2b01      	cmp	r3, #1
   d571c:	d104      	bne.n	d5728 <_ZN13SFE_UBLOX_GPS10processUBXEhP9ubxPackethh+0xd0>
          _debugSerial->println(F("packetCfg now valid"));
   d571e:	49a3      	ldr	r1, [pc, #652]	; (d59ac <_ZN13SFE_UBLOX_GPS10processUBXEhP9ubxPackethh+0x354>)
   d5720:	f8d4 0244 	ldr.w	r0, [r4, #580]	; 0x244
   d5724:	f002 f8e5 	bl	d78f2 <_ZN5Print7printlnEPK19__FlashStringHelper>
        if (packetAck.valid == SFE_UBLOX_PACKET_VALIDITY_VALID)
   d5728:	f894 335e 	ldrb.w	r3, [r4, #862]	; 0x35e
   d572c:	2b01      	cmp	r3, #1
   d572e:	d104      	bne.n	d573a <_ZN13SFE_UBLOX_GPS10processUBXEhP9ubxPackethh+0xe2>
          _debugSerial->println(F("packetAck now valid"));
   d5730:	499f      	ldr	r1, [pc, #636]	; (d59b0 <_ZN13SFE_UBLOX_GPS10processUBXEhP9ubxPackethh+0x358>)
   d5732:	f8d4 0244 	ldr.w	r0, [r4, #580]	; 0x244
   d5736:	f002 f8dc 	bl	d78f2 <_ZN5Print7printlnEPK19__FlashStringHelper>
        if (incomingUBX->classAndIDmatch == SFE_UBLOX_PACKET_VALIDITY_VALID)
   d573a:	7beb      	ldrb	r3, [r5, #15]
   d573c:	2b01      	cmp	r3, #1
   d573e:	d104      	bne.n	d574a <_ZN13SFE_UBLOX_GPS10processUBXEhP9ubxPackethh+0xf2>
          _debugSerial->println(F("packetCfg classAndIDmatch"));
   d5740:	499c      	ldr	r1, [pc, #624]	; (d59b4 <_ZN13SFE_UBLOX_GPS10processUBXEhP9ubxPackethh+0x35c>)
   d5742:	f8d4 0244 	ldr.w	r0, [r4, #580]	; 0x244
   d5746:	f002 f8d4 	bl	d78f2 <_ZN5Print7printlnEPK19__FlashStringHelper>
        if (packetAck.classAndIDmatch == SFE_UBLOX_PACKET_VALIDITY_VALID)
   d574a:	f894 335f 	ldrb.w	r3, [r4, #863]	; 0x35f
   d574e:	2b01      	cmp	r3, #1
   d5750:	d104      	bne.n	d575c <_ZN13SFE_UBLOX_GPS10processUBXEhP9ubxPackethh+0x104>
          _debugSerial->println(F("packetAck classAndIDmatch"));
   d5752:	4999      	ldr	r1, [pc, #612]	; (d59b8 <_ZN13SFE_UBLOX_GPS10processUBXEhP9ubxPackethh+0x360>)
   d5754:	f8d4 0244 	ldr.w	r0, [r4, #580]	; 0x244
   d5758:	f002 f8cb 	bl	d78f2 <_ZN5Print7printlnEPK19__FlashStringHelper>
      if (ignoreThisPayload == false)
   d575c:	f894 6380 	ldrb.w	r6, [r4, #896]	; 0x380
   d5760:	2e00      	cmp	r6, #0
   d5762:	d194      	bne.n	d568e <_ZN13SFE_UBLOX_GPS10processUBXEhP9ubxPackethh+0x36>
        processUBXpacket(incomingUBX);
   d5764:	4629      	mov	r1, r5
   d5766:	4620      	mov	r0, r4
   d5768:	f7ff fc2a 	bl	d4fc0 <_ZN13SFE_UBLOX_GPS16processUBXpacketEP9ubxPacket>
  incomingUBX->counter++;
   d576c:	88ab      	ldrh	r3, [r5, #4]
   d576e:	3301      	adds	r3, #1
   d5770:	b29b      	uxth	r3, r3
   d5772:	80ab      	strh	r3, [r5, #4]
  if (overrun || (incomingUBX->counter == MAX_PAYLOAD_SIZE))
   d5774:	b91e      	cbnz	r6, d577e <_ZN13SFE_UBLOX_GPS10processUBXEhP9ubxPackethh+0x126>
   d5776:	f5b3 7f80 	cmp.w	r3, #256	; 0x100
   d577a:	f040 8111 	bne.w	d59a0 <_ZN13SFE_UBLOX_GPS10processUBXEhP9ubxPackethh+0x348>
    currentSentence = NONE; //Reset the sentence to being looking for a new start char
   d577e:	2300      	movs	r3, #0
   d5780:	f884 3234 	strb.w	r3, [r4, #564]	; 0x234
    if ((_printDebug == true) || (_printLimitedDebug == true)) // Print this if doing limited debugging
   d5784:	f894 3249 	ldrb.w	r3, [r4, #585]	; 0x249
   d5788:	b923      	cbnz	r3, d5794 <_ZN13SFE_UBLOX_GPS10processUBXEhP9ubxPackethh+0x13c>
   d578a:	f894 324a 	ldrb.w	r3, [r4, #586]	; 0x24a
   d578e:	2b00      	cmp	r3, #0
   d5790:	f000 8106 	beq.w	d59a0 <_ZN13SFE_UBLOX_GPS10processUBXEhP9ubxPackethh+0x348>
      if (overrun)
   d5794:	f8d4 0244 	ldr.w	r0, [r4, #580]	; 0x244
   d5798:	2e00      	cmp	r6, #0
   d579a:	f000 80ff 	beq.w	d599c <_ZN13SFE_UBLOX_GPS10processUBXEhP9ubxPackethh+0x344>
        _debugSerial->println(F("processUBX: buffer overrun detected"));
   d579e:	4987      	ldr	r1, [pc, #540]	; (d59bc <_ZN13SFE_UBLOX_GPS10processUBXEhP9ubxPackethh+0x364>)
}
   d57a0:	e8bd 43f8 	ldmia.w	sp!, {r3, r4, r5, r6, r7, r8, r9, lr}
        _debugSerial->println(F("processUBX: counter hit MAX_PAYLOAD_SIZE"));
   d57a4:	f002 b8a5 	b.w	d78f2 <_ZN5Print7printlnEPK19__FlashStringHelper>
      else if ((incomingUBX->cls == UBX_CLASS_ACK) && (incomingUBX->id == UBX_ACK_ACK) && (incomingUBX->payload[0] == requestedClass) && (incomingUBX->payload[1] == requestedID))
   d57a8:	882a      	ldrh	r2, [r5, #0]
   d57aa:	f240 1105 	movw	r1, #261	; 0x105
   d57ae:	428a      	cmp	r2, r1
   d57b0:	d126      	bne.n	d5800 <_ZN13SFE_UBLOX_GPS10processUBXEhP9ubxPackethh+0x1a8>
   d57b2:	68aa      	ldr	r2, [r5, #8]
   d57b4:	7811      	ldrb	r1, [r2, #0]
   d57b6:	4541      	cmp	r1, r8
   d57b8:	d102      	bne.n	d57c0 <_ZN13SFE_UBLOX_GPS10processUBXEhP9ubxPackethh+0x168>
   d57ba:	7852      	ldrb	r2, [r2, #1]
   d57bc:	42b2      	cmp	r2, r6
   d57be:	d092      	beq.n	d56e6 <_ZN13SFE_UBLOX_GPS10processUBXEhP9ubxPackethh+0x8e>
      else if ((incomingUBX->cls == requestedClass) &&
   d57c0:	4543      	cmp	r3, r8
   d57c2:	d192      	bne.n	d56ea <_ZN13SFE_UBLOX_GPS10processUBXEhP9ubxPackethh+0x92>
        (((incomingUBX->id == UBX_NAV_PVT) && (requestedID == UBX_NAV_HPPOSLLH || requestedID == UBX_NAV_DOP)) ||
   d57c4:	786b      	ldrb	r3, [r5, #1]
   d57c6:	f894 2249 	ldrb.w	r2, [r4, #585]	; 0x249
      else if ((incomingUBX->cls == requestedClass) &&
   d57ca:	2b07      	cmp	r3, #7
   d57cc:	d140      	bne.n	d5850 <_ZN13SFE_UBLOX_GPS10processUBXEhP9ubxPackethh+0x1f8>
        (((incomingUBX->id == UBX_NAV_PVT) && (requestedID == UBX_NAV_HPPOSLLH || requestedID == UBX_NAV_DOP)) ||
   d57ce:	f006 03ef 	and.w	r3, r6, #239	; 0xef
   d57d2:	2b04      	cmp	r3, #4
        ((incomingUBX->id == UBX_NAV_DOP) && (requestedID == UBX_NAV_PVT || requestedID == UBX_NAV_HPPOSLLH))))
   d57d4:	d189      	bne.n	d56ea <_ZN13SFE_UBLOX_GPS10processUBXEhP9ubxPackethh+0x92>
        if (_printDebug == true)
   d57d6:	2a00      	cmp	r2, #0
   d57d8:	d0c0      	beq.n	d575c <_ZN13SFE_UBLOX_GPS10processUBXEhP9ubxPackethh+0x104>
          _debugSerial->print(F("processUBX: auto NAV PVT/HPPOSLLH/DOP collision: Requested ID: 0x"));
   d57da:	4979      	ldr	r1, [pc, #484]	; (d59c0 <_ZN13SFE_UBLOX_GPS10processUBXEhP9ubxPackethh+0x368>)
           _debugSerial->print(F("processUBX: auto HNR ATT/INS/PVT collision: Requested ID: 0x"));
   d57dc:	f8d4 0244 	ldr.w	r0, [r4, #580]	; 0x244
   d57e0:	f002 f86d 	bl	d78be <_ZN5Print5printEPK19__FlashStringHelper>
           _debugSerial->print(requestedID, HEX);
   d57e4:	2210      	movs	r2, #16
   d57e6:	4631      	mov	r1, r6
   d57e8:	f8d4 0244 	ldr.w	r0, [r4, #580]	; 0x244
   d57ec:	f7ff fe80 	bl	d54f0 <_ZN5Print5printIhLi0EEEjT_i>
           _debugSerial->print(F(" Message ID: 0x"));
   d57f0:	4974      	ldr	r1, [pc, #464]	; (d59c4 <_ZN13SFE_UBLOX_GPS10processUBXEhP9ubxPackethh+0x36c>)
   d57f2:	f8d4 0244 	ldr.w	r0, [r4, #580]	; 0x244
   d57f6:	f002 f862 	bl	d78be <_ZN5Print5printEPK19__FlashStringHelper>
           _debugSerial->println(incomingUBX->id, HEX);
   d57fa:	7869      	ldrb	r1, [r5, #1]
   d57fc:	2210      	movs	r2, #16
   d57fe:	e022      	b.n	d5846 <_ZN13SFE_UBLOX_GPS10processUBXEhP9ubxPackethh+0x1ee>
      else if ((incomingUBX->cls == UBX_CLASS_ACK) && (incomingUBX->id == UBX_ACK_NACK) && (incomingUBX->payload[0] == requestedClass) && (incomingUBX->payload[1] == requestedID))
   d5800:	2a05      	cmp	r2, #5
   d5802:	d1dd      	bne.n	d57c0 <_ZN13SFE_UBLOX_GPS10processUBXEhP9ubxPackethh+0x168>
   d5804:	68aa      	ldr	r2, [r5, #8]
   d5806:	7811      	ldrb	r1, [r2, #0]
   d5808:	4541      	cmp	r1, r8
   d580a:	d1d9      	bne.n	d57c0 <_ZN13SFE_UBLOX_GPS10processUBXEhP9ubxPackethh+0x168>
   d580c:	7852      	ldrb	r2, [r2, #1]
   d580e:	42b2      	cmp	r2, r6
   d5810:	d1d6      	bne.n	d57c0 <_ZN13SFE_UBLOX_GPS10processUBXEhP9ubxPackethh+0x168>
        incomingUBX->classAndIDmatch = SFE_UBLOX_PACKET_NOTACKNOWLEDGED; // If we have a match, set the classAndIDmatch flag to NOTACKNOWLEDGED
   d5812:	2303      	movs	r3, #3
   d5814:	73eb      	strb	r3, [r5, #15]
        if (_printDebug == true)
   d5816:	f894 3249 	ldrb.w	r3, [r4, #585]	; 0x249
   d581a:	2b00      	cmp	r3, #0
   d581c:	d09e      	beq.n	d575c <_ZN13SFE_UBLOX_GPS10processUBXEhP9ubxPackethh+0x104>
          _debugSerial->print(F("processUBX: NACK received: Requested Class: 0x"));
   d581e:	496a      	ldr	r1, [pc, #424]	; (d59c8 <_ZN13SFE_UBLOX_GPS10processUBXEhP9ubxPackethh+0x370>)
   d5820:	f8d4 0244 	ldr.w	r0, [r4, #580]	; 0x244
   d5824:	f002 f84b 	bl	d78be <_ZN5Print5printEPK19__FlashStringHelper>
          _debugSerial->print(incomingUBX->payload[0], HEX);
   d5828:	68ab      	ldr	r3, [r5, #8]
   d582a:	f8d4 0244 	ldr.w	r0, [r4, #580]	; 0x244
   d582e:	7819      	ldrb	r1, [r3, #0]
   d5830:	2210      	movs	r2, #16
   d5832:	f7ff fe5d 	bl	d54f0 <_ZN5Print5printIhLi0EEEjT_i>
          _debugSerial->print(F(" Requested ID: 0x"));
   d5836:	4965      	ldr	r1, [pc, #404]	; (d59cc <_ZN13SFE_UBLOX_GPS10processUBXEhP9ubxPackethh+0x374>)
   d5838:	f8d4 0244 	ldr.w	r0, [r4, #580]	; 0x244
   d583c:	f002 f83f 	bl	d78be <_ZN5Print5printEPK19__FlashStringHelper>
          _debugSerial->println(incomingUBX->payload[1], HEX);
   d5840:	68ab      	ldr	r3, [r5, #8]
   d5842:	7859      	ldrb	r1, [r3, #1]
   d5844:	2210      	movs	r2, #16
           _debugSerial->println(incomingUBX->id, HEX);
   d5846:	f8d4 0244 	ldr.w	r0, [r4, #580]	; 0x244
   d584a:	f7ff fefb 	bl	d5644 <_ZN5Print7printlnIhLi0EEEjT_i>
   d584e:	e74c      	b.n	d56ea <_ZN13SFE_UBLOX_GPS10processUBXEhP9ubxPackethh+0x92>
        (((incomingUBX->id == UBX_NAV_PVT) && (requestedID == UBX_NAV_HPPOSLLH || requestedID == UBX_NAV_DOP)) ||
   d5850:	2b14      	cmp	r3, #20
   d5852:	d103      	bne.n	d585c <_ZN13SFE_UBLOX_GPS10processUBXEhP9ubxPackethh+0x204>
        ((incomingUBX->id == UBX_NAV_HPPOSLLH) && (requestedID == UBX_NAV_PVT || requestedID == UBX_NAV_DOP)) ||
   d5854:	2e07      	cmp	r6, #7
   d5856:	d0be      	beq.n	d57d6 <_ZN13SFE_UBLOX_GPS10processUBXEhP9ubxPackethh+0x17e>
   d5858:	2e04      	cmp	r6, #4
   d585a:	e7bb      	b.n	d57d4 <_ZN13SFE_UBLOX_GPS10processUBXEhP9ubxPackethh+0x17c>
   d585c:	2b04      	cmp	r3, #4
   d585e:	d103      	bne.n	d5868 <_ZN13SFE_UBLOX_GPS10processUBXEhP9ubxPackethh+0x210>
        ((incomingUBX->id == UBX_NAV_DOP) && (requestedID == UBX_NAV_PVT || requestedID == UBX_NAV_HPPOSLLH))))
   d5860:	2e07      	cmp	r6, #7
   d5862:	d0b8      	beq.n	d57d6 <_ZN13SFE_UBLOX_GPS10processUBXEhP9ubxPackethh+0x17e>
   d5864:	2e14      	cmp	r6, #20
   d5866:	e7b5      	b.n	d57d4 <_ZN13SFE_UBLOX_GPS10processUBXEhP9ubxPackethh+0x17c>
      else if ((incomingUBX->cls == requestedClass) &&
   d5868:	2b01      	cmp	r3, #1
   d586a:	d108      	bne.n	d587e <_ZN13SFE_UBLOX_GPS10processUBXEhP9ubxPackethh+0x226>
        (((incomingUBX->id == UBX_HNR_ATT) && (requestedID == UBX_HNR_INS || requestedID == UBX_HNR_PVT)) ||
   d586c:	f016 0ffd 	tst.w	r6, #253	; 0xfd
   d5870:	f47f af3b 	bne.w	d56ea <_ZN13SFE_UBLOX_GPS10processUBXEhP9ubxPackethh+0x92>
         if (_printDebug == true)
   d5874:	2a00      	cmp	r2, #0
   d5876:	f43f af71 	beq.w	d575c <_ZN13SFE_UBLOX_GPS10processUBXEhP9ubxPackethh+0x104>
           _debugSerial->print(F("processUBX: auto HNR ATT/INS/PVT collision: Requested ID: 0x"));
   d587a:	4955      	ldr	r1, [pc, #340]	; (d59d0 <_ZN13SFE_UBLOX_GPS10processUBXEhP9ubxPackethh+0x378>)
   d587c:	e7ae      	b.n	d57dc <_ZN13SFE_UBLOX_GPS10processUBXEhP9ubxPackethh+0x184>
        (((incomingUBX->id == UBX_HNR_ATT) && (requestedID == UBX_HNR_INS || requestedID == UBX_HNR_PVT)) ||
   d587e:	2b02      	cmp	r3, #2
   d5880:	d103      	bne.n	d588a <_ZN13SFE_UBLOX_GPS10processUBXEhP9ubxPackethh+0x232>
         ((incomingUBX->id == UBX_HNR_INS) && (requestedID == UBX_HNR_ATT || requestedID == UBX_HNR_PVT)) ||
   d5882:	2e01      	cmp	r6, #1
         ((incomingUBX->id == UBX_HNR_PVT) && (requestedID == UBX_HNR_ATT || requestedID == UBX_HNR_INS))))
   d5884:	f63f af31 	bhi.w	d56ea <_ZN13SFE_UBLOX_GPS10processUBXEhP9ubxPackethh+0x92>
   d5888:	e7f4      	b.n	d5874 <_ZN13SFE_UBLOX_GPS10processUBXEhP9ubxPackethh+0x21c>
         ((incomingUBX->id == UBX_HNR_INS) && (requestedID == UBX_HNR_ATT || requestedID == UBX_HNR_PVT)) ||
   d588a:	2b00      	cmp	r3, #0
   d588c:	f47f af2d 	bne.w	d56ea <_ZN13SFE_UBLOX_GPS10processUBXEhP9ubxPackethh+0x92>
         ((incomingUBX->id == UBX_HNR_PVT) && (requestedID == UBX_HNR_ATT || requestedID == UBX_HNR_INS))))
   d5890:	1e73      	subs	r3, r6, #1
   d5892:	2b01      	cmp	r3, #1
   d5894:	e7f6      	b.n	d5884 <_ZN13SFE_UBLOX_GPS10processUBXEhP9ubxPackethh+0x22c>
      if ((incomingUBX->cls == requestedClass) && (incomingUBX->id == requestedID))
   d5896:	4543      	cmp	r3, r8
      incomingUBX->valid = SFE_UBLOX_PACKET_VALIDITY_NOT_VALID;
   d5898:	73aa      	strb	r2, [r5, #14]
      if ((incomingUBX->cls == requestedClass) && (incomingUBX->id == requestedID))
   d589a:	d15d      	bne.n	d5958 <_ZN13SFE_UBLOX_GPS10processUBXEhP9ubxPackethh+0x300>
   d589c:	786a      	ldrb	r2, [r5, #1]
   d589e:	42b2      	cmp	r2, r6
   d58a0:	d15a      	bne.n	d5958 <_ZN13SFE_UBLOX_GPS10processUBXEhP9ubxPackethh+0x300>
        incomingUBX->classAndIDmatch = SFE_UBLOX_PACKET_VALIDITY_NOT_VALID; // If we have a match, set the classAndIDmatch flag to not valid
   d58a2:	2300      	movs	r3, #0
   d58a4:	73eb      	strb	r3, [r5, #15]
      if ((_printDebug == true) || (_printLimitedDebug == true)) // Print this if doing limited debugging
   d58a6:	f894 3249 	ldrb.w	r3, [r4, #585]	; 0x249
   d58aa:	b923      	cbnz	r3, d58b6 <_ZN13SFE_UBLOX_GPS10processUBXEhP9ubxPackethh+0x25e>
   d58ac:	f894 324a 	ldrb.w	r3, [r4, #586]	; 0x24a
   d58b0:	2b00      	cmp	r3, #0
   d58b2:	f43f aeec 	beq.w	d568e <_ZN13SFE_UBLOX_GPS10processUBXEhP9ubxPackethh+0x36>
        _debugSerial->print(F("Checksum failed:"));
   d58b6:	4947      	ldr	r1, [pc, #284]	; (d59d4 <_ZN13SFE_UBLOX_GPS10processUBXEhP9ubxPackethh+0x37c>)
   d58b8:	f8d4 0244 	ldr.w	r0, [r4, #580]	; 0x244
   d58bc:	f001 ffff 	bl	d78be <_ZN5Print5printEPK19__FlashStringHelper>
        _debugSerial->print(F(" checksumA: "));
   d58c0:	4945      	ldr	r1, [pc, #276]	; (d59d8 <_ZN13SFE_UBLOX_GPS10processUBXEhP9ubxPackethh+0x380>)
   d58c2:	f8d4 0244 	ldr.w	r0, [r4, #580]	; 0x244
   d58c6:	f001 fffa 	bl	d78be <_ZN5Print5printEPK19__FlashStringHelper>
        _debugSerial->print(incomingUBX->checksumA);
   d58ca:	7b29      	ldrb	r1, [r5, #12]
   d58cc:	f8d4 0244 	ldr.w	r0, [r4, #580]	; 0x244
   d58d0:	220a      	movs	r2, #10
   d58d2:	f7ff fe0d 	bl	d54f0 <_ZN5Print5printIhLi0EEEjT_i>
        _debugSerial->print(F(" checksumB: "));
   d58d6:	4941      	ldr	r1, [pc, #260]	; (d59dc <_ZN13SFE_UBLOX_GPS10processUBXEhP9ubxPackethh+0x384>)
   d58d8:	f8d4 0244 	ldr.w	r0, [r4, #580]	; 0x244
   d58dc:	f001 ffef 	bl	d78be <_ZN5Print5printEPK19__FlashStringHelper>
        _debugSerial->print(incomingUBX->checksumB);
   d58e0:	7b69      	ldrb	r1, [r5, #13]
   d58e2:	f8d4 0244 	ldr.w	r0, [r4, #580]	; 0x244
   d58e6:	220a      	movs	r2, #10
   d58e8:	f7ff fe02 	bl	d54f0 <_ZN5Print5printIhLi0EEEjT_i>
        _debugSerial->print(F(" rollingChecksumA: "));
   d58ec:	493c      	ldr	r1, [pc, #240]	; (d59e0 <_ZN13SFE_UBLOX_GPS10processUBXEhP9ubxPackethh+0x388>)
   d58ee:	f8d4 0244 	ldr.w	r0, [r4, #580]	; 0x244
   d58f2:	f001 ffe4 	bl	d78be <_ZN5Print5printEPK19__FlashStringHelper>
        _debugSerial->print(rollingChecksumA);
   d58f6:	f894 1396 	ldrb.w	r1, [r4, #918]	; 0x396
   d58fa:	f8d4 0244 	ldr.w	r0, [r4, #580]	; 0x244
   d58fe:	220a      	movs	r2, #10
   d5900:	f7ff fdf6 	bl	d54f0 <_ZN5Print5printIhLi0EEEjT_i>
        _debugSerial->print(F(" rollingChecksumB: "));
   d5904:	4937      	ldr	r1, [pc, #220]	; (d59e4 <_ZN13SFE_UBLOX_GPS10processUBXEhP9ubxPackethh+0x38c>)
   d5906:	f8d4 0244 	ldr.w	r0, [r4, #580]	; 0x244
   d590a:	f001 ffd8 	bl	d78be <_ZN5Print5printEPK19__FlashStringHelper>
        _debugSerial->print(rollingChecksumB);
   d590e:	220a      	movs	r2, #10
   d5910:	f894 1397 	ldrb.w	r1, [r4, #919]	; 0x397
   d5914:	f8d4 0244 	ldr.w	r0, [r4, #580]	; 0x244
   d5918:	f7ff fdea 	bl	d54f0 <_ZN5Print5printIhLi0EEEjT_i>
        _debugSerial->println();
   d591c:	f8d4 0244 	ldr.w	r0, [r4, #580]	; 0x244
   d5920:	f001 ffd1 	bl	d78c6 <_ZN5Print7printlnEv>
        _debugSerial->print(F("Failed  : "));
   d5924:	4930      	ldr	r1, [pc, #192]	; (d59e8 <_ZN13SFE_UBLOX_GPS10processUBXEhP9ubxPackethh+0x390>)
   d5926:	f8d4 0244 	ldr.w	r0, [r4, #580]	; 0x244
   d592a:	f001 ffc8 	bl	d78be <_ZN5Print5printEPK19__FlashStringHelper>
        _debugSerial->print(F("Size: "));
   d592e:	492f      	ldr	r1, [pc, #188]	; (d59ec <_ZN13SFE_UBLOX_GPS10processUBXEhP9ubxPackethh+0x394>)
   d5930:	f8d4 0244 	ldr.w	r0, [r4, #580]	; 0x244
   d5934:	f001 ffc3 	bl	d78be <_ZN5Print5printEPK19__FlashStringHelper>
   d5938:	8869      	ldrh	r1, [r5, #2]
   d593a:	f8d4 0244 	ldr.w	r0, [r4, #580]	; 0x244
   d593e:	220a      	movs	r2, #10
   d5940:	f001 ffd9 	bl	d78f6 <_ZN5Print11printNumberEmh>
        _debugSerial->print(F(" Received: "));
   d5944:	4918      	ldr	r1, [pc, #96]	; (d59a8 <_ZN13SFE_UBLOX_GPS10processUBXEhP9ubxPackethh+0x350>)
   d5946:	f8d4 0244 	ldr.w	r0, [r4, #580]	; 0x244
   d594a:	f001 ffb8 	bl	d78be <_ZN5Print5printEPK19__FlashStringHelper>
        printPacket(incomingUBX);
   d594e:	4629      	mov	r1, r5
   d5950:	4620      	mov	r0, r4
   d5952:	f7ff fdd5 	bl	d5500 <_ZN13SFE_UBLOX_GPS11printPacketEP9ubxPacket>
   d5956:	e69a      	b.n	d568e <_ZN13SFE_UBLOX_GPS10processUBXEhP9ubxPackethh+0x36>
      else if ((incomingUBX->cls == UBX_CLASS_ACK) && (incomingUBX->payload[0] == requestedClass) && (incomingUBX->payload[1] == requestedID))
   d5958:	2b05      	cmp	r3, #5
   d595a:	d1a4      	bne.n	d58a6 <_ZN13SFE_UBLOX_GPS10processUBXEhP9ubxPackethh+0x24e>
   d595c:	68ab      	ldr	r3, [r5, #8]
   d595e:	781a      	ldrb	r2, [r3, #0]
   d5960:	4542      	cmp	r2, r8
   d5962:	d1a0      	bne.n	d58a6 <_ZN13SFE_UBLOX_GPS10processUBXEhP9ubxPackethh+0x24e>
   d5964:	785b      	ldrb	r3, [r3, #1]
   d5966:	42b3      	cmp	r3, r6
   d5968:	d19d      	bne.n	d58a6 <_ZN13SFE_UBLOX_GPS10processUBXEhP9ubxPackethh+0x24e>
   d596a:	e79a      	b.n	d58a2 <_ZN13SFE_UBLOX_GPS10processUBXEhP9ubxPackethh+0x24a>
    uint16_t startingSpot = incomingUBX->startingSpot;
   d596c:	88eb      	ldrh	r3, [r5, #6]
    if (incomingUBX->cls == UBX_CLASS_NAV && incomingUBX->id == UBX_NAV_PVT)
   d596e:	8828      	ldrh	r0, [r5, #0]
    if (ignoreThisPayload == false)
   d5970:	f894 6380 	ldrb.w	r6, [r4, #896]	; 0x380
      startingSpot = 0;
   d5974:	f240 7101 	movw	r1, #1793	; 0x701
   d5978:	4288      	cmp	r0, r1
   d597a:	bf08      	it	eq
   d597c:	2300      	moveq	r3, #0
    if (ignoreThisPayload == false)
   d597e:	2e00      	cmp	r6, #0
   d5980:	f47f ae85 	bne.w	d568e <_ZN13SFE_UBLOX_GPS10processUBXEhP9ubxPackethh+0x36>
      if ((incomingUBX->counter - 4) >= startingSpot)
   d5984:	1ed1      	subs	r1, r2, #3
   d5986:	4299      	cmp	r1, r3
   d5988:	f77f ae81 	ble.w	d568e <_ZN13SFE_UBLOX_GPS10processUBXEhP9ubxPackethh+0x36>
        if (((incomingUBX->counter - 4) - startingSpot) < max_payload_size) //If counter = 208, starting spot = 200, we're good to record.
   d598c:	3a04      	subs	r2, #4
   d598e:	1ad2      	subs	r2, r2, r3
   d5990:	454a      	cmp	r2, r9
          incomingUBX->payload[incomingUBX->counter - 4 - startingSpot] = incoming; //Store this byte into payload array
   d5992:	bfb6      	itet	lt
   d5994:	68ab      	ldrlt	r3, [r5, #8]
          overrun = true;
   d5996:	2601      	movge	r6, #1
          incomingUBX->payload[incomingUBX->counter - 4 - startingSpot] = incoming; //Store this byte into payload array
   d5998:	549f      	strblt	r7, [r3, r2]
   d599a:	e6e7      	b.n	d576c <_ZN13SFE_UBLOX_GPS10processUBXEhP9ubxPackethh+0x114>
        _debugSerial->println(F("processUBX: counter hit MAX_PAYLOAD_SIZE"));
   d599c:	4914      	ldr	r1, [pc, #80]	; (d59f0 <_ZN13SFE_UBLOX_GPS10processUBXEhP9ubxPackethh+0x398>)
   d599e:	e6ff      	b.n	d57a0 <_ZN13SFE_UBLOX_GPS10processUBXEhP9ubxPackethh+0x148>
}
   d59a0:	e8bd 83f8 	ldmia.w	sp!, {r3, r4, r5, r6, r7, r8, r9, pc}
   d59a4:	000d9cb1 	.word	0x000d9cb1
   d59a8:	000d9cc2 	.word	0x000d9cc2
   d59ac:	000d9cce 	.word	0x000d9cce
   d59b0:	000d9ce2 	.word	0x000d9ce2
   d59b4:	000d9cf6 	.word	0x000d9cf6
   d59b8:	000d9d10 	.word	0x000d9d10
   d59bc:	000d9d88 	.word	0x000d9d88
   d59c0:	000d9c22 	.word	0x000d9c22
   d59c4:	000d9c64 	.word	0x000d9c64
   d59c8:	000d9bf3 	.word	0x000d9bf3
   d59cc:	000d9c52 	.word	0x000d9c52
   d59d0:	000d9c74 	.word	0x000d9c74
   d59d4:	000d9d2a 	.word	0x000d9d2a
   d59d8:	000d9d3b 	.word	0x000d9d3b
   d59dc:	000d9d48 	.word	0x000d9d48
   d59e0:	000d9d55 	.word	0x000d9d55
   d59e4:	000d9d69 	.word	0x000d9d69
   d59e8:	000d9d7d 	.word	0x000d9d7d
   d59ec:	000d9cbb 	.word	0x000d9cbb
   d59f0:	000d9dac 	.word	0x000d9dac

000d59f4 <_ZN13SFE_UBLOX_GPS7processEhP9ubxPackethh>:
{
   d59f4:	e92d 43f7 	stmdb	sp!, {r0, r1, r2, r4, r5, r6, r7, r8, r9, lr}
   d59f8:	4698      	mov	r8, r3
  if ((currentSentence == NONE) || (currentSentence == NMEA))
   d59fa:	f890 3234 	ldrb.w	r3, [r0, #564]	; 0x234
{
   d59fe:	f89d 6028 	ldrb.w	r6, [sp, #40]	; 0x28
  if ((currentSentence == NONE) || (currentSentence == NMEA))
   d5a02:	2b01      	cmp	r3, #1
{
   d5a04:	4604      	mov	r4, r0
   d5a06:	460d      	mov	r5, r1
   d5a08:	4617      	mov	r7, r2
  if ((currentSentence == NONE) || (currentSentence == NMEA))
   d5a0a:	d80d      	bhi.n	d5a28 <_ZN13SFE_UBLOX_GPS7processEhP9ubxPackethh+0x34>
    if (incoming == 0xB5) //UBX binary frames start with 0xB5, aka 
   d5a0c:	29b5      	cmp	r1, #181	; 0xb5
   d5a0e:	d12d      	bne.n	d5a6c <_ZN13SFE_UBLOX_GPS7processEhP9ubxPackethh+0x78>
      ubxFrameCounter = 0;
   d5a10:	2300      	movs	r3, #0
   d5a12:	f8a0 3394 	strh.w	r3, [r0, #916]	; 0x394
      currentSentence = UBX;
   d5a16:	2202      	movs	r2, #2
      packetBuf.counter = 0;
   d5a18:	f8a0 3374 	strh.w	r3, [r0, #884]	; 0x374
      ignoreThisPayload = false; //We should not ignore this payload - yet
   d5a1c:	f44f 7300 	mov.w	r3, #512	; 0x200
      currentSentence = UBX;
   d5a20:	f880 2234 	strb.w	r2, [r0, #564]	; 0x234
      ignoreThisPayload = false; //We should not ignore this payload - yet
   d5a24:	f8a0 3380 	strh.w	r3, [r0, #896]	; 0x380
  if (currentSentence == UBX)
   d5a28:	f894 3234 	ldrb.w	r3, [r4, #564]	; 0x234
   d5a2c:	2b02      	cmp	r3, #2
   d5a2e:	f040 815f 	bne.w	d5cf0 <_ZN13SFE_UBLOX_GPS7processEhP9ubxPackethh+0x2fc>
    if ((ubxFrameCounter == 0) && (incoming != 0xB5))      //ISO ''
   d5a32:	f8b4 2394 	ldrh.w	r2, [r4, #916]	; 0x394
   d5a36:	bb32      	cbnz	r2, d5a86 <_ZN13SFE_UBLOX_GPS7processEhP9ubxPackethh+0x92>
   d5a38:	2db5      	cmp	r5, #181	; 0xb5
   d5a3a:	d002      	beq.n	d5a42 <_ZN13SFE_UBLOX_GPS7processEhP9ubxPackethh+0x4e>
      currentSentence = NONE;                              //Something went wrong. Reset.
   d5a3c:	2300      	movs	r3, #0
   d5a3e:	f884 3234 	strb.w	r3, [r4, #564]	; 0x234
    if (activePacketBuffer == SFE_UBLOX_PACKET_PACKETACK)
   d5a42:	f894 3381 	ldrb.w	r3, [r4, #897]	; 0x381
      processUBX(incoming, &packetAck, requestedClass, requestedID);
   d5a46:	9600      	str	r6, [sp, #0]
    if (activePacketBuffer == SFE_UBLOX_PACKET_PACKETACK)
   d5a48:	2b01      	cmp	r3, #1
   d5a4a:	f040 8149 	bne.w	d5ce0 <_ZN13SFE_UBLOX_GPS7processEhP9ubxPackethh+0x2ec>
      processUBX(incoming, &packetAck, requestedClass, requestedID);
   d5a4e:	4643      	mov	r3, r8
   d5a50:	f504 7254 	add.w	r2, r4, #848	; 0x350
      processUBX(incoming, &packetBuf, requestedClass, requestedID);
   d5a54:	4629      	mov	r1, r5
   d5a56:	4620      	mov	r0, r4
   d5a58:	f7ff fdfe 	bl	d5658 <_ZN13SFE_UBLOX_GPS10processUBXEhP9ubxPackethh>
    ubxFrameCounter++;
   d5a5c:	f8b4 3394 	ldrh.w	r3, [r4, #916]	; 0x394
   d5a60:	3301      	adds	r3, #1
   d5a62:	f8a4 3394 	strh.w	r3, [r4, #916]	; 0x394
}
   d5a66:	b003      	add	sp, #12
   d5a68:	e8bd 83f0 	ldmia.w	sp!, {r4, r5, r6, r7, r8, r9, pc}
    else if (incoming == '$')
   d5a6c:	2924      	cmp	r1, #36	; 0x24
   d5a6e:	d103      	bne.n	d5a78 <_ZN13SFE_UBLOX_GPS7processEhP9ubxPackethh+0x84>
      currentSentence = NMEA;
   d5a70:	2301      	movs	r3, #1
      currentSentence = RTCM;
   d5a72:	f884 3234 	strb.w	r3, [r4, #564]	; 0x234
   d5a76:	e7d7      	b.n	d5a28 <_ZN13SFE_UBLOX_GPS7processEhP9ubxPackethh+0x34>
    else if (incoming == 0xD3) //RTCM frames start with 0xD3
   d5a78:	29d3      	cmp	r1, #211	; 0xd3
   d5a7a:	d1d5      	bne.n	d5a28 <_ZN13SFE_UBLOX_GPS7processEhP9ubxPackethh+0x34>
      rtcmFrameCounter = 0;
   d5a7c:	2300      	movs	r3, #0
   d5a7e:	f8a0 30f4 	strh.w	r3, [r0, #244]	; 0xf4
      currentSentence = RTCM;
   d5a82:	2303      	movs	r3, #3
   d5a84:	e7f5      	b.n	d5a72 <_ZN13SFE_UBLOX_GPS7processEhP9ubxPackethh+0x7e>
    else if ((ubxFrameCounter == 1) && (incoming != 0x62)) //ASCII 'b'
   d5a86:	2a01      	cmp	r2, #1
   d5a88:	d101      	bne.n	d5a8e <_ZN13SFE_UBLOX_GPS7processEhP9ubxPackethh+0x9a>
   d5a8a:	2d62      	cmp	r5, #98	; 0x62
   d5a8c:	e7d5      	b.n	d5a3a <_ZN13SFE_UBLOX_GPS7processEhP9ubxPackethh+0x46>
    else if (ubxFrameCounter == 2) //Class
   d5a8e:	2a02      	cmp	r2, #2
   d5a90:	d10c      	bne.n	d5aac <_ZN13SFE_UBLOX_GPS7processEhP9ubxPackethh+0xb8>
      rollingChecksumA = 0;     //Reset our rolling checksums here (not when we receive the 0xB5)
   d5a92:	2300      	movs	r3, #0
      packetBuf.cls = incoming; // (Duplication)
   d5a94:	f884 5370 	strb.w	r5, [r4, #880]	; 0x370
      rollingChecksumA = 0;     //Reset our rolling checksums here (not when we receive the 0xB5)
   d5a98:	f8a4 3396 	strh.w	r3, [r4, #918]	; 0x396
      packetBuf.counter = 0;                                   //Reset the packetBuf.counter (again)
   d5a9c:	f8a4 3374 	strh.w	r3, [r4, #884]	; 0x374
      packetBuf.valid = SFE_UBLOX_PACKET_VALIDITY_NOT_DEFINED; // Reset the packet validity (redundant?)
   d5aa0:	f884 237e 	strb.w	r2, [r4, #894]	; 0x37e
      packetBuf.startingSpot = incomingUBX->startingSpot;      //Copy the startingSpot
   d5aa4:	88fb      	ldrh	r3, [r7, #6]
   d5aa6:	f8a4 3376 	strh.w	r3, [r4, #886]	; 0x376
   d5aaa:	e7ca      	b.n	d5a42 <_ZN13SFE_UBLOX_GPS7processEhP9ubxPackethh+0x4e>
    else if (ubxFrameCounter == 3) //ID
   d5aac:	2a03      	cmp	r2, #3
   d5aae:	d170      	bne.n	d5b92 <_ZN13SFE_UBLOX_GPS7processEhP9ubxPackethh+0x19e>
      if (packetBuf.cls != UBX_CLASS_ACK)
   d5ab0:	f894 3370 	ldrb.w	r3, [r4, #880]	; 0x370
      packetBuf.id = incoming; // (Duplication)
   d5ab4:	f884 5371 	strb.w	r5, [r4, #881]	; 0x371
      if (packetBuf.cls != UBX_CLASS_ACK)
   d5ab8:	2b05      	cmp	r3, #5
   d5aba:	d0c2      	beq.n	d5a42 <_ZN13SFE_UBLOX_GPS7processEhP9ubxPackethh+0x4e>
        if ((packetBuf.cls == requestedClass) && (packetBuf.id == requestedID))
   d5abc:	4598      	cmp	r8, r3
   d5abe:	d14a      	bne.n	d5b56 <_ZN13SFE_UBLOX_GPS7processEhP9ubxPackethh+0x162>
   d5ac0:	42b5      	cmp	r5, r6
   d5ac2:	d10b      	bne.n	d5adc <_ZN13SFE_UBLOX_GPS7processEhP9ubxPackethh+0xe8>
          activePacketBuffer = SFE_UBLOX_PACKET_PACKETCFG;
   d5ac4:	2300      	movs	r3, #0
   d5ac6:	f884 3381 	strb.w	r3, [r4, #897]	; 0x381
          incomingUBX->cls = packetBuf.cls; //Copy the class and ID into incomingUBX (usually packetCfg)
   d5aca:	f887 8000 	strb.w	r8, [r7]
          incomingUBX->id = packetBuf.id;
   d5ace:	f894 3371 	ldrb.w	r3, [r4, #881]	; 0x371
   d5ad2:	707b      	strb	r3, [r7, #1]
          incomingUBX->counter = packetBuf.counter; //Copy over the .counter too
   d5ad4:	f8b4 3374 	ldrh.w	r3, [r4, #884]	; 0x374
   d5ad8:	80bb      	strh	r3, [r7, #4]
   d5ada:	e7b2      	b.n	d5a42 <_ZN13SFE_UBLOX_GPS7processEhP9ubxPackethh+0x4e>
        else if ((packetBuf.cls == requestedClass) &&
   d5adc:	2d07      	cmp	r5, #7
   d5ade:	d129      	bne.n	d5b34 <_ZN13SFE_UBLOX_GPS7processEhP9ubxPackethh+0x140>
          (((packetBuf.id == UBX_NAV_PVT) && (requestedID == UBX_NAV_HPPOSLLH || requestedID == UBX_NAV_DOP)) ||
   d5ae0:	f006 02ef 	and.w	r2, r6, #239	; 0xef
   d5ae4:	2a04      	cmp	r2, #4
           ((packetBuf.id == UBX_NAV_DOP) && (requestedID == UBX_NAV_PVT || requestedID == UBX_NAV_HPPOSLLH))))
   d5ae6:	d136      	bne.n	d5b56 <_ZN13SFE_UBLOX_GPS7processEhP9ubxPackethh+0x162>
          activePacketBuffer = SFE_UBLOX_PACKET_PACKETCFG;
   d5ae8:	2200      	movs	r2, #0
   d5aea:	f884 2381 	strb.w	r2, [r4, #897]	; 0x381
          incomingUBX->cls = packetBuf.cls; //Copy the class and ID into incomingUBX (usually packetCfg)
   d5aee:	703b      	strb	r3, [r7, #0]
          incomingUBX->id = packetBuf.id;
   d5af0:	f894 3371 	ldrb.w	r3, [r4, #881]	; 0x371
   d5af4:	707b      	strb	r3, [r7, #1]
          incomingUBX->counter = packetBuf.counter; //Copy over the .counter too
   d5af6:	f8b4 3374 	ldrh.w	r3, [r4, #884]	; 0x374
   d5afa:	80bb      	strh	r3, [r7, #4]
          if (_printDebug == true)
   d5afc:	f894 3249 	ldrb.w	r3, [r4, #585]	; 0x249
   d5b00:	2b00      	cmp	r3, #0
   d5b02:	d09e      	beq.n	d5a42 <_ZN13SFE_UBLOX_GPS7processEhP9ubxPackethh+0x4e>
            _debugSerial->print(F("process: auto NAV PVT/HPPOSLLH/DOP collision: Requested ID: 0x"));
   d5b04:	4983      	ldr	r1, [pc, #524]	; (d5d14 <_ZN13SFE_UBLOX_GPS7processEhP9ubxPackethh+0x320>)
            _debugSerial->print(F("process: auto HNR ATT/INS/PVT collision: Requested ID: 0x"));
   d5b06:	f8d4 0244 	ldr.w	r0, [r4, #580]	; 0x244
   d5b0a:	f001 fed8 	bl	d78be <_ZN5Print5printEPK19__FlashStringHelper>
            _debugSerial->print(requestedID, HEX);
   d5b0e:	2210      	movs	r2, #16
   d5b10:	4631      	mov	r1, r6
   d5b12:	f8d4 0244 	ldr.w	r0, [r4, #580]	; 0x244
   d5b16:	f7ff fceb 	bl	d54f0 <_ZN5Print5printIhLi0EEEjT_i>
            _debugSerial->print(F(" Message ID: 0x"));
   d5b1a:	497f      	ldr	r1, [pc, #508]	; (d5d18 <_ZN13SFE_UBLOX_GPS7processEhP9ubxPackethh+0x324>)
   d5b1c:	f8d4 0244 	ldr.w	r0, [r4, #580]	; 0x244
   d5b20:	f001 fecd 	bl	d78be <_ZN5Print5printEPK19__FlashStringHelper>
            _debugSerial->println(packetBuf.id, HEX);
   d5b24:	f894 1371 	ldrb.w	r1, [r4, #881]	; 0x371
   d5b28:	f8d4 0244 	ldr.w	r0, [r4, #580]	; 0x244
   d5b2c:	2210      	movs	r2, #16
   d5b2e:	f7ff fd89 	bl	d5644 <_ZN5Print7printlnIhLi0EEEjT_i>
   d5b32:	e786      	b.n	d5a42 <_ZN13SFE_UBLOX_GPS7processEhP9ubxPackethh+0x4e>
          (((packetBuf.id == UBX_NAV_PVT) && (requestedID == UBX_NAV_HPPOSLLH || requestedID == UBX_NAV_DOP)) ||
   d5b34:	2d14      	cmp	r5, #20
   d5b36:	d103      	bne.n	d5b40 <_ZN13SFE_UBLOX_GPS7processEhP9ubxPackethh+0x14c>
           ((packetBuf.id == UBX_NAV_HPPOSLLH) && (requestedID == UBX_NAV_PVT || requestedID == UBX_NAV_DOP)) ||
   d5b38:	2e07      	cmp	r6, #7
   d5b3a:	d0d5      	beq.n	d5ae8 <_ZN13SFE_UBLOX_GPS7processEhP9ubxPackethh+0xf4>
   d5b3c:	2e04      	cmp	r6, #4
   d5b3e:	e7d2      	b.n	d5ae6 <_ZN13SFE_UBLOX_GPS7processEhP9ubxPackethh+0xf2>
   d5b40:	2d04      	cmp	r5, #4
   d5b42:	d103      	bne.n	d5b4c <_ZN13SFE_UBLOX_GPS7processEhP9ubxPackethh+0x158>
           ((packetBuf.id == UBX_NAV_DOP) && (requestedID == UBX_NAV_PVT || requestedID == UBX_NAV_HPPOSLLH))))
   d5b44:	2e07      	cmp	r6, #7
   d5b46:	d0cf      	beq.n	d5ae8 <_ZN13SFE_UBLOX_GPS7processEhP9ubxPackethh+0xf4>
   d5b48:	2e14      	cmp	r6, #20
   d5b4a:	e7cc      	b.n	d5ae6 <_ZN13SFE_UBLOX_GPS7processEhP9ubxPackethh+0xf2>
        else if ((packetBuf.cls == requestedClass) &&
   d5b4c:	2d01      	cmp	r5, #1
   d5b4e:	d106      	bne.n	d5b5e <_ZN13SFE_UBLOX_GPS7processEhP9ubxPackethh+0x16a>
          (((packetBuf.id == UBX_HNR_ATT) && (requestedID == UBX_HNR_INS || requestedID == UBX_HNR_PVT)) ||
   d5b50:	f016 0ffd 	tst.w	r6, #253	; 0xfd
   d5b54:	d007      	beq.n	d5b66 <_ZN13SFE_UBLOX_GPS7processEhP9ubxPackethh+0x172>
          ignoreThisPayload = true;
   d5b56:	2301      	movs	r3, #1
   d5b58:	f884 3380 	strb.w	r3, [r4, #896]	; 0x380
   d5b5c:	e771      	b.n	d5a42 <_ZN13SFE_UBLOX_GPS7processEhP9ubxPackethh+0x4e>
          (((packetBuf.id == UBX_HNR_ATT) && (requestedID == UBX_HNR_INS || requestedID == UBX_HNR_PVT)) ||
   d5b5e:	2d02      	cmp	r5, #2
   d5b60:	d112      	bne.n	d5b88 <_ZN13SFE_UBLOX_GPS7processEhP9ubxPackethh+0x194>
           ((packetBuf.id == UBX_HNR_INS) && (requestedID == UBX_HNR_ATT || requestedID == UBX_HNR_PVT)) ||
   d5b62:	2e01      	cmp	r6, #1
           ((packetBuf.id == UBX_HNR_PVT) && (requestedID == UBX_HNR_ATT || requestedID == UBX_HNR_INS))))
   d5b64:	d8f7      	bhi.n	d5b56 <_ZN13SFE_UBLOX_GPS7processEhP9ubxPackethh+0x162>
          activePacketBuffer = SFE_UBLOX_PACKET_PACKETCFG;
   d5b66:	2200      	movs	r2, #0
   d5b68:	f884 2381 	strb.w	r2, [r4, #897]	; 0x381
          incomingUBX->cls = packetBuf.cls; //Copy the class and ID into incomingUBX (usually packetCfg)
   d5b6c:	703b      	strb	r3, [r7, #0]
          incomingUBX->id = packetBuf.id;
   d5b6e:	f894 3371 	ldrb.w	r3, [r4, #881]	; 0x371
   d5b72:	707b      	strb	r3, [r7, #1]
          incomingUBX->counter = packetBuf.counter; //Copy over the .counter too
   d5b74:	f8b4 3374 	ldrh.w	r3, [r4, #884]	; 0x374
   d5b78:	80bb      	strh	r3, [r7, #4]
          if (_printDebug == true)
   d5b7a:	f894 3249 	ldrb.w	r3, [r4, #585]	; 0x249
   d5b7e:	2b00      	cmp	r3, #0
   d5b80:	f43f af5f 	beq.w	d5a42 <_ZN13SFE_UBLOX_GPS7processEhP9ubxPackethh+0x4e>
            _debugSerial->print(F("process: auto HNR ATT/INS/PVT collision: Requested ID: 0x"));
   d5b84:	4965      	ldr	r1, [pc, #404]	; (d5d1c <_ZN13SFE_UBLOX_GPS7processEhP9ubxPackethh+0x328>)
   d5b86:	e7be      	b.n	d5b06 <_ZN13SFE_UBLOX_GPS7processEhP9ubxPackethh+0x112>
           ((packetBuf.id == UBX_HNR_INS) && (requestedID == UBX_HNR_ATT || requestedID == UBX_HNR_PVT)) ||
   d5b88:	2d00      	cmp	r5, #0
   d5b8a:	d1e4      	bne.n	d5b56 <_ZN13SFE_UBLOX_GPS7processEhP9ubxPackethh+0x162>
           ((packetBuf.id == UBX_HNR_PVT) && (requestedID == UBX_HNR_ATT || requestedID == UBX_HNR_INS))))
   d5b8c:	1e72      	subs	r2, r6, #1
   d5b8e:	2a01      	cmp	r2, #1
   d5b90:	e7e8      	b.n	d5b64 <_ZN13SFE_UBLOX_GPS7processEhP9ubxPackethh+0x170>
    else if (ubxFrameCounter == 4) //Length LSB
   d5b92:	2a04      	cmp	r2, #4
   d5b94:	d102      	bne.n	d5b9c <_ZN13SFE_UBLOX_GPS7processEhP9ubxPackethh+0x1a8>
      packetBuf.len = incoming; // (Duplication)
   d5b96:	f8a4 5372 	strh.w	r5, [r4, #882]	; 0x372
   d5b9a:	e752      	b.n	d5a42 <_ZN13SFE_UBLOX_GPS7processEhP9ubxPackethh+0x4e>
    else if (ubxFrameCounter == 5) //Length MSB
   d5b9c:	2a05      	cmp	r2, #5
   d5b9e:	d106      	bne.n	d5bae <_ZN13SFE_UBLOX_GPS7processEhP9ubxPackethh+0x1ba>
      packetBuf.len |= incoming << 8; // (Duplication)
   d5ba0:	f8b4 3372 	ldrh.w	r3, [r4, #882]	; 0x372
   d5ba4:	ea43 2305 	orr.w	r3, r3, r5, lsl #8
   d5ba8:	f8a4 3372 	strh.w	r3, [r4, #882]	; 0x372
   d5bac:	e749      	b.n	d5a42 <_ZN13SFE_UBLOX_GPS7processEhP9ubxPackethh+0x4e>
    else if (ubxFrameCounter == 6) //This should be the first byte of the payload unless .len is zero
   d5bae:	2a06      	cmp	r2, #6
   d5bb0:	d124      	bne.n	d5bfc <_ZN13SFE_UBLOX_GPS7processEhP9ubxPackethh+0x208>
      if (packetBuf.len == 0) // Check if length is zero (hopefully this is impossible!)
   d5bb2:	f8b4 3372 	ldrh.w	r3, [r4, #882]	; 0x372
   d5bb6:	b9eb      	cbnz	r3, d5bf4 <_ZN13SFE_UBLOX_GPS7processEhP9ubxPackethh+0x200>
        if (_printDebug == true)
   d5bb8:	f894 3249 	ldrb.w	r3, [r4, #585]	; 0x249
   d5bbc:	b1bb      	cbz	r3, d5bee <_ZN13SFE_UBLOX_GPS7processEhP9ubxPackethh+0x1fa>
          _debugSerial->print(F("process: ZERO LENGTH packet received: Class: 0x"));
   d5bbe:	4958      	ldr	r1, [pc, #352]	; (d5d20 <_ZN13SFE_UBLOX_GPS7processEhP9ubxPackethh+0x32c>)
   d5bc0:	f8d4 0244 	ldr.w	r0, [r4, #580]	; 0x244
   d5bc4:	f001 fe7b 	bl	d78be <_ZN5Print5printEPK19__FlashStringHelper>
          _debugSerial->print(packetBuf.cls, HEX);
   d5bc8:	2210      	movs	r2, #16
   d5bca:	f894 1370 	ldrb.w	r1, [r4, #880]	; 0x370
   d5bce:	f8d4 0244 	ldr.w	r0, [r4, #580]	; 0x244
   d5bd2:	f7ff fc8d 	bl	d54f0 <_ZN5Print5printIhLi0EEEjT_i>
          _debugSerial->print(F(" ID: 0x"));
   d5bd6:	4953      	ldr	r1, [pc, #332]	; (d5d24 <_ZN13SFE_UBLOX_GPS7processEhP9ubxPackethh+0x330>)
   d5bd8:	f8d4 0244 	ldr.w	r0, [r4, #580]	; 0x244
   d5bdc:	f001 fe6f 	bl	d78be <_ZN5Print5printEPK19__FlashStringHelper>
          _debugSerial->println(packetBuf.id, HEX);
   d5be0:	f894 1371 	ldrb.w	r1, [r4, #881]	; 0x371
   d5be4:	f8d4 0244 	ldr.w	r0, [r4, #580]	; 0x244
   d5be8:	2210      	movs	r2, #16
   d5bea:	f7ff fd2b 	bl	d5644 <_ZN5Print7printlnIhLi0EEEjT_i>
        packetBuf.checksumA = incoming;
   d5bee:	f884 537c 	strb.w	r5, [r4, #892]	; 0x37c
   d5bf2:	e726      	b.n	d5a42 <_ZN13SFE_UBLOX_GPS7processEhP9ubxPackethh+0x4e>
        packetBuf.payload[0] = incoming;
   d5bf4:	f8d4 3378 	ldr.w	r3, [r4, #888]	; 0x378
   d5bf8:	701d      	strb	r5, [r3, #0]
   d5bfa:	e722      	b.n	d5a42 <_ZN13SFE_UBLOX_GPS7processEhP9ubxPackethh+0x4e>
    else if (ubxFrameCounter == 7) //This should be the second byte of the payload unless .len is zero or one
   d5bfc:	2a07      	cmp	r2, #7
   d5bfe:	f47f af20 	bne.w	d5a42 <_ZN13SFE_UBLOX_GPS7processEhP9ubxPackethh+0x4e>
      if (packetBuf.len == 0) // Check if length is zero (hopefully this is impossible!)
   d5c02:	f8b4 3372 	ldrh.w	r3, [r4, #882]	; 0x372
   d5c06:	bb9b      	cbnz	r3, d5c70 <_ZN13SFE_UBLOX_GPS7processEhP9ubxPackethh+0x27c>
        packetBuf.checksumB = incoming;
   d5c08:	f884 537d 	strb.w	r5, [r4, #893]	; 0x37d
      if ((activePacketBuffer == SFE_UBLOX_PACKET_PACKETBUF) // If we are not already processing a data packet
   d5c0c:	f894 3381 	ldrb.w	r3, [r4, #897]	; 0x381
   d5c10:	2b02      	cmp	r3, #2
   d5c12:	f47f af16 	bne.w	d5a42 <_ZN13SFE_UBLOX_GPS7processEhP9ubxPackethh+0x4e>
          && (packetBuf.cls == UBX_CLASS_ACK)                // and if this is an ACK/NACK
   d5c16:	f894 1370 	ldrb.w	r1, [r4, #880]	; 0x370
   d5c1a:	2905      	cmp	r1, #5
   d5c1c:	f47f af11 	bne.w	d5a42 <_ZN13SFE_UBLOX_GPS7processEhP9ubxPackethh+0x4e>
          && (packetBuf.payload[0] == requestedClass)        // and if the class matches
   d5c20:	f8d4 3378 	ldr.w	r3, [r4, #888]	; 0x378
   d5c24:	781a      	ldrb	r2, [r3, #0]
   d5c26:	4542      	cmp	r2, r8
   d5c28:	f47f af0b 	bne.w	d5a42 <_ZN13SFE_UBLOX_GPS7processEhP9ubxPackethh+0x4e>
          && (packetBuf.payload[1] == requestedID))          // and if the ID matches
   d5c2c:	785a      	ldrb	r2, [r3, #1]
   d5c2e:	42b2      	cmp	r2, r6
   d5c30:	f47f af07 	bne.w	d5a42 <_ZN13SFE_UBLOX_GPS7processEhP9ubxPackethh+0x4e>
        if (packetBuf.len == 2) // Check if .len is 2
   d5c34:	f8b4 2372 	ldrh.w	r2, [r4, #882]	; 0x372
   d5c38:	2a02      	cmp	r2, #2
   d5c3a:	d121      	bne.n	d5c80 <_ZN13SFE_UBLOX_GPS7processEhP9ubxPackethh+0x28c>
          packetAck.cls = packetBuf.cls;
   d5c3c:	f884 1350 	strb.w	r1, [r4, #848]	; 0x350
          packetAck.len = packetBuf.len;
   d5c40:	f8a4 2352 	strh.w	r2, [r4, #850]	; 0x352
          packetAck.id = packetBuf.id;
   d5c44:	f894 1371 	ldrb.w	r1, [r4, #881]	; 0x371
          packetAck.counter = packetBuf.counter;
   d5c48:	f8b4 2374 	ldrh.w	r2, [r4, #884]	; 0x374
   d5c4c:	f8a4 2354 	strh.w	r2, [r4, #852]	; 0x354
          activePacketBuffer = SFE_UBLOX_PACKET_PACKETACK;
   d5c50:	2001      	movs	r0, #1
   d5c52:	f884 0381 	strb.w	r0, [r4, #897]	; 0x381
          packetAck.id = packetBuf.id;
   d5c56:	f884 1351 	strb.w	r1, [r4, #849]	; 0x351
          packetAck.payload[0] = packetBuf.payload[0];
   d5c5a:	f8d4 2358 	ldr.w	r2, [r4, #856]	; 0x358
   d5c5e:	781b      	ldrb	r3, [r3, #0]
   d5c60:	7013      	strb	r3, [r2, #0]
          packetAck.payload[1] = packetBuf.payload[1];
   d5c62:	f8d4 2378 	ldr.w	r2, [r4, #888]	; 0x378
   d5c66:	f8d4 3358 	ldr.w	r3, [r4, #856]	; 0x358
   d5c6a:	7852      	ldrb	r2, [r2, #1]
   d5c6c:	705a      	strb	r2, [r3, #1]
   d5c6e:	e6e8      	b.n	d5a42 <_ZN13SFE_UBLOX_GPS7processEhP9ubxPackethh+0x4e>
      else if (packetBuf.len == 1) // Check if length is one
   d5c70:	2b01      	cmp	r3, #1
        packetBuf.payload[1] = incoming;
   d5c72:	bf16      	itet	ne
   d5c74:	f8d4 3378 	ldrne.w	r3, [r4, #888]	; 0x378
        packetBuf.checksumA = incoming;
   d5c78:	f884 537c 	strbeq.w	r5, [r4, #892]	; 0x37c
        packetBuf.payload[1] = incoming;
   d5c7c:	705d      	strbne	r5, [r3, #1]
   d5c7e:	e7c5      	b.n	d5c0c <_ZN13SFE_UBLOX_GPS7processEhP9ubxPackethh+0x218>
          if (_printDebug == true)
   d5c80:	f894 3249 	ldrb.w	r3, [r4, #585]	; 0x249
   d5c84:	2b00      	cmp	r3, #0
   d5c86:	f43f aedc 	beq.w	d5a42 <_ZN13SFE_UBLOX_GPS7processEhP9ubxPackethh+0x4e>
            _debugSerial->print(F("process: ACK received with .len != 2: Class: 0x"));
   d5c8a:	4927      	ldr	r1, [pc, #156]	; (d5d28 <_ZN13SFE_UBLOX_GPS7processEhP9ubxPackethh+0x334>)
   d5c8c:	f8d4 0244 	ldr.w	r0, [r4, #580]	; 0x244
   d5c90:	f001 fe15 	bl	d78be <_ZN5Print5printEPK19__FlashStringHelper>
            _debugSerial->print(packetBuf.payload[0], HEX);
   d5c94:	f8d4 3378 	ldr.w	r3, [r4, #888]	; 0x378
   d5c98:	f8d4 0244 	ldr.w	r0, [r4, #580]	; 0x244
   d5c9c:	7819      	ldrb	r1, [r3, #0]
   d5c9e:	2210      	movs	r2, #16
   d5ca0:	f7ff fc26 	bl	d54f0 <_ZN5Print5printIhLi0EEEjT_i>
            _debugSerial->print(F(" ID: 0x"));
   d5ca4:	491f      	ldr	r1, [pc, #124]	; (d5d24 <_ZN13SFE_UBLOX_GPS7processEhP9ubxPackethh+0x330>)
   d5ca6:	f8d4 0244 	ldr.w	r0, [r4, #580]	; 0x244
   d5caa:	f001 fe08 	bl	d78be <_ZN5Print5printEPK19__FlashStringHelper>
            _debugSerial->print(packetBuf.payload[1], HEX);
   d5cae:	f8d4 3378 	ldr.w	r3, [r4, #888]	; 0x378
   d5cb2:	f8d4 0244 	ldr.w	r0, [r4, #580]	; 0x244
   d5cb6:	7859      	ldrb	r1, [r3, #1]
   d5cb8:	2210      	movs	r2, #16
   d5cba:	f7ff fc19 	bl	d54f0 <_ZN5Print5printIhLi0EEEjT_i>
            _debugSerial->print(F(" len: "));
   d5cbe:	491b      	ldr	r1, [pc, #108]	; (d5d2c <_ZN13SFE_UBLOX_GPS7processEhP9ubxPackethh+0x338>)
   d5cc0:	f8d4 0244 	ldr.w	r0, [r4, #580]	; 0x244
   d5cc4:	f001 fdfb 	bl	d78be <_ZN5Print5printEPK19__FlashStringHelper>
            _debugSerial->println(packetBuf.len);
   d5cc8:	f8d4 9244 	ldr.w	r9, [r4, #580]	; 0x244
   d5ccc:	f8b4 1372 	ldrh.w	r1, [r4, #882]	; 0x372
   d5cd0:	220a      	movs	r2, #10
   d5cd2:	4648      	mov	r0, r9
   d5cd4:	f001 fe0f 	bl	d78f6 <_ZN5Print11printNumberEmh>
        n += println();
   d5cd8:	4648      	mov	r0, r9
   d5cda:	f001 fdf4 	bl	d78c6 <_ZN5Print7printlnEv>
        return n;
   d5cde:	e6b0      	b.n	d5a42 <_ZN13SFE_UBLOX_GPS7processEhP9ubxPackethh+0x4e>
    else if (activePacketBuffer == SFE_UBLOX_PACKET_PACKETCFG)
   d5ce0:	b913      	cbnz	r3, d5ce8 <_ZN13SFE_UBLOX_GPS7processEhP9ubxPackethh+0x2f4>
      processUBX(incoming, incomingUBX, requestedClass, requestedID);
   d5ce2:	4643      	mov	r3, r8
   d5ce4:	463a      	mov	r2, r7
   d5ce6:	e6b5      	b.n	d5a54 <_ZN13SFE_UBLOX_GPS7processEhP9ubxPackethh+0x60>
      processUBX(incoming, &packetBuf, requestedClass, requestedID);
   d5ce8:	4643      	mov	r3, r8
   d5cea:	f504 725c 	add.w	r2, r4, #880	; 0x370
   d5cee:	e6b1      	b.n	d5a54 <_ZN13SFE_UBLOX_GPS7processEhP9ubxPackethh+0x60>
  else if (currentSentence == NMEA)
   d5cf0:	2b01      	cmp	r3, #1
   d5cf2:	d104      	bne.n	d5cfe <_ZN13SFE_UBLOX_GPS7processEhP9ubxPackethh+0x30a>
    processNMEA(incoming); //Process each NMEA character
   d5cf4:	4629      	mov	r1, r5
   d5cf6:	4620      	mov	r0, r4
   d5cf8:	f7ff f820 	bl	d4d3c <_ZN13SFE_UBLOX_GPS11processNMEAEc>
   d5cfc:	e6b3      	b.n	d5a66 <_ZN13SFE_UBLOX_GPS7processEhP9ubxPackethh+0x72>
  else if (currentSentence == RTCM)
   d5cfe:	2b03      	cmp	r3, #3
   d5d00:	f47f aeb1 	bne.w	d5a66 <_ZN13SFE_UBLOX_GPS7processEhP9ubxPackethh+0x72>
    processRTCMframe(incoming); //Deal with RTCM bytes
   d5d04:	4629      	mov	r1, r5
   d5d06:	4620      	mov	r0, r4
}
   d5d08:	b003      	add	sp, #12
   d5d0a:	e8bd 43f0 	ldmia.w	sp!, {r4, r5, r6, r7, r8, r9, lr}
    processRTCMframe(incoming); //Deal with RTCM bytes
   d5d0e:	f7ff b81d 	b.w	d4d4c <_ZN13SFE_UBLOX_GPS16processRTCMframeEh>
   d5d12:	bf00      	nop
   d5d14:	000d9dd5 	.word	0x000d9dd5
   d5d18:	000d9c64 	.word	0x000d9c64
   d5d1c:	000d9e14 	.word	0x000d9e14
   d5d20:	000d9e4e 	.word	0x000d9e4e
   d5d24:	000d9c5c 	.word	0x000d9c5c
   d5d28:	000d9e7e 	.word	0x000d9e7e
   d5d2c:	000d9eae 	.word	0x000d9eae

000d5d30 <_ZN13SFE_UBLOX_GPS13checkUbloxI2CEP9ubxPackethh>:
{
   d5d30:	e92d 4ff0 	stmdb	sp!, {r4, r5, r6, r7, r8, r9, sl, fp, lr}
   d5d34:	4604      	mov	r4, r0
   d5d36:	b085      	sub	sp, #20
   d5d38:	4699      	mov	r9, r3
   d5d3a:	460f      	mov	r7, r1
   d5d3c:	4690      	mov	r8, r2
   d5d3e:	f000 ffe7 	bl	d6d10 <HAL_Timer_Get_Milli_Seconds>
  if (millis() - lastCheck >= i2cPollingWait)
   d5d42:	f8d4 3384 	ldr.w	r3, [r4, #900]	; 0x384
   d5d46:	1ac0      	subs	r0, r0, r3
   d5d48:	f894 3382 	ldrb.w	r3, [r4, #898]	; 0x382
   d5d4c:	4298      	cmp	r0, r3
   d5d4e:	f0c0 80dc 	bcc.w	d5f0a <_ZN13SFE_UBLOX_GPS13checkUbloxI2CEP9ubxPackethh+0x1da>
    _i2cPort->beginTransmission(_gpsI2Caddress);
   d5d52:	f894 1248 	ldrb.w	r1, [r4, #584]	; 0x248
   d5d56:	f8d4 0238 	ldr.w	r0, [r4, #568]	; 0x238
   d5d5a:	f002 fcb9 	bl	d86d0 <_ZN7TwoWire17beginTransmissionEh>
    _i2cPort->write(0xFD);                     //0xFD (MSB) and 0xFE (LSB) are the registers that contain number of bytes available
   d5d5e:	21fd      	movs	r1, #253	; 0xfd
   d5d60:	f8d4 0238 	ldr.w	r0, [r4, #568]	; 0x238
   d5d64:	f7fe ffa4 	bl	d4cb0 <_ZN7TwoWire5writeEi>
    if (_i2cPort->endTransmission(false) != 0) //Send a restart command. Do not release bus.
   d5d68:	f8d4 0238 	ldr.w	r0, [r4, #568]	; 0x238
   d5d6c:	2100      	movs	r1, #0
   d5d6e:	f002 fccb 	bl	d8708 <_ZN7TwoWire15endTransmissionEh>
   d5d72:	b118      	cbz	r0, d5d7c <_ZN13SFE_UBLOX_GPS13checkUbloxI2CEP9ubxPackethh+0x4c>
        return (false);
   d5d74:	2000      	movs	r0, #0
} //end checkUbloxI2C()
   d5d76:	b005      	add	sp, #20
   d5d78:	e8bd 8ff0 	ldmia.w	sp!, {r4, r5, r6, r7, r8, r9, sl, fp, pc}
    _i2cPort->requestFrom((uint8_t)_gpsI2Caddress, (uint8_t)2);
   d5d7c:	f894 1248 	ldrb.w	r1, [r4, #584]	; 0x248
   d5d80:	f8d4 0238 	ldr.w	r0, [r4, #568]	; 0x238
   d5d84:	2202      	movs	r2, #2
   d5d86:	f002 fca0 	bl	d86ca <_ZN7TwoWire11requestFromEhj>
    if (_i2cPort->available())
   d5d8a:	f8d4 0238 	ldr.w	r0, [r4, #568]	; 0x238
   d5d8e:	6803      	ldr	r3, [r0, #0]
   d5d90:	691b      	ldr	r3, [r3, #16]
   d5d92:	4798      	blx	r3
   d5d94:	b920      	cbnz	r0, d5da0 <_ZN13SFE_UBLOX_GPS13checkUbloxI2CEP9ubxPackethh+0x70>
      if (_printDebug == true)
   d5d96:	f894 3249 	ldrb.w	r3, [r4, #585]	; 0x249
   d5d9a:	b1d3      	cbz	r3, d5dd2 <_ZN13SFE_UBLOX_GPS13checkUbloxI2CEP9ubxPackethh+0xa2>
        _debugSerial->println(F("checkUbloxI2C: OK, zero bytes available"));
   d5d9c:	495c      	ldr	r1, [pc, #368]	; (d5f10 <_ZN13SFE_UBLOX_GPS13checkUbloxI2CEP9ubxPackethh+0x1e0>)
   d5d9e:	e014      	b.n	d5dca <_ZN13SFE_UBLOX_GPS13checkUbloxI2CEP9ubxPackethh+0x9a>
      uint8_t msb = _i2cPort->read();
   d5da0:	f8d4 0238 	ldr.w	r0, [r4, #568]	; 0x238
   d5da4:	6803      	ldr	r3, [r0, #0]
   d5da6:	695b      	ldr	r3, [r3, #20]
   d5da8:	4798      	blx	r3
   d5daa:	4605      	mov	r5, r0
      uint8_t lsb = _i2cPort->read();
   d5dac:	f8d4 0238 	ldr.w	r0, [r4, #568]	; 0x238
   d5db0:	6803      	ldr	r3, [r0, #0]
   d5db2:	695b      	ldr	r3, [r3, #20]
   d5db4:	4798      	blx	r3
   d5db6:	b2c6      	uxtb	r6, r0
      if (lsb == 0xFF)
   d5db8:	2eff      	cmp	r6, #255	; 0xff
   d5dba:	f894 3249 	ldrb.w	r3, [r4, #585]	; 0x249
   d5dbe:	d10d      	bne.n	d5ddc <_ZN13SFE_UBLOX_GPS13checkUbloxI2CEP9ubxPackethh+0xac>
        if ((_printDebug == true) || (_printLimitedDebug == true)) // Print this if doing limited debugging
   d5dc0:	b913      	cbnz	r3, d5dc8 <_ZN13SFE_UBLOX_GPS13checkUbloxI2CEP9ubxPackethh+0x98>
   d5dc2:	f894 324a 	ldrb.w	r3, [r4, #586]	; 0x24a
   d5dc6:	b123      	cbz	r3, d5dd2 <_ZN13SFE_UBLOX_GPS13checkUbloxI2CEP9ubxPackethh+0xa2>
          _debugSerial->println(F("checkUbloxI2C: u-blox bug, length lsb is 0xFF"));
   d5dc8:	4952      	ldr	r1, [pc, #328]	; (d5f14 <_ZN13SFE_UBLOX_GPS13checkUbloxI2CEP9ubxPackethh+0x1e4>)
   d5dca:	f8d4 0244 	ldr.w	r0, [r4, #580]	; 0x244
   d5dce:	f001 fd90 	bl	d78f2 <_ZN5Print7printlnEPK19__FlashStringHelper>
   d5dd2:	f000 ff9d 	bl	d6d10 <HAL_Timer_Get_Milli_Seconds>
        lastCheck = millis(); //Put off checking to avoid I2C bus traffic
   d5dd6:	f8c4 0384 	str.w	r0, [r4, #900]	; 0x384
   d5dda:	e7cb      	b.n	d5d74 <_ZN13SFE_UBLOX_GPS13checkUbloxI2CEP9ubxPackethh+0x44>
      bytesAvailable = (uint16_t)msb << 8 | lsb;
   d5ddc:	ea46 2005 	orr.w	r0, r6, r5, lsl #8
   d5de0:	b285      	uxth	r5, r0
   d5de2:	b202      	sxth	r2, r0
    if (bytesAvailable == 0)
   d5de4:	2d00      	cmp	r5, #0
   d5de6:	d0d6      	beq.n	d5d96 <_ZN13SFE_UBLOX_GPS13checkUbloxI2CEP9ubxPackethh+0x66>
    if (bytesAvailable & ((uint16_t)1 << 15))
   d5de8:	2a00      	cmp	r2, #0
   d5dea:	da14      	bge.n	d5e16 <_ZN13SFE_UBLOX_GPS13checkUbloxI2CEP9ubxPackethh+0xe6>
      bytesAvailable &= ~((uint16_t)1 << 15);
   d5dec:	f3c5 050e 	ubfx	r5, r5, #0, #15
      if ((_printDebug == true) || (_printLimitedDebug == true)) // Print this if doing limited debugging
   d5df0:	b913      	cbnz	r3, d5df8 <_ZN13SFE_UBLOX_GPS13checkUbloxI2CEP9ubxPackethh+0xc8>
   d5df2:	f894 324a 	ldrb.w	r3, [r4, #586]	; 0x24a
   d5df6:	b173      	cbz	r3, d5e16 <_ZN13SFE_UBLOX_GPS13checkUbloxI2CEP9ubxPackethh+0xe6>
        _debugSerial->print(F("checkUbloxI2C: Bytes available error:"));
   d5df8:	4947      	ldr	r1, [pc, #284]	; (d5f18 <_ZN13SFE_UBLOX_GPS13checkUbloxI2CEP9ubxPackethh+0x1e8>)
   d5dfa:	f8d4 0244 	ldr.w	r0, [r4, #580]	; 0x244
   d5dfe:	f001 fd5e 	bl	d78be <_ZN5Print5printEPK19__FlashStringHelper>
        _debugSerial->println(bytesAvailable);
   d5e02:	f8d4 6244 	ldr.w	r6, [r4, #580]	; 0x244
        return printNumber(val, base) + t;
   d5e06:	220a      	movs	r2, #10
   d5e08:	4629      	mov	r1, r5
   d5e0a:	4630      	mov	r0, r6
   d5e0c:	f001 fd73 	bl	d78f6 <_ZN5Print11printNumberEmh>
        n += println();
   d5e10:	4630      	mov	r0, r6
   d5e12:	f001 fd58 	bl	d78c6 <_ZN5Print7printlnEv>
    if (bytesAvailable > 100)
   d5e16:	2d64      	cmp	r5, #100	; 0x64
   d5e18:	f894 3249 	ldrb.w	r3, [r4, #585]	; 0x249
   d5e1c:	d959      	bls.n	d5ed2 <_ZN13SFE_UBLOX_GPS13checkUbloxI2CEP9ubxPackethh+0x1a2>
      if (_printDebug == true)
   d5e1e:	b17b      	cbz	r3, d5e40 <_ZN13SFE_UBLOX_GPS13checkUbloxI2CEP9ubxPackethh+0x110>
        _debugSerial->print(F("checkUbloxI2C: Large packet of "));
   d5e20:	493e      	ldr	r1, [pc, #248]	; (d5f1c <_ZN13SFE_UBLOX_GPS13checkUbloxI2CEP9ubxPackethh+0x1ec>)
   d5e22:	f8d4 0244 	ldr.w	r0, [r4, #580]	; 0x244
   d5e26:	f001 fd4a 	bl	d78be <_ZN5Print5printEPK19__FlashStringHelper>
        return printNumber(val, base) + t;
   d5e2a:	4629      	mov	r1, r5
   d5e2c:	f8d4 0244 	ldr.w	r0, [r4, #580]	; 0x244
   d5e30:	220a      	movs	r2, #10
   d5e32:	f001 fd60 	bl	d78f6 <_ZN5Print11printNumberEmh>
        _debugSerial->println(F(" bytes received"));
   d5e36:	493a      	ldr	r1, [pc, #232]	; (d5f20 <_ZN13SFE_UBLOX_GPS13checkUbloxI2CEP9ubxPackethh+0x1f0>)
        _debugSerial->println(F(" bytes"));
   d5e38:	f8d4 0244 	ldr.w	r0, [r4, #580]	; 0x244
   d5e3c:	f001 fd59 	bl	d78f2 <_ZN5Print7printlnEPK19__FlashStringHelper>
                _debugSerial->println(F("checkUbloxU2C: u-blox error, module not ready with data"));
   d5e40:	f8df a0e8 	ldr.w	sl, [pc, #232]	; d5f2c <_ZN13SFE_UBLOX_GPS13checkUbloxI2CEP9ubxPackethh+0x1fc>
    while (bytesAvailable)
   d5e44:	2d00      	cmp	r5, #0
   d5e46:	d060      	beq.n	d5f0a <_ZN13SFE_UBLOX_GPS13checkUbloxI2CEP9ubxPackethh+0x1da>
      _i2cPort->beginTransmission(_gpsI2Caddress);
   d5e48:	f894 1248 	ldrb.w	r1, [r4, #584]	; 0x248
   d5e4c:	f8d4 0238 	ldr.w	r0, [r4, #568]	; 0x238
   d5e50:	f002 fc3e 	bl	d86d0 <_ZN7TwoWire17beginTransmissionEh>
      _i2cPort->write(0xFF);                     //0xFF is the register to read data from
   d5e54:	21ff      	movs	r1, #255	; 0xff
   d5e56:	f8d4 0238 	ldr.w	r0, [r4, #568]	; 0x238
   d5e5a:	f7fe ff29 	bl	d4cb0 <_ZN7TwoWire5writeEi>
      if (_i2cPort->endTransmission(false) != 0) //Send a restart command. Do not release bus.
   d5e5e:	f8d4 0238 	ldr.w	r0, [r4, #568]	; 0x238
   d5e62:	2100      	movs	r1, #0
   d5e64:	f002 fc50 	bl	d8708 <_ZN7TwoWire15endTransmissionEh>
   d5e68:	2800      	cmp	r0, #0
   d5e6a:	d183      	bne.n	d5d74 <_ZN13SFE_UBLOX_GPS13checkUbloxI2CEP9ubxPackethh+0x44>
      if (bytesToRead > i2cTransactionSize)
   d5e6c:	7826      	ldrb	r6, [r4, #0]
   d5e6e:	42ae      	cmp	r6, r5
   d5e70:	bf28      	it	cs
   d5e72:	462e      	movcs	r6, r5
      _i2cPort->requestFrom((uint8_t)_gpsI2Caddress, (uint8_t)bytesToRead);
   d5e74:	f894 1248 	ldrb.w	r1, [r4, #584]	; 0x248
   d5e78:	f8d4 0238 	ldr.w	r0, [r4, #568]	; 0x238
   d5e7c:	4632      	mov	r2, r6
   d5e7e:	f002 fc24 	bl	d86ca <_ZN7TwoWire11requestFromEhj>
      if (_i2cPort->available())
   d5e82:	f8d4 0238 	ldr.w	r0, [r4, #568]	; 0x238
   d5e86:	6803      	ldr	r3, [r0, #0]
   d5e88:	691b      	ldr	r3, [r3, #16]
   d5e8a:	4798      	blx	r3
   d5e8c:	2800      	cmp	r0, #0
   d5e8e:	f43f af71 	beq.w	d5d74 <_ZN13SFE_UBLOX_GPS13checkUbloxI2CEP9ubxPackethh+0x44>
   d5e92:	f04f 0b00 	mov.w	fp, #0
        for (uint16_t x = 0; x < bytesToRead; x++)
   d5e96:	fa1f f38b 	uxth.w	r3, fp
   d5e9a:	42b3      	cmp	r3, r6
   d5e9c:	9303      	str	r3, [sp, #12]
   d5e9e:	d231      	bcs.n	d5f04 <_ZN13SFE_UBLOX_GPS13checkUbloxI2CEP9ubxPackethh+0x1d4>
          uint8_t incoming = _i2cPort->read(); //Grab the actual character
   d5ea0:	f8d4 0238 	ldr.w	r0, [r4, #568]	; 0x238
   d5ea4:	6802      	ldr	r2, [r0, #0]
   d5ea6:	6952      	ldr	r2, [r2, #20]
   d5ea8:	4790      	blx	r2
          if (x == 0)
   d5eaa:	9b03      	ldr	r3, [sp, #12]
          uint8_t incoming = _i2cPort->read(); //Grab the actual character
   d5eac:	b2c1      	uxtb	r1, r0
          if (x == 0)
   d5eae:	b9fb      	cbnz	r3, d5ef0 <_ZN13SFE_UBLOX_GPS13checkUbloxI2CEP9ubxPackethh+0x1c0>
            if (incoming == 0x7F)
   d5eb0:	297f      	cmp	r1, #127	; 0x7f
   d5eb2:	d11d      	bne.n	d5ef0 <_ZN13SFE_UBLOX_GPS13checkUbloxI2CEP9ubxPackethh+0x1c0>
              if ((_printDebug == true) || (_printLimitedDebug == true)) // Print this if doing limited debugging
   d5eb4:	f894 3249 	ldrb.w	r3, [r4, #585]	; 0x249
   d5eb8:	b913      	cbnz	r3, d5ec0 <_ZN13SFE_UBLOX_GPS13checkUbloxI2CEP9ubxPackethh+0x190>
   d5eba:	f894 324a 	ldrb.w	r3, [r4, #586]	; 0x24a
   d5ebe:	b123      	cbz	r3, d5eca <_ZN13SFE_UBLOX_GPS13checkUbloxI2CEP9ubxPackethh+0x19a>
                _debugSerial->println(F("checkUbloxU2C: u-blox error, module not ready with data"));
   d5ec0:	f8d4 0244 	ldr.w	r0, [r4, #580]	; 0x244
   d5ec4:	4651      	mov	r1, sl
   d5ec6:	f001 fd14 	bl	d78f2 <_ZN5Print7printlnEPK19__FlashStringHelper>
              delay(5); //In logic analyzation, the module starting responding after 1.48ms
   d5eca:	2005      	movs	r0, #5
   d5ecc:	f001 fe18 	bl	d7b00 <delay>
              goto TRY_AGAIN;
   d5ed0:	e7d0      	b.n	d5e74 <_ZN13SFE_UBLOX_GPS13checkUbloxI2CEP9ubxPackethh+0x144>
      if (_printDebug == true)
   d5ed2:	2b00      	cmp	r3, #0
   d5ed4:	d0b4      	beq.n	d5e40 <_ZN13SFE_UBLOX_GPS13checkUbloxI2CEP9ubxPackethh+0x110>
        _debugSerial->print(F("checkUbloxI2C: Reading "));
   d5ed6:	4913      	ldr	r1, [pc, #76]	; (d5f24 <_ZN13SFE_UBLOX_GPS13checkUbloxI2CEP9ubxPackethh+0x1f4>)
   d5ed8:	f8d4 0244 	ldr.w	r0, [r4, #580]	; 0x244
   d5edc:	f001 fcef 	bl	d78be <_ZN5Print5printEPK19__FlashStringHelper>
   d5ee0:	4629      	mov	r1, r5
   d5ee2:	f8d4 0244 	ldr.w	r0, [r4, #580]	; 0x244
   d5ee6:	220a      	movs	r2, #10
   d5ee8:	f001 fd05 	bl	d78f6 <_ZN5Print11printNumberEmh>
        _debugSerial->println(F(" bytes"));
   d5eec:	490e      	ldr	r1, [pc, #56]	; (d5f28 <_ZN13SFE_UBLOX_GPS13checkUbloxI2CEP9ubxPackethh+0x1f8>)
   d5eee:	e7a3      	b.n	d5e38 <_ZN13SFE_UBLOX_GPS13checkUbloxI2CEP9ubxPackethh+0x108>
          process(incoming, incomingUBX, requestedClass, requestedID); //Process this valid character
   d5ef0:	f8cd 9000 	str.w	r9, [sp]
   d5ef4:	4643      	mov	r3, r8
   d5ef6:	463a      	mov	r2, r7
   d5ef8:	4620      	mov	r0, r4
   d5efa:	f7ff fd7b 	bl	d59f4 <_ZN13SFE_UBLOX_GPS7processEhP9ubxPackethh>
        for (uint16_t x = 0; x < bytesToRead; x++)
   d5efe:	f10b 0b01 	add.w	fp, fp, #1
   d5f02:	e7c8      	b.n	d5e96 <_ZN13SFE_UBLOX_GPS13checkUbloxI2CEP9ubxPackethh+0x166>
      bytesAvailable -= bytesToRead;
   d5f04:	1bad      	subs	r5, r5, r6
   d5f06:	b2ad      	uxth	r5, r5
    while (bytesAvailable)
   d5f08:	e79c      	b.n	d5e44 <_ZN13SFE_UBLOX_GPS13checkUbloxI2CEP9ubxPackethh+0x114>
  return (true);
   d5f0a:	2001      	movs	r0, #1
   d5f0c:	e733      	b.n	d5d76 <_ZN13SFE_UBLOX_GPS13checkUbloxI2CEP9ubxPackethh+0x46>
   d5f0e:	bf00      	nop
   d5f10:	000d9ee3 	.word	0x000d9ee3
   d5f14:	000d9eb5 	.word	0x000d9eb5
   d5f18:	000d9f0b 	.word	0x000d9f0b
   d5f1c:	000d9f31 	.word	0x000d9f31
   d5f20:	000d9f51 	.word	0x000d9f51
   d5f24:	000d9f61 	.word	0x000d9f61
   d5f28:	000d9f79 	.word	0x000d9f79
   d5f2c:	000d9f80 	.word	0x000d9f80

000d5f30 <_ZN13SFE_UBLOX_GPS16checkUbloxSerialEP9ubxPackethh>:
{
   d5f30:	b5f7      	push	{r0, r1, r2, r4, r5, r6, r7, lr}
   d5f32:	4604      	mov	r4, r0
   d5f34:	460d      	mov	r5, r1
   d5f36:	4616      	mov	r6, r2
   d5f38:	461f      	mov	r7, r3
  while (_serialPort->available())
   d5f3a:	f8d4 023c 	ldr.w	r0, [r4, #572]	; 0x23c
   d5f3e:	6803      	ldr	r3, [r0, #0]
   d5f40:	691b      	ldr	r3, [r3, #16]
   d5f42:	4798      	blx	r3
   d5f44:	b160      	cbz	r0, d5f60 <_ZN13SFE_UBLOX_GPS16checkUbloxSerialEP9ubxPackethh+0x30>
    process(_serialPort->read(), incomingUBX, requestedClass, requestedID);
   d5f46:	f8d4 023c 	ldr.w	r0, [r4, #572]	; 0x23c
   d5f4a:	6803      	ldr	r3, [r0, #0]
   d5f4c:	695b      	ldr	r3, [r3, #20]
   d5f4e:	4798      	blx	r3
   d5f50:	9700      	str	r7, [sp, #0]
   d5f52:	b2c1      	uxtb	r1, r0
   d5f54:	4633      	mov	r3, r6
   d5f56:	462a      	mov	r2, r5
   d5f58:	4620      	mov	r0, r4
   d5f5a:	f7ff fd4b 	bl	d59f4 <_ZN13SFE_UBLOX_GPS7processEhP9ubxPackethh>
  while (_serialPort->available())
   d5f5e:	e7ec      	b.n	d5f3a <_ZN13SFE_UBLOX_GPS16checkUbloxSerialEP9ubxPackethh+0xa>
} //end checkUbloxSerial()
   d5f60:	2001      	movs	r0, #1
   d5f62:	b003      	add	sp, #12
   d5f64:	bdf0      	pop	{r4, r5, r6, r7, pc}

000d5f66 <_ZN13SFE_UBLOX_GPS18checkUbloxInternalEP9ubxPackethh>:
{
   d5f66:	b410      	push	{r4}
  if (commType == COMM_TYPE_I2C)
   d5f68:	f890 4236 	ldrb.w	r4, [r0, #566]	; 0x236
   d5f6c:	b91c      	cbnz	r4, d5f76 <_ZN13SFE_UBLOX_GPS18checkUbloxInternalEP9ubxPackethh+0x10>
}
   d5f6e:	f85d 4b04 	ldr.w	r4, [sp], #4
    return (checkUbloxI2C(incomingUBX, requestedClass, requestedID));
   d5f72:	f7ff bedd 	b.w	d5d30 <_ZN13SFE_UBLOX_GPS13checkUbloxI2CEP9ubxPackethh>
  else if (commType == COMM_TYPE_SERIAL)
   d5f76:	2c01      	cmp	r4, #1
   d5f78:	d103      	bne.n	d5f82 <_ZN13SFE_UBLOX_GPS18checkUbloxInternalEP9ubxPackethh+0x1c>
}
   d5f7a:	f85d 4b04 	ldr.w	r4, [sp], #4
    return (checkUbloxSerial(incomingUBX, requestedClass, requestedID));
   d5f7e:	f7ff bfd7 	b.w	d5f30 <_ZN13SFE_UBLOX_GPS16checkUbloxSerialEP9ubxPackethh>
}
   d5f82:	2000      	movs	r0, #0
   d5f84:	f85d 4b04 	ldr.w	r4, [sp], #4
   d5f88:	4770      	bx	lr

000d5f8a <_ZN5Print5printImLi0EEEjT_i>:
size_t Print::print(T n, int base)
   d5f8a:	b410      	push	{r4}
    if (base == 0) {
   d5f8c:	b92a      	cbnz	r2, d5f9a <_ZN5Print5printImLi0EEEjT_i+0x10>
        return write(n);
   d5f8e:	6802      	ldr	r2, [r0, #0]
    }
}
   d5f90:	f85d 4b04 	ldr.w	r4, [sp], #4
        return write(n);
   d5f94:	6892      	ldr	r2, [r2, #8]
   d5f96:	b2c9      	uxtb	r1, r1
   d5f98:	4710      	bx	r2
}
   d5f9a:	f85d 4b04 	ldr.w	r4, [sp], #4
        return printNumber(val, base) + t;
   d5f9e:	b2d2      	uxtb	r2, r2
   d5fa0:	f001 bca9 	b.w	d78f6 <_ZN5Print11printNumberEmh>

000d5fa4 <_ZN13SFE_UBLOX_GPS18waitForACKResponseEP9ubxPackethht>:
{
   d5fa4:	e92d 4ff7 	stmdb	sp!, {r0, r1, r2, r4, r5, r6, r7, r8, r9, sl, fp, lr}
   d5fa8:	4698      	mov	r8, r3
  outgoingUBX->valid = SFE_UBLOX_PACKET_VALIDITY_NOT_DEFINED; //This will go VALID (or NOT_VALID) when we receive a response to the packet we sent
   d5faa:	2302      	movs	r3, #2
   d5fac:	738b      	strb	r3, [r1, #14]
  packetAck.valid = SFE_UBLOX_PACKET_VALIDITY_NOT_DEFINED;
   d5fae:	f880 335e 	strb.w	r3, [r0, #862]	; 0x35e
  packetBuf.valid = SFE_UBLOX_PACKET_VALIDITY_NOT_DEFINED;
   d5fb2:	f880 337e 	strb.w	r3, [r0, #894]	; 0x37e
  outgoingUBX->classAndIDmatch = SFE_UBLOX_PACKET_VALIDITY_NOT_DEFINED; // This will go VALID (or NOT_VALID) when we receive a packet that matches the requested class and ID
   d5fb6:	73cb      	strb	r3, [r1, #15]
  packetAck.classAndIDmatch = SFE_UBLOX_PACKET_VALIDITY_NOT_DEFINED;
   d5fb8:	f880 335f 	strb.w	r3, [r0, #863]	; 0x35f
  packetBuf.classAndIDmatch = SFE_UBLOX_PACKET_VALIDITY_NOT_DEFINED;
   d5fbc:	f880 337f 	strb.w	r3, [r0, #895]	; 0x37f
{
   d5fc0:	f8bd 9030 	ldrh.w	r9, [sp, #48]	; 0x30
          _debugSerial->print(F("waitForACKResponse: valid data after "));
   d5fc4:	f8df a2b4 	ldr.w	sl, [pc, #692]	; d627c <_ZN13SFE_UBLOX_GPS18waitForACKResponseEP9ubxPackethht+0x2d8>
          _debugSerial->println(F(" msec. Waiting for ACK."));
   d5fc8:	f8df b2b4 	ldr.w	fp, [pc, #692]	; d6280 <_ZN13SFE_UBLOX_GPS18waitForACKResponseEP9ubxPackethht+0x2dc>
{
   d5fcc:	4604      	mov	r4, r0
   d5fce:	460d      	mov	r5, r1
   d5fd0:	4617      	mov	r7, r2
   d5fd2:	f000 fe9d 	bl	d6d10 <HAL_Timer_Get_Milli_Seconds>
   d5fd6:	4606      	mov	r6, r0
   d5fd8:	f000 fe9a 	bl	d6d10 <HAL_Timer_Get_Milli_Seconds>
  while (millis() - startTime < maxTime)
   d5fdc:	1b80      	subs	r0, r0, r6
   d5fde:	4548      	cmp	r0, r9
   d5fe0:	f080 80ac 	bcs.w	d613c <_ZN13SFE_UBLOX_GPS18waitForACKResponseEP9ubxPackethht+0x198>
    if (checkUbloxInternal(outgoingUBX, requestedClass, requestedID) == true) //See if new data is available. Process bytes as they come in.
   d5fe4:	4643      	mov	r3, r8
   d5fe6:	463a      	mov	r2, r7
   d5fe8:	4629      	mov	r1, r5
   d5fea:	4620      	mov	r0, r4
   d5fec:	f7ff ffbb 	bl	d5f66 <_ZN13SFE_UBLOX_GPS18checkUbloxInternalEP9ubxPackethh>
   d5ff0:	2800      	cmp	r0, #0
   d5ff2:	f000 809e 	beq.w	d6132 <_ZN13SFE_UBLOX_GPS18waitForACKResponseEP9ubxPackethht+0x18e>
      if ((outgoingUBX->classAndIDmatch == SFE_UBLOX_PACKET_VALIDITY_VALID) && (packetAck.classAndIDmatch == SFE_UBLOX_PACKET_VALIDITY_VALID) && (outgoingUBX->valid == SFE_UBLOX_PACKET_VALIDITY_VALID) && (outgoingUBX->cls == requestedClass) && (outgoingUBX->id == requestedID))
   d5ff6:	7bea      	ldrb	r2, [r5, #15]
   d5ff8:	f894 335f 	ldrb.w	r3, [r4, #863]	; 0x35f
   d5ffc:	2a01      	cmp	r2, #1
   d5ffe:	d126      	bne.n	d604e <_ZN13SFE_UBLOX_GPS18waitForACKResponseEP9ubxPackethht+0xaa>
   d6000:	2b01      	cmp	r3, #1
   d6002:	f040 810c 	bne.w	d621e <_ZN13SFE_UBLOX_GPS18waitForACKResponseEP9ubxPackethht+0x27a>
   d6006:	7ba9      	ldrb	r1, [r5, #14]
   d6008:	2901      	cmp	r1, #1
   d600a:	7829      	ldrb	r1, [r5, #0]
   d600c:	d13c      	bne.n	d6088 <_ZN13SFE_UBLOX_GPS18waitForACKResponseEP9ubxPackethht+0xe4>
   d600e:	42b9      	cmp	r1, r7
   d6010:	d13f      	bne.n	d6092 <_ZN13SFE_UBLOX_GPS18waitForACKResponseEP9ubxPackethht+0xee>
   d6012:	7868      	ldrb	r0, [r5, #1]
   d6014:	4540      	cmp	r0, r8
   d6016:	d137      	bne.n	d6088 <_ZN13SFE_UBLOX_GPS18waitForACKResponseEP9ubxPackethht+0xe4>
        if (_printDebug == true)
   d6018:	f894 3249 	ldrb.w	r3, [r4, #585]	; 0x249
   d601c:	b91b      	cbnz	r3, d6026 <_ZN13SFE_UBLOX_GPS18waitForACKResponseEP9ubxPackethht+0x82>
        return (SFE_UBLOX_STATUS_DATA_RECEIVED); //We received valid data and a correct ACK!
   d601e:	200b      	movs	r0, #11
}
   d6020:	b003      	add	sp, #12
   d6022:	e8bd 8ff0 	ldmia.w	sp!, {r4, r5, r6, r7, r8, r9, sl, fp, pc}
          _debugSerial->print(F("waitForACKResponse: valid data and valid ACK received after "));
   d6026:	4989      	ldr	r1, [pc, #548]	; (d624c <_ZN13SFE_UBLOX_GPS18waitForACKResponseEP9ubxPackethht+0x2a8>)
   d6028:	f8d4 0244 	ldr.w	r0, [r4, #580]	; 0x244
   d602c:	f001 fc47 	bl	d78be <_ZN5Print5printEPK19__FlashStringHelper>
          _debugSerial->print(millis() - startTime);
   d6030:	f8d4 5244 	ldr.w	r5, [r4, #580]	; 0x244
   d6034:	f000 fe6c 	bl	d6d10 <HAL_Timer_Get_Milli_Seconds>
   d6038:	220a      	movs	r2, #10
   d603a:	1b81      	subs	r1, r0, r6
   d603c:	4628      	mov	r0, r5
   d603e:	f7ff ffa4 	bl	d5f8a <_ZN5Print5printImLi0EEEjT_i>
          _debugSerial->println(F(" msec"));
   d6042:	4983      	ldr	r1, [pc, #524]	; (d6250 <_ZN13SFE_UBLOX_GPS18waitForACKResponseEP9ubxPackethht+0x2ac>)
   d6044:	f8d4 0244 	ldr.w	r0, [r4, #580]	; 0x244
   d6048:	f001 fc53 	bl	d78f2 <_ZN5Print7printlnEPK19__FlashStringHelper>
   d604c:	e7e7      	b.n	d601e <_ZN13SFE_UBLOX_GPS18waitForACKResponseEP9ubxPackethht+0x7a>
      else if ((outgoingUBX->classAndIDmatch == SFE_UBLOX_PACKET_VALIDITY_NOT_DEFINED) && (packetAck.classAndIDmatch == SFE_UBLOX_PACKET_VALIDITY_VALID))
   d604e:	2a02      	cmp	r2, #2
   d6050:	d137      	bne.n	d60c2 <_ZN13SFE_UBLOX_GPS18waitForACKResponseEP9ubxPackethht+0x11e>
   d6052:	2b01      	cmp	r3, #1
   d6054:	f040 80c9 	bne.w	d61ea <_ZN13SFE_UBLOX_GPS18waitForACKResponseEP9ubxPackethht+0x246>
        if (_printDebug == true)
   d6058:	f894 3249 	ldrb.w	r3, [r4, #585]	; 0x249
   d605c:	b193      	cbz	r3, d6084 <_ZN13SFE_UBLOX_GPS18waitForACKResponseEP9ubxPackethht+0xe0>
          _debugSerial->print(F("waitForACKResponse: no data and valid ACK after "));
   d605e:	497d      	ldr	r1, [pc, #500]	; (d6254 <_ZN13SFE_UBLOX_GPS18waitForACKResponseEP9ubxPackethht+0x2b0>)
   d6060:	f8d4 0244 	ldr.w	r0, [r4, #580]	; 0x244
   d6064:	f001 fc2b 	bl	d78be <_ZN5Print5printEPK19__FlashStringHelper>
          _debugSerial->print(millis() - startTime);
   d6068:	f8d4 5244 	ldr.w	r5, [r4, #580]	; 0x244
   d606c:	f000 fe50 	bl	d6d10 <HAL_Timer_Get_Milli_Seconds>
   d6070:	220a      	movs	r2, #10
   d6072:	1b81      	subs	r1, r0, r6
   d6074:	4628      	mov	r0, r5
   d6076:	f7ff ff88 	bl	d5f8a <_ZN5Print5printImLi0EEEjT_i>
          _debugSerial->println(F(" msec"));
   d607a:	4975      	ldr	r1, [pc, #468]	; (d6250 <_ZN13SFE_UBLOX_GPS18waitForACKResponseEP9ubxPackethht+0x2ac>)
   d607c:	f8d4 0244 	ldr.w	r0, [r4, #580]	; 0x244
   d6080:	f001 fc37 	bl	d78f2 <_ZN5Print7printlnEPK19__FlashStringHelper>
        return (SFE_UBLOX_STATUS_DATA_SENT); //We got an ACK but no data...
   d6084:	200a      	movs	r0, #10
   d6086:	e7cb      	b.n	d6020 <_ZN13SFE_UBLOX_GPS18waitForACKResponseEP9ubxPackethht+0x7c>
      else if ((outgoingUBX->classAndIDmatch == SFE_UBLOX_PACKET_VALIDITY_VALID) && (packetAck.classAndIDmatch == SFE_UBLOX_PACKET_VALIDITY_VALID) && ((outgoingUBX->cls != requestedClass) || (outgoingUBX->id != requestedID)))
   d6088:	42b9      	cmp	r1, r7
   d608a:	d102      	bne.n	d6092 <_ZN13SFE_UBLOX_GPS18waitForACKResponseEP9ubxPackethht+0xee>
   d608c:	7869      	ldrb	r1, [r5, #1]
   d608e:	4541      	cmp	r1, r8
   d6090:	d01a      	beq.n	d60c8 <_ZN13SFE_UBLOX_GPS18waitForACKResponseEP9ubxPackethht+0x124>
        if (_printDebug == true)
   d6092:	f894 3249 	ldrb.w	r3, [r4, #585]	; 0x249
   d6096:	b193      	cbz	r3, d60be <_ZN13SFE_UBLOX_GPS18waitForACKResponseEP9ubxPackethht+0x11a>
          _debugSerial->print(F("waitForACKResponse: data being OVERWRITTEN after "));
   d6098:	496f      	ldr	r1, [pc, #444]	; (d6258 <_ZN13SFE_UBLOX_GPS18waitForACKResponseEP9ubxPackethht+0x2b4>)
   d609a:	f8d4 0244 	ldr.w	r0, [r4, #580]	; 0x244
   d609e:	f001 fc0e 	bl	d78be <_ZN5Print5printEPK19__FlashStringHelper>
          _debugSerial->print(millis() - startTime);
   d60a2:	f8d4 5244 	ldr.w	r5, [r4, #580]	; 0x244
   d60a6:	f000 fe33 	bl	d6d10 <HAL_Timer_Get_Milli_Seconds>
   d60aa:	220a      	movs	r2, #10
   d60ac:	1b81      	subs	r1, r0, r6
   d60ae:	4628      	mov	r0, r5
   d60b0:	f7ff ff6b 	bl	d5f8a <_ZN5Print5printImLi0EEEjT_i>
          _debugSerial->println(F(" msec"));
   d60b4:	4966      	ldr	r1, [pc, #408]	; (d6250 <_ZN13SFE_UBLOX_GPS18waitForACKResponseEP9ubxPackethht+0x2ac>)
   d60b6:	f8d4 0244 	ldr.w	r0, [r4, #580]	; 0x244
   d60ba:	f001 fc1a 	bl	d78f2 <_ZN5Print7printlnEPK19__FlashStringHelper>
        return (SFE_UBLOX_STATUS_DATA_OVERWRITTEN); // Data was valid but has been or is being overwritten
   d60be:	200d      	movs	r0, #13
   d60c0:	e7ae      	b.n	d6020 <_ZN13SFE_UBLOX_GPS18waitForACKResponseEP9ubxPackethht+0x7c>
      else if ((packetAck.classAndIDmatch == SFE_UBLOX_PACKET_VALIDITY_VALID) && (outgoingUBX->classAndIDmatch == SFE_UBLOX_PACKET_VALIDITY_NOT_VALID) && (outgoingUBX->valid == SFE_UBLOX_PACKET_VALIDITY_NOT_VALID))
   d60c2:	2b01      	cmp	r3, #1
   d60c4:	f040 8091 	bne.w	d61ea <_ZN13SFE_UBLOX_GPS18waitForACKResponseEP9ubxPackethht+0x246>
   d60c8:	89e9      	ldrh	r1, [r5, #14]
   d60ca:	2900      	cmp	r1, #0
   d60cc:	d171      	bne.n	d61b2 <_ZN13SFE_UBLOX_GPS18waitForACKResponseEP9ubxPackethht+0x20e>
        if (_printDebug == true)
   d60ce:	f894 3249 	ldrb.w	r3, [r4, #585]	; 0x249
   d60d2:	b193      	cbz	r3, d60fa <_ZN13SFE_UBLOX_GPS18waitForACKResponseEP9ubxPackethht+0x156>
          _debugSerial->print(F("waitForACKResponse: CRC failed after "));
   d60d4:	4961      	ldr	r1, [pc, #388]	; (d625c <_ZN13SFE_UBLOX_GPS18waitForACKResponseEP9ubxPackethht+0x2b8>)
   d60d6:	f8d4 0244 	ldr.w	r0, [r4, #580]	; 0x244
   d60da:	f001 fbf0 	bl	d78be <_ZN5Print5printEPK19__FlashStringHelper>
          _debugSerial->print(millis() - startTime);
   d60de:	f8d4 5244 	ldr.w	r5, [r4, #580]	; 0x244
   d60e2:	f000 fe15 	bl	d6d10 <HAL_Timer_Get_Milli_Seconds>
   d60e6:	220a      	movs	r2, #10
   d60e8:	1b81      	subs	r1, r0, r6
   d60ea:	4628      	mov	r0, r5
   d60ec:	f7ff ff4d 	bl	d5f8a <_ZN5Print5printImLi0EEEjT_i>
          _debugSerial->println(F(" msec"));
   d60f0:	4957      	ldr	r1, [pc, #348]	; (d6250 <_ZN13SFE_UBLOX_GPS18waitForACKResponseEP9ubxPackethht+0x2ac>)
   d60f2:	f8d4 0244 	ldr.w	r0, [r4, #580]	; 0x244
   d60f6:	f001 fbfc 	bl	d78f2 <_ZN5Print7printlnEPK19__FlashStringHelper>
        return (SFE_UBLOX_STATUS_CRC_FAIL); //Checksum fail
   d60fa:	2002      	movs	r0, #2
   d60fc:	e790      	b.n	d6020 <_ZN13SFE_UBLOX_GPS18waitForACKResponseEP9ubxPackethht+0x7c>
      else if ((outgoingUBX->classAndIDmatch == SFE_UBLOX_PACKET_VALIDITY_VALID) && (packetAck.classAndIDmatch == SFE_UBLOX_PACKET_VALIDITY_NOT_DEFINED))
   d60fe:	2b02      	cmp	r3, #2
   d6100:	d117      	bne.n	d6132 <_ZN13SFE_UBLOX_GPS18waitForACKResponseEP9ubxPackethht+0x18e>
        if (_printDebug == true)
   d6102:	f894 3249 	ldrb.w	r3, [r4, #585]	; 0x249
   d6106:	b1a3      	cbz	r3, d6132 <_ZN13SFE_UBLOX_GPS18waitForACKResponseEP9ubxPackethht+0x18e>
          _debugSerial->print(F("waitForACKResponse: valid data after "));
   d6108:	4651      	mov	r1, sl
   d610a:	f8d4 0244 	ldr.w	r0, [r4, #580]	; 0x244
   d610e:	f001 fbd6 	bl	d78be <_ZN5Print5printEPK19__FlashStringHelper>
          _debugSerial->print(millis() - startTime);
   d6112:	f8d4 3244 	ldr.w	r3, [r4, #580]	; 0x244
   d6116:	9301      	str	r3, [sp, #4]
   d6118:	f000 fdfa 	bl	d6d10 <HAL_Timer_Get_Milli_Seconds>
   d611c:	9b01      	ldr	r3, [sp, #4]
   d611e:	1b81      	subs	r1, r0, r6
   d6120:	220a      	movs	r2, #10
   d6122:	4618      	mov	r0, r3
   d6124:	f7ff ff31 	bl	d5f8a <_ZN5Print5printImLi0EEEjT_i>
          _debugSerial->println(F(" msec. Waiting for ACK."));
   d6128:	f8d4 0244 	ldr.w	r0, [r4, #580]	; 0x244
   d612c:	4659      	mov	r1, fp
   d612e:	f001 fbe0 	bl	d78f2 <_ZN5Print7printlnEPK19__FlashStringHelper>
inline unsigned long micros(void) { return HAL_Timer_Get_Micro_Seconds(); }
void delay(unsigned long ms);
inline void delayMicroseconds(unsigned int us) { HAL_Delay_Microseconds(us); }
   d6132:	f44f 70fa 	mov.w	r0, #500	; 0x1f4
   d6136:	f000 fde3 	bl	d6d00 <HAL_Delay_Microseconds>
   d613a:	e74d      	b.n	d5fd8 <_ZN13SFE_UBLOX_GPS18waitForACKResponseEP9ubxPackethht+0x34>
  if ((outgoingUBX->classAndIDmatch == SFE_UBLOX_PACKET_VALIDITY_VALID) && (packetAck.classAndIDmatch == SFE_UBLOX_PACKET_VALIDITY_NOT_DEFINED) && (outgoingUBX->valid == SFE_UBLOX_PACKET_VALIDITY_VALID) && (outgoingUBX->cls == requestedClass) && (outgoingUBX->id == requestedID))
   d613c:	7bea      	ldrb	r2, [r5, #15]
   d613e:	f894 3249 	ldrb.w	r3, [r4, #585]	; 0x249
   d6142:	2a01      	cmp	r2, #1
   d6144:	d11f      	bne.n	d6186 <_ZN13SFE_UBLOX_GPS18waitForACKResponseEP9ubxPackethht+0x1e2>
   d6146:	f894 235f 	ldrb.w	r2, [r4, #863]	; 0x35f
   d614a:	2a02      	cmp	r2, #2
   d614c:	d11b      	bne.n	d6186 <_ZN13SFE_UBLOX_GPS18waitForACKResponseEP9ubxPackethht+0x1e2>
   d614e:	7baa      	ldrb	r2, [r5, #14]
   d6150:	2a01      	cmp	r2, #1
   d6152:	d118      	bne.n	d6186 <_ZN13SFE_UBLOX_GPS18waitForACKResponseEP9ubxPackethht+0x1e2>
   d6154:	782a      	ldrb	r2, [r5, #0]
   d6156:	42ba      	cmp	r2, r7
   d6158:	d115      	bne.n	d6186 <_ZN13SFE_UBLOX_GPS18waitForACKResponseEP9ubxPackethht+0x1e2>
   d615a:	786a      	ldrb	r2, [r5, #1]
   d615c:	4542      	cmp	r2, r8
   d615e:	d112      	bne.n	d6186 <_ZN13SFE_UBLOX_GPS18waitForACKResponseEP9ubxPackethht+0x1e2>
    if (_printDebug == true)
   d6160:	2b00      	cmp	r3, #0
   d6162:	f43f af5c 	beq.w	d601e <_ZN13SFE_UBLOX_GPS18waitForACKResponseEP9ubxPackethht+0x7a>
      _debugSerial->print(F("waitForACKResponse: TIMEOUT with valid data after "));
   d6166:	493e      	ldr	r1, [pc, #248]	; (d6260 <_ZN13SFE_UBLOX_GPS18waitForACKResponseEP9ubxPackethht+0x2bc>)
   d6168:	f8d4 0244 	ldr.w	r0, [r4, #580]	; 0x244
   d616c:	f001 fba7 	bl	d78be <_ZN5Print5printEPK19__FlashStringHelper>
      _debugSerial->print(millis() - startTime);
   d6170:	f8d4 5244 	ldr.w	r5, [r4, #580]	; 0x244
inline system_tick_t millis(void) { return HAL_Timer_Get_Milli_Seconds(); }
   d6174:	f000 fdcc 	bl	d6d10 <HAL_Timer_Get_Milli_Seconds>
   d6178:	220a      	movs	r2, #10
   d617a:	1b81      	subs	r1, r0, r6
   d617c:	4628      	mov	r0, r5
   d617e:	f7ff ff04 	bl	d5f8a <_ZN5Print5printImLi0EEEjT_i>
      _debugSerial->println(F(" msec. "));
   d6182:	4938      	ldr	r1, [pc, #224]	; (d6264 <_ZN13SFE_UBLOX_GPS18waitForACKResponseEP9ubxPackethht+0x2c0>)
   d6184:	e75e      	b.n	d6044 <_ZN13SFE_UBLOX_GPS18waitForACKResponseEP9ubxPackethht+0xa0>
  if (_printDebug == true)
   d6186:	b193      	cbz	r3, d61ae <_ZN13SFE_UBLOX_GPS18waitForACKResponseEP9ubxPackethht+0x20a>
    _debugSerial->print(F("waitForACKResponse: TIMEOUT after "));
   d6188:	4937      	ldr	r1, [pc, #220]	; (d6268 <_ZN13SFE_UBLOX_GPS18waitForACKResponseEP9ubxPackethht+0x2c4>)
   d618a:	f8d4 0244 	ldr.w	r0, [r4, #580]	; 0x244
   d618e:	f001 fb96 	bl	d78be <_ZN5Print5printEPK19__FlashStringHelper>
    _debugSerial->print(millis() - startTime);
   d6192:	f8d4 5244 	ldr.w	r5, [r4, #580]	; 0x244
   d6196:	f000 fdbb 	bl	d6d10 <HAL_Timer_Get_Milli_Seconds>
   d619a:	220a      	movs	r2, #10
   d619c:	1b81      	subs	r1, r0, r6
   d619e:	4628      	mov	r0, r5
   d61a0:	f7ff fef3 	bl	d5f8a <_ZN5Print5printImLi0EEEjT_i>
    _debugSerial->println(F(" msec."));
   d61a4:	4931      	ldr	r1, [pc, #196]	; (d626c <_ZN13SFE_UBLOX_GPS18waitForACKResponseEP9ubxPackethht+0x2c8>)
   d61a6:	f8d4 0244 	ldr.w	r0, [r4, #580]	; 0x244
   d61aa:	f001 fba2 	bl	d78f2 <_ZN5Print7printlnEPK19__FlashStringHelper>
  return (SFE_UBLOX_STATUS_TIMEOUT);
   d61ae:	2003      	movs	r0, #3
   d61b0:	e736      	b.n	d6020 <_ZN13SFE_UBLOX_GPS18waitForACKResponseEP9ubxPackethht+0x7c>
      else if ((outgoingUBX->classAndIDmatch == SFE_UBLOX_PACKET_VALIDITY_VALID) && (packetAck.classAndIDmatch == SFE_UBLOX_PACKET_VALIDITY_NOT_VALID) && (outgoingUBX->valid == SFE_UBLOX_PACKET_VALIDITY_VALID) && (outgoingUBX->cls == requestedClass) && (outgoingUBX->id == requestedID))
   d61b2:	2a01      	cmp	r2, #1
   d61b4:	d0bd      	beq.n	d6132 <_ZN13SFE_UBLOX_GPS18waitForACKResponseEP9ubxPackethht+0x18e>
      else if ((outgoingUBX->classAndIDmatch == SFE_UBLOX_PACKET_VALIDITY_NOT_VALID) && (packetAck.classAndIDmatch == SFE_UBLOX_PACKET_VALIDITY_NOT_VALID))
   d61b6:	4313      	orrs	r3, r2
   d61b8:	d1bb      	bne.n	d6132 <_ZN13SFE_UBLOX_GPS18waitForACKResponseEP9ubxPackethht+0x18e>
        if (_printDebug == true)
   d61ba:	f894 3249 	ldrb.w	r3, [r4, #585]	; 0x249
   d61be:	b193      	cbz	r3, d61e6 <_ZN13SFE_UBLOX_GPS18waitForACKResponseEP9ubxPackethht+0x242>
          _debugSerial->print(F("waitForACKResponse: INVALID data and INVALID ACK received after "));
   d61c0:	492b      	ldr	r1, [pc, #172]	; (d6270 <_ZN13SFE_UBLOX_GPS18waitForACKResponseEP9ubxPackethht+0x2cc>)
   d61c2:	f8d4 0244 	ldr.w	r0, [r4, #580]	; 0x244
   d61c6:	f001 fb7a 	bl	d78be <_ZN5Print5printEPK19__FlashStringHelper>
          _debugSerial->print(millis() - startTime);
   d61ca:	f8d4 5244 	ldr.w	r5, [r4, #580]	; 0x244
   d61ce:	f000 fd9f 	bl	d6d10 <HAL_Timer_Get_Milli_Seconds>
   d61d2:	220a      	movs	r2, #10
   d61d4:	1b81      	subs	r1, r0, r6
   d61d6:	4628      	mov	r0, r5
   d61d8:	f7ff fed7 	bl	d5f8a <_ZN5Print5printImLi0EEEjT_i>
          _debugSerial->println(F(" msec"));
   d61dc:	491c      	ldr	r1, [pc, #112]	; (d6250 <_ZN13SFE_UBLOX_GPS18waitForACKResponseEP9ubxPackethht+0x2ac>)
   d61de:	f8d4 0244 	ldr.w	r0, [r4, #580]	; 0x244
   d61e2:	f001 fb86 	bl	d78f2 <_ZN5Print7printlnEPK19__FlashStringHelper>
        return (SFE_UBLOX_STATUS_FAIL); //We received invalid data and an invalid ACK!
   d61e6:	2001      	movs	r0, #1
   d61e8:	e71a      	b.n	d6020 <_ZN13SFE_UBLOX_GPS18waitForACKResponseEP9ubxPackethht+0x7c>
      else if (packetAck.classAndIDmatch == SFE_UBLOX_PACKET_NOTACKNOWLEDGED)
   d61ea:	2b03      	cmp	r3, #3
   d61ec:	d1e3      	bne.n	d61b6 <_ZN13SFE_UBLOX_GPS18waitForACKResponseEP9ubxPackethht+0x212>
        if (_printDebug == true)
   d61ee:	f894 3249 	ldrb.w	r3, [r4, #585]	; 0x249
   d61f2:	b193      	cbz	r3, d621a <_ZN13SFE_UBLOX_GPS18waitForACKResponseEP9ubxPackethht+0x276>
          _debugSerial->print(F("waitForACKResponse: data was NOTACKNOWLEDGED (NACK) after "));
   d61f4:	491f      	ldr	r1, [pc, #124]	; (d6274 <_ZN13SFE_UBLOX_GPS18waitForACKResponseEP9ubxPackethht+0x2d0>)
   d61f6:	f8d4 0244 	ldr.w	r0, [r4, #580]	; 0x244
   d61fa:	f001 fb60 	bl	d78be <_ZN5Print5printEPK19__FlashStringHelper>
          _debugSerial->print(millis() - startTime);
   d61fe:	f8d4 5244 	ldr.w	r5, [r4, #580]	; 0x244
   d6202:	f000 fd85 	bl	d6d10 <HAL_Timer_Get_Milli_Seconds>
   d6206:	220a      	movs	r2, #10
   d6208:	1b81      	subs	r1, r0, r6
   d620a:	4628      	mov	r0, r5
   d620c:	f7ff febd 	bl	d5f8a <_ZN5Print5printImLi0EEEjT_i>
          _debugSerial->println(F(" msec"));
   d6210:	490f      	ldr	r1, [pc, #60]	; (d6250 <_ZN13SFE_UBLOX_GPS18waitForACKResponseEP9ubxPackethht+0x2ac>)
   d6212:	f8d4 0244 	ldr.w	r0, [r4, #580]	; 0x244
   d6216:	f001 fb6c 	bl	d78f2 <_ZN5Print7printlnEPK19__FlashStringHelper>
        return (SFE_UBLOX_STATUS_COMMAND_NACK); //We received a NACK!
   d621a:	2004      	movs	r0, #4
   d621c:	e700      	b.n	d6020 <_ZN13SFE_UBLOX_GPS18waitForACKResponseEP9ubxPackethht+0x7c>
      else if (packetAck.classAndIDmatch == SFE_UBLOX_PACKET_NOTACKNOWLEDGED)
   d621e:	2b03      	cmp	r3, #3
   d6220:	d0e5      	beq.n	d61ee <_ZN13SFE_UBLOX_GPS18waitForACKResponseEP9ubxPackethht+0x24a>
      else if ((outgoingUBX->classAndIDmatch == SFE_UBLOX_PACKET_VALIDITY_VALID) && (packetAck.classAndIDmatch == SFE_UBLOX_PACKET_VALIDITY_NOT_VALID) && (outgoingUBX->valid == SFE_UBLOX_PACKET_VALIDITY_VALID) && (outgoingUBX->cls == requestedClass) && (outgoingUBX->id == requestedID))
   d6222:	2b00      	cmp	r3, #0
   d6224:	f47f af6b 	bne.w	d60fe <_ZN13SFE_UBLOX_GPS18waitForACKResponseEP9ubxPackethht+0x15a>
   d6228:	7bab      	ldrb	r3, [r5, #14]
   d622a:	2b01      	cmp	r3, #1
   d622c:	d181      	bne.n	d6132 <_ZN13SFE_UBLOX_GPS18waitForACKResponseEP9ubxPackethht+0x18e>
   d622e:	782b      	ldrb	r3, [r5, #0]
   d6230:	42bb      	cmp	r3, r7
   d6232:	f47f af7e 	bne.w	d6132 <_ZN13SFE_UBLOX_GPS18waitForACKResponseEP9ubxPackethht+0x18e>
   d6236:	786b      	ldrb	r3, [r5, #1]
   d6238:	4543      	cmp	r3, r8
   d623a:	f47f af7a 	bne.w	d6132 <_ZN13SFE_UBLOX_GPS18waitForACKResponseEP9ubxPackethht+0x18e>
        if (_printDebug == true)
   d623e:	f894 3249 	ldrb.w	r3, [r4, #585]	; 0x249
   d6242:	2b00      	cmp	r3, #0
   d6244:	f43f aeeb 	beq.w	d601e <_ZN13SFE_UBLOX_GPS18waitForACKResponseEP9ubxPackethht+0x7a>
          _debugSerial->print(F("waitForACKResponse: VALID data and INVALID ACK received after "));
   d6248:	490b      	ldr	r1, [pc, #44]	; (d6278 <_ZN13SFE_UBLOX_GPS18waitForACKResponseEP9ubxPackethht+0x2d4>)
   d624a:	e6ed      	b.n	d6028 <_ZN13SFE_UBLOX_GPS18waitForACKResponseEP9ubxPackethht+0x84>
   d624c:	000d9fb8 	.word	0x000d9fb8
   d6250:	000d9ff5 	.word	0x000d9ff5
   d6254:	000d9ffb 	.word	0x000d9ffb
   d6258:	000da02c 	.word	0x000da02c
   d625c:	000da05e 	.word	0x000da05e
   d6260:	000da17d 	.word	0x000da17d
   d6264:	000da1b0 	.word	0x000da1b0
   d6268:	000da1b8 	.word	0x000da1b8
   d626c:	000da1db 	.word	0x000da1db
   d6270:	000da0fe 	.word	0x000da0fe
   d6274:	000da084 	.word	0x000da084
   d6278:	000da0bf 	.word	0x000da0bf
   d627c:	000da13f 	.word	0x000da13f
   d6280:	000da165 	.word	0x000da165

000d6284 <_ZN13SFE_UBLOX_GPS20waitForNoACKResponseEP9ubxPackethht>:
{
   d6284:	e92d 4ff8 	stmdb	sp!, {r3, r4, r5, r6, r7, r8, r9, sl, fp, lr}
   d6288:	460d      	mov	r5, r1
  outgoingUBX->valid = SFE_UBLOX_PACKET_VALIDITY_NOT_DEFINED; //This will go VALID (or NOT_VALID) when we receive a response to the packet we sent
   d628a:	2102      	movs	r1, #2
   d628c:	73a9      	strb	r1, [r5, #14]
  packetAck.valid = SFE_UBLOX_PACKET_VALIDITY_NOT_DEFINED;
   d628e:	f880 135e 	strb.w	r1, [r0, #862]	; 0x35e
  packetBuf.valid = SFE_UBLOX_PACKET_VALIDITY_NOT_DEFINED;
   d6292:	f880 137e 	strb.w	r1, [r0, #894]	; 0x37e
  outgoingUBX->classAndIDmatch = SFE_UBLOX_PACKET_VALIDITY_NOT_DEFINED; // This will go VALID (or NOT_VALID) when we receive a packet that matches the requested class and ID
   d6296:	73e9      	strb	r1, [r5, #15]
  packetAck.classAndIDmatch = SFE_UBLOX_PACKET_VALIDITY_NOT_DEFINED;
   d6298:	f880 135f 	strb.w	r1, [r0, #863]	; 0x35f
  packetBuf.classAndIDmatch = SFE_UBLOX_PACKET_VALIDITY_NOT_DEFINED;
   d629c:	f880 137f 	strb.w	r1, [r0, #895]	; 0x37f
{
   d62a0:	f8bd 9028 	ldrh.w	r9, [sp, #40]	; 0x28
   d62a4:	4604      	mov	r4, r0
   d62a6:	4617      	mov	r7, r2
   d62a8:	4698      	mov	r8, r3
   d62aa:	f000 fd31 	bl	d6d10 <HAL_Timer_Get_Milli_Seconds>
      if ((outgoingUBX->classAndIDmatch == SFE_UBLOX_PACKET_VALIDITY_VALID) && (outgoingUBX->valid == SFE_UBLOX_PACKET_VALIDITY_VALID) && (outgoingUBX->cls == requestedClass) && (outgoingUBX->id == requestedID))
   d62ae:	f240 1a01 	movw	sl, #257	; 0x101
   d62b2:	4606      	mov	r6, r0
      else if ((outgoingUBX->classAndIDmatch == SFE_UBLOX_PACKET_VALIDITY_NOT_DEFINED) && (outgoingUBX->valid == SFE_UBLOX_PACKET_VALIDITY_VALID))
   d62b4:	f240 2b01 	movw	fp, #513	; 0x201
   d62b8:	f000 fd2a 	bl	d6d10 <HAL_Timer_Get_Milli_Seconds>
  while (millis() - startTime < maxTime)
   d62bc:	1b80      	subs	r0, r0, r6
   d62be:	4548      	cmp	r0, r9
   d62c0:	d26a      	bcs.n	d6398 <_ZN13SFE_UBLOX_GPS20waitForNoACKResponseEP9ubxPackethht+0x114>
    if (checkUbloxInternal(outgoingUBX, requestedClass, requestedID) == true) //See if new data is available. Process bytes as they come in.
   d62c2:	4643      	mov	r3, r8
   d62c4:	463a      	mov	r2, r7
   d62c6:	4629      	mov	r1, r5
   d62c8:	4620      	mov	r0, r4
   d62ca:	f7ff fe4c 	bl	d5f66 <_ZN13SFE_UBLOX_GPS18checkUbloxInternalEP9ubxPackethh>
   d62ce:	2800      	cmp	r0, #0
   d62d0:	d05d      	beq.n	d638e <_ZN13SFE_UBLOX_GPS20waitForNoACKResponseEP9ubxPackethht+0x10a>
      if ((outgoingUBX->classAndIDmatch == SFE_UBLOX_PACKET_VALIDITY_VALID) && (outgoingUBX->valid == SFE_UBLOX_PACKET_VALIDITY_VALID) && (outgoingUBX->cls == requestedClass) && (outgoingUBX->id == requestedID))
   d62d2:	89ea      	ldrh	r2, [r5, #14]
   d62d4:	4552      	cmp	r2, sl
   d62d6:	d11e      	bne.n	d6316 <_ZN13SFE_UBLOX_GPS20waitForNoACKResponseEP9ubxPackethht+0x92>
   d62d8:	782b      	ldrb	r3, [r5, #0]
   d62da:	42bb      	cmp	r3, r7
   d62dc:	d11b      	bne.n	d6316 <_ZN13SFE_UBLOX_GPS20waitForNoACKResponseEP9ubxPackethht+0x92>
   d62de:	786b      	ldrb	r3, [r5, #1]
   d62e0:	4543      	cmp	r3, r8
   d62e2:	d118      	bne.n	d6316 <_ZN13SFE_UBLOX_GPS20waitForNoACKResponseEP9ubxPackethht+0x92>
        if (_printDebug == true)
   d62e4:	f894 3249 	ldrb.w	r3, [r4, #585]	; 0x249
   d62e8:	b193      	cbz	r3, d6310 <_ZN13SFE_UBLOX_GPS20waitForNoACKResponseEP9ubxPackethht+0x8c>
          _debugSerial->print(F("waitForNoACKResponse: valid data with CLS/ID match after "));
   d62ea:	4937      	ldr	r1, [pc, #220]	; (d63c8 <_ZN13SFE_UBLOX_GPS20waitForNoACKResponseEP9ubxPackethht+0x144>)
   d62ec:	f8d4 0244 	ldr.w	r0, [r4, #580]	; 0x244
   d62f0:	f001 fae5 	bl	d78be <_ZN5Print5printEPK19__FlashStringHelper>
          _debugSerial->print(millis() - startTime);
   d62f4:	f8d4 5244 	ldr.w	r5, [r4, #580]	; 0x244
   d62f8:	f000 fd0a 	bl	d6d10 <HAL_Timer_Get_Milli_Seconds>
   d62fc:	220a      	movs	r2, #10
   d62fe:	1b81      	subs	r1, r0, r6
   d6300:	4628      	mov	r0, r5
   d6302:	f7ff fe42 	bl	d5f8a <_ZN5Print5printImLi0EEEjT_i>
          _debugSerial->println(F(" msec"));
   d6306:	4931      	ldr	r1, [pc, #196]	; (d63cc <_ZN13SFE_UBLOX_GPS20waitForNoACKResponseEP9ubxPackethht+0x148>)
   d6308:	f8d4 0244 	ldr.w	r0, [r4, #580]	; 0x244
   d630c:	f001 faf1 	bl	d78f2 <_ZN5Print7printlnEPK19__FlashStringHelper>
        return (SFE_UBLOX_STATUS_DATA_RECEIVED); //We received valid data!
   d6310:	200b      	movs	r0, #11
}
   d6312:	e8bd 8ff8 	ldmia.w	sp!, {r3, r4, r5, r6, r7, r8, r9, sl, fp, pc}
      else if ((outgoingUBX->classAndIDmatch == SFE_UBLOX_PACKET_VALIDITY_VALID) && ((outgoingUBX->cls != requestedClass) || (outgoingUBX->id != requestedID)))
   d6316:	7beb      	ldrb	r3, [r5, #15]
   d6318:	2b01      	cmp	r3, #1
   d631a:	d11d      	bne.n	d6358 <_ZN13SFE_UBLOX_GPS20waitForNoACKResponseEP9ubxPackethht+0xd4>
   d631c:	782b      	ldrb	r3, [r5, #0]
   d631e:	42bb      	cmp	r3, r7
   d6320:	d102      	bne.n	d6328 <_ZN13SFE_UBLOX_GPS20waitForNoACKResponseEP9ubxPackethht+0xa4>
   d6322:	786b      	ldrb	r3, [r5, #1]
   d6324:	4543      	cmp	r3, r8
   d6326:	d032      	beq.n	d638e <_ZN13SFE_UBLOX_GPS20waitForNoACKResponseEP9ubxPackethht+0x10a>
        if (_printDebug == true)
   d6328:	f894 3249 	ldrb.w	r3, [r4, #585]	; 0x249
   d632c:	b193      	cbz	r3, d6354 <_ZN13SFE_UBLOX_GPS20waitForNoACKResponseEP9ubxPackethht+0xd0>
          _debugSerial->print(F("waitForNoACKResponse: data being OVERWRITTEN after "));
   d632e:	4928      	ldr	r1, [pc, #160]	; (d63d0 <_ZN13SFE_UBLOX_GPS20waitForNoACKResponseEP9ubxPackethht+0x14c>)
   d6330:	f8d4 0244 	ldr.w	r0, [r4, #580]	; 0x244
   d6334:	f001 fac3 	bl	d78be <_ZN5Print5printEPK19__FlashStringHelper>
          _debugSerial->print(millis() - startTime);
   d6338:	f8d4 5244 	ldr.w	r5, [r4, #580]	; 0x244
   d633c:	f000 fce8 	bl	d6d10 <HAL_Timer_Get_Milli_Seconds>
   d6340:	220a      	movs	r2, #10
   d6342:	1b81      	subs	r1, r0, r6
   d6344:	4628      	mov	r0, r5
   d6346:	f7ff fe20 	bl	d5f8a <_ZN5Print5printImLi0EEEjT_i>
          _debugSerial->println(F(" msec"));
   d634a:	4920      	ldr	r1, [pc, #128]	; (d63cc <_ZN13SFE_UBLOX_GPS20waitForNoACKResponseEP9ubxPackethht+0x148>)
   d634c:	f8d4 0244 	ldr.w	r0, [r4, #580]	; 0x244
   d6350:	f001 facf 	bl	d78f2 <_ZN5Print7printlnEPK19__FlashStringHelper>
        return (SFE_UBLOX_STATUS_DATA_OVERWRITTEN); // Data was valid but has been or is being overwritten
   d6354:	200d      	movs	r0, #13
   d6356:	e7dc      	b.n	d6312 <_ZN13SFE_UBLOX_GPS20waitForNoACKResponseEP9ubxPackethht+0x8e>
      else if ((outgoingUBX->classAndIDmatch == SFE_UBLOX_PACKET_VALIDITY_NOT_DEFINED) && (outgoingUBX->valid == SFE_UBLOX_PACKET_VALIDITY_VALID))
   d6358:	455a      	cmp	r2, fp
   d635a:	d018      	beq.n	d638e <_ZN13SFE_UBLOX_GPS20waitForNoACKResponseEP9ubxPackethht+0x10a>
      else if (outgoingUBX->classAndIDmatch == SFE_UBLOX_PACKET_VALIDITY_NOT_VALID)
   d635c:	b9bb      	cbnz	r3, d638e <_ZN13SFE_UBLOX_GPS20waitForNoACKResponseEP9ubxPackethht+0x10a>
        if (_printDebug == true)
   d635e:	f894 3249 	ldrb.w	r3, [r4, #585]	; 0x249
   d6362:	b193      	cbz	r3, d638a <_ZN13SFE_UBLOX_GPS20waitForNoACKResponseEP9ubxPackethht+0x106>
          _debugSerial->print(F("waitForNoACKResponse: CLS/ID match but failed CRC after "));
   d6364:	491b      	ldr	r1, [pc, #108]	; (d63d4 <_ZN13SFE_UBLOX_GPS20waitForNoACKResponseEP9ubxPackethht+0x150>)
   d6366:	f8d4 0244 	ldr.w	r0, [r4, #580]	; 0x244
   d636a:	f001 faa8 	bl	d78be <_ZN5Print5printEPK19__FlashStringHelper>
          _debugSerial->print(millis() - startTime);
   d636e:	f8d4 5244 	ldr.w	r5, [r4, #580]	; 0x244
   d6372:	f000 fccd 	bl	d6d10 <HAL_Timer_Get_Milli_Seconds>
   d6376:	220a      	movs	r2, #10
   d6378:	1b81      	subs	r1, r0, r6
   d637a:	4628      	mov	r0, r5
   d637c:	f7ff fe05 	bl	d5f8a <_ZN5Print5printImLi0EEEjT_i>
          _debugSerial->println(F(" msec"));
   d6380:	4912      	ldr	r1, [pc, #72]	; (d63cc <_ZN13SFE_UBLOX_GPS20waitForNoACKResponseEP9ubxPackethht+0x148>)
   d6382:	f8d4 0244 	ldr.w	r0, [r4, #580]	; 0x244
   d6386:	f001 fab4 	bl	d78f2 <_ZN5Print7printlnEPK19__FlashStringHelper>
        return (SFE_UBLOX_STATUS_CRC_FAIL); //We received invalid data
   d638a:	2002      	movs	r0, #2
   d638c:	e7c1      	b.n	d6312 <_ZN13SFE_UBLOX_GPS20waitForNoACKResponseEP9ubxPackethht+0x8e>
inline void delayMicroseconds(unsigned int us) { HAL_Delay_Microseconds(us); }
   d638e:	f44f 70fa 	mov.w	r0, #500	; 0x1f4
   d6392:	f000 fcb5 	bl	d6d00 <HAL_Delay_Microseconds>
   d6396:	e78f      	b.n	d62b8 <_ZN13SFE_UBLOX_GPS20waitForNoACKResponseEP9ubxPackethht+0x34>
  if (_printDebug == true)
   d6398:	f894 3249 	ldrb.w	r3, [r4, #585]	; 0x249
   d639c:	b193      	cbz	r3, d63c4 <_ZN13SFE_UBLOX_GPS20waitForNoACKResponseEP9ubxPackethht+0x140>
    _debugSerial->print(F("waitForNoACKResponse: TIMEOUT after "));
   d639e:	490e      	ldr	r1, [pc, #56]	; (d63d8 <_ZN13SFE_UBLOX_GPS20waitForNoACKResponseEP9ubxPackethht+0x154>)
   d63a0:	f8d4 0244 	ldr.w	r0, [r4, #580]	; 0x244
   d63a4:	f001 fa8b 	bl	d78be <_ZN5Print5printEPK19__FlashStringHelper>
    _debugSerial->print(millis() - startTime);
   d63a8:	f8d4 5244 	ldr.w	r5, [r4, #580]	; 0x244
inline system_tick_t millis(void) { return HAL_Timer_Get_Milli_Seconds(); }
   d63ac:	f000 fcb0 	bl	d6d10 <HAL_Timer_Get_Milli_Seconds>
   d63b0:	220a      	movs	r2, #10
   d63b2:	1b81      	subs	r1, r0, r6
   d63b4:	4628      	mov	r0, r5
   d63b6:	f7ff fde8 	bl	d5f8a <_ZN5Print5printImLi0EEEjT_i>
    _debugSerial->println(F(" msec. No packet received."));
   d63ba:	4908      	ldr	r1, [pc, #32]	; (d63dc <_ZN13SFE_UBLOX_GPS20waitForNoACKResponseEP9ubxPackethht+0x158>)
   d63bc:	f8d4 0244 	ldr.w	r0, [r4, #580]	; 0x244
   d63c0:	f001 fa97 	bl	d78f2 <_ZN5Print7printlnEPK19__FlashStringHelper>
  return (SFE_UBLOX_STATUS_TIMEOUT);
   d63c4:	2003      	movs	r0, #3
   d63c6:	e7a4      	b.n	d6312 <_ZN13SFE_UBLOX_GPS20waitForNoACKResponseEP9ubxPackethht+0x8e>
   d63c8:	000da1e2 	.word	0x000da1e2
   d63cc:	000d9ff5 	.word	0x000d9ff5
   d63d0:	000da21c 	.word	0x000da21c
   d63d4:	000da250 	.word	0x000da250
   d63d8:	000da289 	.word	0x000da289
   d63dc:	000da2ae 	.word	0x000da2ae

000d63e0 <_ZN13SFE_UBLOX_GPS11sendCommandEP9ubxPackett>:
{
   d63e0:	b5f7      	push	{r0, r1, r2, r4, r5, r6, r7, lr}
   d63e2:	4604      	mov	r4, r0
   d63e4:	460d      	mov	r5, r1
   d63e6:	4617      	mov	r7, r2
  calcChecksum(outgoingUBX); //Sets checksum A and B bytes of the packet
   d63e8:	f7fe fdab 	bl	d4f42 <_ZN13SFE_UBLOX_GPS12calcChecksumEP9ubxPacket>
  if (_printDebug == true)
   d63ec:	f894 3249 	ldrb.w	r3, [r4, #585]	; 0x249
   d63f0:	b143      	cbz	r3, d6404 <_ZN13SFE_UBLOX_GPS11sendCommandEP9ubxPackett+0x24>
    _debugSerial->print(F("\nSending: "));
   d63f2:	4924      	ldr	r1, [pc, #144]	; (d6484 <_ZN13SFE_UBLOX_GPS11sendCommandEP9ubxPackett+0xa4>)
   d63f4:	f8d4 0244 	ldr.w	r0, [r4, #580]	; 0x244
   d63f8:	f001 fa61 	bl	d78be <_ZN5Print5printEPK19__FlashStringHelper>
    printPacket(outgoingUBX);
   d63fc:	4629      	mov	r1, r5
   d63fe:	4620      	mov	r0, r4
   d6400:	f7ff f87e 	bl	d5500 <_ZN13SFE_UBLOX_GPS11printPacketEP9ubxPacket>
  if (commType == COMM_TYPE_I2C)
   d6404:	f894 3236 	ldrb.w	r3, [r4, #566]	; 0x236
   d6408:	b98b      	cbnz	r3, d642e <_ZN13SFE_UBLOX_GPS11sendCommandEP9ubxPackett+0x4e>
    retVal = sendI2cCommand(outgoingUBX, maxWait);
   d640a:	463a      	mov	r2, r7
   d640c:	4629      	mov	r1, r5
   d640e:	4620      	mov	r0, r4
   d6410:	f7fe fcbe 	bl	d4d90 <_ZN13SFE_UBLOX_GPS14sendI2cCommandEP9ubxPackett>
    if (retVal != SFE_UBLOX_STATUS_SUCCESS)
   d6414:	4606      	mov	r6, r0
   d6416:	b180      	cbz	r0, d643a <_ZN13SFE_UBLOX_GPS11sendCommandEP9ubxPackett+0x5a>
      if (_printDebug == true)
   d6418:	f894 3249 	ldrb.w	r3, [r4, #585]	; 0x249
   d641c:	b123      	cbz	r3, d6428 <_ZN13SFE_UBLOX_GPS11sendCommandEP9ubxPackett+0x48>
        _debugSerial->println(F("Send I2C Command failed"));
   d641e:	491a      	ldr	r1, [pc, #104]	; (d6488 <_ZN13SFE_UBLOX_GPS11sendCommandEP9ubxPackett+0xa8>)
   d6420:	f8d4 0244 	ldr.w	r0, [r4, #580]	; 0x244
   d6424:	f001 fa65 	bl	d78f2 <_ZN5Print7printlnEPK19__FlashStringHelper>
}
   d6428:	4630      	mov	r0, r6
   d642a:	b003      	add	sp, #12
   d642c:	bdf0      	pop	{r4, r5, r6, r7, pc}
  else if (commType == COMM_TYPE_SERIAL)
   d642e:	2b01      	cmp	r3, #1
   d6430:	d103      	bne.n	d643a <_ZN13SFE_UBLOX_GPS11sendCommandEP9ubxPackett+0x5a>
    sendSerialCommand(outgoingUBX);
   d6432:	4629      	mov	r1, r5
   d6434:	4620      	mov	r0, r4
   d6436:	f7fe fd45 	bl	d4ec4 <_ZN13SFE_UBLOX_GPS17sendSerialCommandEP9ubxPacket>
  if (maxWait > 0)
   d643a:	b30f      	cbz	r7, d6480 <_ZN13SFE_UBLOX_GPS11sendCommandEP9ubxPackett+0xa0>
    if (outgoingUBX->cls == UBX_CLASS_CFG)
   d643c:	782a      	ldrb	r2, [r5, #0]
   d643e:	f894 3249 	ldrb.w	r3, [r4, #585]	; 0x249
   d6442:	2a06      	cmp	r2, #6
   d6444:	d10e      	bne.n	d6464 <_ZN13SFE_UBLOX_GPS11sendCommandEP9ubxPackett+0x84>
      if (_printDebug == true)
   d6446:	b123      	cbz	r3, d6452 <_ZN13SFE_UBLOX_GPS11sendCommandEP9ubxPackett+0x72>
        _debugSerial->println(F("sendCommand: Waiting for ACK response"));
   d6448:	4910      	ldr	r1, [pc, #64]	; (d648c <_ZN13SFE_UBLOX_GPS11sendCommandEP9ubxPackett+0xac>)
   d644a:	f8d4 0244 	ldr.w	r0, [r4, #580]	; 0x244
   d644e:	f001 fa50 	bl	d78f2 <_ZN5Print7printlnEPK19__FlashStringHelper>
      retVal = waitForACKResponse(outgoingUBX, outgoingUBX->cls, outgoingUBX->id, maxWait); //Wait for Ack response
   d6452:	786b      	ldrb	r3, [r5, #1]
   d6454:	782a      	ldrb	r2, [r5, #0]
   d6456:	9700      	str	r7, [sp, #0]
   d6458:	4629      	mov	r1, r5
   d645a:	4620      	mov	r0, r4
   d645c:	f7ff fda2 	bl	d5fa4 <_ZN13SFE_UBLOX_GPS18waitForACKResponseEP9ubxPackethht>
      retVal = waitForNoACKResponse(outgoingUBX, outgoingUBX->cls, outgoingUBX->id, maxWait); //Wait for Ack response
   d6460:	4606      	mov	r6, r0
   d6462:	e7e1      	b.n	d6428 <_ZN13SFE_UBLOX_GPS11sendCommandEP9ubxPackett+0x48>
      if (_printDebug == true)
   d6464:	b123      	cbz	r3, d6470 <_ZN13SFE_UBLOX_GPS11sendCommandEP9ubxPackett+0x90>
        _debugSerial->println(F("sendCommand: Waiting for No ACK response"));
   d6466:	490a      	ldr	r1, [pc, #40]	; (d6490 <_ZN13SFE_UBLOX_GPS11sendCommandEP9ubxPackett+0xb0>)
   d6468:	f8d4 0244 	ldr.w	r0, [r4, #580]	; 0x244
   d646c:	f001 fa41 	bl	d78f2 <_ZN5Print7printlnEPK19__FlashStringHelper>
      retVal = waitForNoACKResponse(outgoingUBX, outgoingUBX->cls, outgoingUBX->id, maxWait); //Wait for Ack response
   d6470:	786b      	ldrb	r3, [r5, #1]
   d6472:	782a      	ldrb	r2, [r5, #0]
   d6474:	9700      	str	r7, [sp, #0]
   d6476:	4629      	mov	r1, r5
   d6478:	4620      	mov	r0, r4
   d647a:	f7ff ff03 	bl	d6284 <_ZN13SFE_UBLOX_GPS20waitForNoACKResponseEP9ubxPackethht>
   d647e:	e7ef      	b.n	d6460 <_ZN13SFE_UBLOX_GPS11sendCommandEP9ubxPackett+0x80>
   d6480:	463e      	mov	r6, r7
   d6482:	e7d1      	b.n	d6428 <_ZN13SFE_UBLOX_GPS11sendCommandEP9ubxPackett+0x48>
   d6484:	000da2c9 	.word	0x000da2c9
   d6488:	000da2d4 	.word	0x000da2d4
   d648c:	000da2ec 	.word	0x000da2ec
   d6490:	000da312 	.word	0x000da312

000d6494 <_ZN13SFE_UBLOX_GPS11isConnectedEt>:
{
   d6494:	b537      	push	{r0, r1, r2, r4, r5, lr}
  if (commType == COMM_TYPE_I2C)
   d6496:	f890 4236 	ldrb.w	r4, [r0, #566]	; 0x236
{
   d649a:	4605      	mov	r5, r0
   d649c:	460a      	mov	r2, r1
  if (commType == COMM_TYPE_I2C)
   d649e:	b17c      	cbz	r4, d64c0 <_ZN13SFE_UBLOX_GPS11isConnectedEt+0x2c>
  packetCfg.cls = UBX_CLASS_CFG;
   d64a0:	f640 0306 	movw	r3, #2054	; 0x806
   d64a4:	f8c5 3360 	str.w	r3, [r5, #864]	; 0x360
  packetCfg.startingSpot = 0;
   d64a8:	2300      	movs	r3, #0
   d64aa:	f8a5 3366 	strh.w	r3, [r5, #870]	; 0x366
  sfe_ublox_status_e result = sendCommand(&packetCfg, maxWait); // Poll the navigation rate
   d64ae:	f505 7158 	add.w	r1, r5, #864	; 0x360
   d64b2:	4628      	mov	r0, r5
   d64b4:	f7ff ff94 	bl	d63e0 <_ZN13SFE_UBLOX_GPS11sendCommandEP9ubxPackett>
  if ((result == SFE_UBLOX_STATUS_DATA_RECEIVED) || (result == SFE_UBLOX_STATUS_DATA_OVERWRITTEN))
   d64b8:	280b      	cmp	r0, #11
   d64ba:	d111      	bne.n	d64e0 <_ZN13SFE_UBLOX_GPS11isConnectedEt+0x4c>
    return (true);
   d64bc:	2001      	movs	r0, #1
   d64be:	e013      	b.n	d64e8 <_ZN13SFE_UBLOX_GPS11isConnectedEt+0x54>
   d64c0:	9101      	str	r1, [sp, #4]
    _i2cPort->beginTransmission((uint8_t)_gpsI2Caddress);
   d64c2:	f890 1248 	ldrb.w	r1, [r0, #584]	; 0x248
   d64c6:	f8d0 0238 	ldr.w	r0, [r0, #568]	; 0x238
   d64ca:	f002 f901 	bl	d86d0 <_ZN7TwoWire17beginTransmissionEh>
    if (_i2cPort->endTransmission() != 0)
   d64ce:	f8d5 0238 	ldr.w	r0, [r5, #568]	; 0x238
   d64d2:	f002 f91d 	bl	d8710 <_ZN7TwoWire15endTransmissionEv>
   d64d6:	9a01      	ldr	r2, [sp, #4]
   d64d8:	2800      	cmp	r0, #0
   d64da:	d0e1      	beq.n	d64a0 <_ZN13SFE_UBLOX_GPS11isConnectedEt+0xc>
      return false; //Sensor did not ack
   d64dc:	4620      	mov	r0, r4
   d64de:	e003      	b.n	d64e8 <_ZN13SFE_UBLOX_GPS11isConnectedEt+0x54>
  if ((result == SFE_UBLOX_STATUS_DATA_RECEIVED) || (result == SFE_UBLOX_STATUS_DATA_OVERWRITTEN))
   d64e0:	f1a0 030d 	sub.w	r3, r0, #13
   d64e4:	4258      	negs	r0, r3
   d64e6:	4158      	adcs	r0, r3
}
   d64e8:	b003      	add	sp, #12
   d64ea:	bd30      	pop	{r4, r5, pc}

000d64ec <_ZN13SFE_UBLOX_GPS5beginER7TwoWireh>:
  commType = COMM_TYPE_I2C;
   d64ec:	2300      	movs	r3, #0
{
   d64ee:	b510      	push	{r4, lr}
  _i2cPort = &wirePort; //Grab which port the user wants us to use
   d64f0:	f8c0 1238 	str.w	r1, [r0, #568]	; 0x238
  commType = COMM_TYPE_I2C;
   d64f4:	f880 3236 	strb.w	r3, [r0, #566]	; 0x236
  _gpsI2Caddress = deviceAddress; //Store the I2C address from user
   d64f8:	f880 2248 	strb.w	r2, [r0, #584]	; 0x248
  boolean success = isConnected();
   d64fc:	f240 414c 	movw	r1, #1100	; 0x44c
{
   d6500:	4604      	mov	r4, r0
  boolean success = isConnected();
   d6502:	f7ff ffc7 	bl	d6494 <_ZN13SFE_UBLOX_GPS11isConnectedEt>
  if (!success)
   d6506:	b960      	cbnz	r0, d6522 <_ZN13SFE_UBLOX_GPS5beginER7TwoWireh+0x36>
    success = isConnected();
   d6508:	f240 414c 	movw	r1, #1100	; 0x44c
   d650c:	4620      	mov	r0, r4
   d650e:	f7ff ffc1 	bl	d6494 <_ZN13SFE_UBLOX_GPS11isConnectedEt>
  if (!success)
   d6512:	b930      	cbnz	r0, d6522 <_ZN13SFE_UBLOX_GPS5beginER7TwoWireh+0x36>
    success = isConnected();
   d6514:	4620      	mov	r0, r4
   d6516:	f240 414c 	movw	r1, #1100	; 0x44c
}
   d651a:	e8bd 4010 	ldmia.w	sp!, {r4, lr}
    success = isConnected();
   d651e:	f7ff bfb9 	b.w	d6494 <_ZN13SFE_UBLOX_GPS11isConnectedEt>
}
   d6522:	2001      	movs	r0, #1
   d6524:	bd10      	pop	{r4, pc}
	...

000d6528 <_ZN13SFE_UBLOX_GPS17saveConfigurationEt>:
  packetCfg.cls = UBX_CLASS_CFG;
   d6528:	4b10      	ldr	r3, [pc, #64]	; (d656c <_ZN13SFE_UBLOX_GPS17saveConfigurationEt+0x44>)
{
   d652a:	b510      	push	{r4, lr}
  packetCfg.cls = UBX_CLASS_CFG;
   d652c:	f8c0 3360 	str.w	r3, [r0, #864]	; 0x360
  packetCfg.startingSpot = 0;
   d6530:	2300      	movs	r3, #0
{
   d6532:	460a      	mov	r2, r1
  packetCfg.startingSpot = 0;
   d6534:	f8a0 3366 	strh.w	r3, [r0, #870]	; 0x366
    packetCfg.payload[x] = 0;
   d6538:	461c      	mov	r4, r3
   d653a:	f8d0 1368 	ldr.w	r1, [r0, #872]	; 0x368
   d653e:	54cc      	strb	r4, [r1, r3]
  for (uint8_t x = 0; x < packetCfg.len; x++)
   d6540:	3301      	adds	r3, #1
   d6542:	f8b0 1362 	ldrh.w	r1, [r0, #866]	; 0x362
   d6546:	b2db      	uxtb	r3, r3
   d6548:	428b      	cmp	r3, r1
   d654a:	dbf6      	blt.n	d653a <_ZN13SFE_UBLOX_GPS17saveConfigurationEt+0x12>
  packetCfg.payload[4] = 0xFF; //Set any bit in the saveMask field to save current config to Flash and BBR
   d654c:	f8d0 1368 	ldr.w	r1, [r0, #872]	; 0x368
   d6550:	23ff      	movs	r3, #255	; 0xff
   d6552:	710b      	strb	r3, [r1, #4]
  packetCfg.payload[5] = 0xFF;
   d6554:	f8d0 1368 	ldr.w	r1, [r0, #872]	; 0x368
   d6558:	714b      	strb	r3, [r1, #5]
  return (sendCommand(&packetCfg, maxWait) == SFE_UBLOX_STATUS_DATA_SENT); // We are only expecting an ACK
   d655a:	f500 7158 	add.w	r1, r0, #864	; 0x360
   d655e:	f7ff ff3f 	bl	d63e0 <_ZN13SFE_UBLOX_GPS11sendCommandEP9ubxPackett>
}
   d6562:	f1a0 030a 	sub.w	r3, r0, #10
   d6566:	4258      	negs	r0, r3
   d6568:	4158      	adcs	r0, r3
   d656a:	bd10      	pop	{r4, pc}
   d656c:	000c0906 	.word	0x000c0906

000d6570 <_ZN13SFE_UBLOX_GPS15getPortSettingsEht>:
{
   d6570:	b510      	push	{r4, lr}
  packetCfg.cls = UBX_CLASS_CFG;
   d6572:	4c08      	ldr	r4, [pc, #32]	; (d6594 <_ZN13SFE_UBLOX_GPS15getPortSettingsEht+0x24>)
   d6574:	f8c0 4360 	str.w	r4, [r0, #864]	; 0x360
  packetCfg.startingSpot = 0;
   d6578:	2400      	movs	r4, #0
   d657a:	f8a0 4366 	strh.w	r4, [r0, #870]	; 0x366
  payloadCfg[0] = portID;
   d657e:	f880 124d 	strb.w	r1, [r0, #589]	; 0x24d
  return ((sendCommand(&packetCfg, maxWait)) == SFE_UBLOX_STATUS_DATA_RECEIVED); // We are expecting data and an ACK
   d6582:	f500 7158 	add.w	r1, r0, #864	; 0x360
   d6586:	f7ff ff2b 	bl	d63e0 <_ZN13SFE_UBLOX_GPS11sendCommandEP9ubxPackett>
}
   d658a:	f1a0 030b 	sub.w	r3, r0, #11
   d658e:	4258      	negs	r0, r3
   d6590:	4158      	adcs	r0, r3
   d6592:	bd10      	pop	{r4, pc}
   d6594:	00010006 	.word	0x00010006

000d6598 <_ZN13SFE_UBLOX_GPS13setPortOutputEhht>:
{
   d6598:	b537      	push	{r0, r1, r2, r4, r5, lr}
   d659a:	4615      	mov	r5, r2
   d659c:	461a      	mov	r2, r3
   d659e:	4604      	mov	r4, r0
  if (getPortSettings(portID, maxWait) == false)
   d65a0:	9301      	str	r3, [sp, #4]
   d65a2:	f7ff ffe5 	bl	d6570 <_ZN13SFE_UBLOX_GPS15getPortSettingsEht>
   d65a6:	b188      	cbz	r0, d65cc <_ZN13SFE_UBLOX_GPS13setPortOutputEhht+0x34>
  packetCfg.cls = UBX_CLASS_CFG;
   d65a8:	4b09      	ldr	r3, [pc, #36]	; (d65d0 <_ZN13SFE_UBLOX_GPS13setPortOutputEhht+0x38>)
   d65aa:	f8c4 3360 	str.w	r3, [r4, #864]	; 0x360
  packetCfg.startingSpot = 0;
   d65ae:	2300      	movs	r3, #0
   d65b0:	f8a4 3366 	strh.w	r3, [r4, #870]	; 0x366
  return ((sendCommand(&packetCfg, maxWait)) == SFE_UBLOX_STATUS_DATA_SENT); // We are only expecting an ACK
   d65b4:	9a01      	ldr	r2, [sp, #4]
  payloadCfg[14] = outStreamSettings; //OutProtocolMask LSB - Set outStream bits
   d65b6:	f884 525b 	strb.w	r5, [r4, #603]	; 0x25b
  return ((sendCommand(&packetCfg, maxWait)) == SFE_UBLOX_STATUS_DATA_SENT); // We are only expecting an ACK
   d65ba:	f504 7158 	add.w	r1, r4, #864	; 0x360
   d65be:	4620      	mov	r0, r4
   d65c0:	f7ff ff0e 	bl	d63e0 <_ZN13SFE_UBLOX_GPS11sendCommandEP9ubxPackett>
   d65c4:	f1a0 030a 	sub.w	r3, r0, #10
   d65c8:	4258      	negs	r0, r3
   d65ca:	4158      	adcs	r0, r3
}
   d65cc:	b003      	add	sp, #12
   d65ce:	bd30      	pop	{r4, r5, pc}
   d65d0:	00140006 	.word	0x00140006

000d65d4 <_ZN13SFE_UBLOX_GPS12setI2COutputEht>:
{
   d65d4:	4613      	mov	r3, r2
  return (setPortOutput(COM_PORT_I2C, comSettings, maxWait));
   d65d6:	460a      	mov	r2, r1
   d65d8:	2100      	movs	r1, #0
   d65da:	f7ff bfdd 	b.w	d6598 <_ZN13SFE_UBLOX_GPS13setPortOutputEhht>
	...

000d65e0 <_ZN13SFE_UBLOX_GPS6getPVTEt>:
  return (gpsNanosecond);
}

//Get the latest Position/Velocity/Time solution and fill all global variables
boolean SFE_UBLOX_GPS::getPVT(uint16_t maxWait)
{
   d65e0:	b5f7      	push	{r0, r1, r2, r4, r5, r6, r7, lr}
  if (autoPVT && autoPVTImplicitUpdate)
   d65e2:	f890 5388 	ldrb.w	r5, [r0, #904]	; 0x388
   d65e6:	f890 3249 	ldrb.w	r3, [r0, #585]	; 0x249
{
   d65ea:	4604      	mov	r4, r0
   d65ec:	460a      	mov	r2, r1
  if (autoPVT && autoPVTImplicitUpdate)
   d65ee:	b1fd      	cbz	r5, d6630 <_ZN13SFE_UBLOX_GPS6getPVTEt+0x50>
   d65f0:	f890 5389 	ldrb.w	r5, [r0, #905]	; 0x389
   d65f4:	b19d      	cbz	r5, d661e <_ZN13SFE_UBLOX_GPS6getPVTEt+0x3e>
  {
    //The GPS is automatically reporting, we just check whether we got unread data
    if (_printDebug == true)
   d65f6:	b123      	cbz	r3, d6602 <_ZN13SFE_UBLOX_GPS6getPVTEt+0x22>
    {
      _debugSerial->println(F("getPVT: Autoreporting"));
   d65f8:	492e      	ldr	r1, [pc, #184]	; (d66b4 <_ZN13SFE_UBLOX_GPS6getPVTEt+0xd4>)
   d65fa:	f8d0 0244 	ldr.w	r0, [r0, #580]	; 0x244
   d65fe:	f001 f978 	bl	d78f2 <_ZN5Print7printlnEPK19__FlashStringHelper>
    }
    checkUbloxInternal(&packetCfg, UBX_CLASS_NAV, UBX_NAV_PVT);
   d6602:	2307      	movs	r3, #7
   d6604:	2201      	movs	r2, #1
   d6606:	f504 7158 	add.w	r1, r4, #864	; 0x360
   d660a:	4620      	mov	r0, r4
   d660c:	f7ff fcab 	bl	d5f66 <_ZN13SFE_UBLOX_GPS18checkUbloxInternalEP9ubxPackethh>
    return moduleQueried.all;
   d6610:	f894 5399 	ldrb.w	r5, [r4, #921]	; 0x399
   d6614:	f3c5 0580 	ubfx	r5, r5, #2, #1
      _debugSerial->print(F("getPVT retVal: "));
      _debugSerial->println(statusString(retVal));
    }
    return (false);
  }
}
   d6618:	4628      	mov	r0, r5
   d661a:	b003      	add	sp, #12
   d661c:	bdf0      	pop	{r4, r5, r6, r7, pc}
    if (_printDebug == true)
   d661e:	b90b      	cbnz	r3, d6624 <_ZN13SFE_UBLOX_GPS6getPVTEt+0x44>
    return (false);
   d6620:	2500      	movs	r5, #0
   d6622:	e7f9      	b.n	d6618 <_ZN13SFE_UBLOX_GPS6getPVTEt+0x38>
      _debugSerial->println(F("getPVT: Exit immediately"));
   d6624:	4924      	ldr	r1, [pc, #144]	; (d66b8 <_ZN13SFE_UBLOX_GPS6getPVTEt+0xd8>)
        _debugSerial->println(F("getPVT: data was OVERWRITTEN by a HNR message (and that's not OK)"));
   d6626:	f8d4 0244 	ldr.w	r0, [r4, #580]	; 0x244
   d662a:	f001 f962 	bl	d78f2 <_ZN5Print7printlnEPK19__FlashStringHelper>
   d662e:	e7f3      	b.n	d6618 <_ZN13SFE_UBLOX_GPS6getPVTEt+0x38>
    if (_printDebug == true)
   d6630:	b133      	cbz	r3, d6640 <_ZN13SFE_UBLOX_GPS6getPVTEt+0x60>
   d6632:	9101      	str	r1, [sp, #4]
      _debugSerial->println(F("getPVT: Polling"));
   d6634:	f8d0 0244 	ldr.w	r0, [r0, #580]	; 0x244
   d6638:	4920      	ldr	r1, [pc, #128]	; (d66bc <_ZN13SFE_UBLOX_GPS6getPVTEt+0xdc>)
   d663a:	f001 f95a 	bl	d78f2 <_ZN5Print7printlnEPK19__FlashStringHelper>
   d663e:	9a01      	ldr	r2, [sp, #4]
    packetCfg.cls = UBX_CLASS_NAV;
   d6640:	f240 7301 	movw	r3, #1793	; 0x701
   d6644:	f8c4 3360 	str.w	r3, [r4, #864]	; 0x360
    sfe_ublox_status_e retVal = sendCommand(&packetCfg, maxWait);
   d6648:	f504 7158 	add.w	r1, r4, #864	; 0x360
   d664c:	4620      	mov	r0, r4
   d664e:	f7ff fec7 	bl	d63e0 <_ZN13SFE_UBLOX_GPS11sendCommandEP9ubxPackett>
    if (retVal == SFE_UBLOX_STATUS_DATA_RECEIVED)
   d6652:	280b      	cmp	r0, #11
    sfe_ublox_status_e retVal = sendCommand(&packetCfg, maxWait);
   d6654:	4606      	mov	r6, r0
    if (retVal == SFE_UBLOX_STATUS_DATA_RECEIVED)
   d6656:	d028      	beq.n	d66aa <_ZN13SFE_UBLOX_GPS6getPVTEt+0xca>
    if ((retVal == SFE_UBLOX_STATUS_DATA_OVERWRITTEN) && (packetCfg.cls == UBX_CLASS_NAV))
   d6658:	280d      	cmp	r0, #13
   d665a:	f894 7249 	ldrb.w	r7, [r4, #585]	; 0x249
   d665e:	d111      	bne.n	d6684 <_ZN13SFE_UBLOX_GPS6getPVTEt+0xa4>
   d6660:	f894 3360 	ldrb.w	r3, [r4, #864]	; 0x360
   d6664:	2b01      	cmp	r3, #1
   d6666:	d107      	bne.n	d6678 <_ZN13SFE_UBLOX_GPS6getPVTEt+0x98>
      if (_printDebug == true)
   d6668:	b30f      	cbz	r7, d66ae <_ZN13SFE_UBLOX_GPS6getPVTEt+0xce>
        _debugSerial->println(F("getPVT: data was OVERWRITTEN by another NAV message (but that's OK)"));
   d666a:	4915      	ldr	r1, [pc, #84]	; (d66c0 <_ZN13SFE_UBLOX_GPS6getPVTEt+0xe0>)
   d666c:	f8d4 0244 	ldr.w	r0, [r4, #580]	; 0x244
   d6670:	f001 f93f 	bl	d78f2 <_ZN5Print7printlnEPK19__FlashStringHelper>
      return (true);
   d6674:	463d      	mov	r5, r7
   d6676:	e7cf      	b.n	d6618 <_ZN13SFE_UBLOX_GPS6getPVTEt+0x38>
    if ((retVal == SFE_UBLOX_STATUS_DATA_OVERWRITTEN) && (packetCfg.cls == UBX_CLASS_HNR))
   d6678:	2b28      	cmp	r3, #40	; 0x28
   d667a:	d103      	bne.n	d6684 <_ZN13SFE_UBLOX_GPS6getPVTEt+0xa4>
      if (_printDebug == true)
   d667c:	2f00      	cmp	r7, #0
   d667e:	d0cf      	beq.n	d6620 <_ZN13SFE_UBLOX_GPS6getPVTEt+0x40>
        _debugSerial->println(F("getPVT: data was OVERWRITTEN by a HNR message (and that's not OK)"));
   d6680:	4910      	ldr	r1, [pc, #64]	; (d66c4 <_ZN13SFE_UBLOX_GPS6getPVTEt+0xe4>)
   d6682:	e7d0      	b.n	d6626 <_ZN13SFE_UBLOX_GPS6getPVTEt+0x46>
    if (_printDebug == true)
   d6684:	2f00      	cmp	r7, #0
   d6686:	d0cb      	beq.n	d6620 <_ZN13SFE_UBLOX_GPS6getPVTEt+0x40>
      _debugSerial->print(F("getPVT retVal: "));
   d6688:	490f      	ldr	r1, [pc, #60]	; (d66c8 <_ZN13SFE_UBLOX_GPS6getPVTEt+0xe8>)
   d668a:	f8d4 0244 	ldr.w	r0, [r4, #580]	; 0x244
   d668e:	f001 f916 	bl	d78be <_ZN5Print5printEPK19__FlashStringHelper>
      _debugSerial->println(statusString(retVal));
   d6692:	2e0d      	cmp	r6, #13
   d6694:	bf98      	it	ls
   d6696:	4b0d      	ldrls	r3, [pc, #52]	; (d66cc <_ZN13SFE_UBLOX_GPS6getPVTEt+0xec>)
   d6698:	f8d4 0244 	ldr.w	r0, [r4, #580]	; 0x244
  switch (stat)
   d669c:	bf94      	ite	ls
   d669e:	f853 1026 	ldrls.w	r1, [r3, r6, lsl #2]
      _debugSerial->println(statusString(retVal));
   d66a2:	490b      	ldrhi	r1, [pc, #44]	; (d66d0 <_ZN13SFE_UBLOX_GPS6getPVTEt+0xf0>)
   d66a4:	f001 f91b 	bl	d78de <_ZN5Print7printlnEPKc>
   d66a8:	e7b6      	b.n	d6618 <_ZN13SFE_UBLOX_GPS6getPVTEt+0x38>
      return (true);
   d66aa:	2501      	movs	r5, #1
   d66ac:	e7b4      	b.n	d6618 <_ZN13SFE_UBLOX_GPS6getPVTEt+0x38>
   d66ae:	461d      	mov	r5, r3
   d66b0:	e7b2      	b.n	d6618 <_ZN13SFE_UBLOX_GPS6getPVTEt+0x38>
   d66b2:	bf00      	nop
   d66b4:	000da33b 	.word	0x000da33b
   d66b8:	000da351 	.word	0x000da351
   d66bc:	000da36a 	.word	0x000da36a
   d66c0:	000da37a 	.word	0x000da37a
   d66c4:	000da3be 	.word	0x000da3be
   d66c8:	000da400 	.word	0x000da400
   d66cc:	000da4e4 	.word	0x000da4e4
   d66d0:	000d9b97 	.word	0x000d9b97

000d66d4 <_ZN13SFE_UBLOX_GPS11getLatitudeEt>:
}

//Get the current latitude in degrees
//Returns a long representing the number of degrees *10^-7
int32_t SFE_UBLOX_GPS::getLatitude(uint16_t maxWait)
{
   d66d4:	b510      	push	{r4, lr}
  if (moduleQueried.latitude == false)
   d66d6:	f990 3399 	ldrsb.w	r3, [r0, #921]	; 0x399
   d66da:	2b00      	cmp	r3, #0
{
   d66dc:	4604      	mov	r4, r0
  if (moduleQueried.latitude == false)
   d66de:	db01      	blt.n	d66e4 <_ZN13SFE_UBLOX_GPS11getLatitudeEt+0x10>
    getPVT(maxWait);
   d66e0:	f7ff ff7e 	bl	d65e0 <_ZN13SFE_UBLOX_GPS6getPVTEt>
  moduleQueried.latitude = false; //Since we are about to give this to user, mark this data as stale
  moduleQueried.all = false;
   d66e4:	f894 3399 	ldrb.w	r3, [r4, #921]	; 0x399

  return (latitude);
}
   d66e8:	f8d4 0088 	ldr.w	r0, [r4, #136]	; 0x88
  moduleQueried.all = false;
   d66ec:	f003 037b 	and.w	r3, r3, #123	; 0x7b
   d66f0:	f884 3399 	strb.w	r3, [r4, #921]	; 0x399
}
   d66f4:	bd10      	pop	{r4, pc}

000d66f6 <_ZN13SFE_UBLOX_GPS12getLongitudeEt>:

//Get the current longitude in degrees
//Returns a long representing the number of degrees *10^-7
int32_t SFE_UBLOX_GPS::getLongitude(uint16_t maxWait)
{
   d66f6:	b510      	push	{r4, lr}
  if (moduleQueried.longitude == false)
   d66f8:	f890 3399 	ldrb.w	r3, [r0, #921]	; 0x399
   d66fc:	065b      	lsls	r3, r3, #25
{
   d66fe:	4604      	mov	r4, r0
  if (moduleQueried.longitude == false)
   d6700:	d401      	bmi.n	d6706 <_ZN13SFE_UBLOX_GPS12getLongitudeEt+0x10>
    getPVT(maxWait);
   d6702:	f7ff ff6d 	bl	d65e0 <_ZN13SFE_UBLOX_GPS6getPVTEt>
  moduleQueried.longitude = false; //Since we are about to give this to user, mark this data as stale
  moduleQueried.all = false;
   d6706:	f894 3399 	ldrb.w	r3, [r4, #921]	; 0x399

  return (longitude);
}
   d670a:	f8d4 008c 	ldr.w	r0, [r4, #140]	; 0x8c
  moduleQueried.all = false;
   d670e:	f023 0344 	bic.w	r3, r3, #68	; 0x44
   d6712:	f884 3399 	strb.w	r3, [r4, #921]	; 0x399
}
   d6716:	bd10      	pop	{r4, pc}

000d6718 <_ZN13SFE_UBLOX_GPS10getFixTypeEt>:
}

//Get the current fix type
//0=no fix, 1=dead reckoning, 2=2D, 3=3D, 4=GNSS, 5=Time fix
uint8_t SFE_UBLOX_GPS::getFixType(uint16_t maxWait)
{
   d6718:	b510      	push	{r4, lr}
  if (moduleQueried.fixType == false)
   d671a:	f890 339b 	ldrb.w	r3, [r0, #923]	; 0x39b
   d671e:	07db      	lsls	r3, r3, #31
{
   d6720:	4604      	mov	r4, r0
  if (moduleQueried.fixType == false)
   d6722:	d401      	bmi.n	d6728 <_ZN13SFE_UBLOX_GPS10getFixTypeEt+0x10>
  {
    getPVT(maxWait);
   d6724:	f7ff ff5c 	bl	d65e0 <_ZN13SFE_UBLOX_GPS6getPVTEt>
  }
  moduleQueried.fixType = false; //Since we are about to give this to user, mark this data as stale
  moduleQueried.all = false;
   d6728:	f8d4 3398 	ldr.w	r3, [r4, #920]	; 0x398

  return (fixType);
}
   d672c:	f894 00ad 	ldrb.w	r0, [r4, #173]	; 0xad
  moduleQueried.all = false;
   d6730:	f023 7380 	bic.w	r3, r3, #16777216	; 0x1000000
   d6734:	f423 6380 	bic.w	r3, r3, #1024	; 0x400
   d6738:	f8c4 3398 	str.w	r3, [r4, #920]	; 0x398
}
   d673c:	bd10      	pop	{r4, pc}

000d673e <_ZN13SFE_UBLOX_GPS14getGroundSpeedEt>:
}


//Get the ground speed in mm/s
int32_t SFE_UBLOX_GPS::getGroundSpeed(uint16_t maxWait)
{
   d673e:	b510      	push	{r4, lr}
  if (moduleQueried.groundSpeed == false)
   d6740:	f890 339b 	ldrb.w	r3, [r0, #923]	; 0x39b
   d6744:	075b      	lsls	r3, r3, #29
{
   d6746:	4604      	mov	r4, r0
  if (moduleQueried.groundSpeed == false)
   d6748:	d401      	bmi.n	d674e <_ZN13SFE_UBLOX_GPS14getGroundSpeedEt+0x10>
    getPVT(maxWait);
   d674a:	f7ff ff49 	bl	d65e0 <_ZN13SFE_UBLOX_GPS6getPVTEt>
  moduleQueried.groundSpeed = false; //Since we are about to give this to user, mark this data as stale
  moduleQueried.all = false;
   d674e:	f8d4 3398 	ldr.w	r3, [r4, #920]	; 0x398

  return (groundSpeed);
}
   d6752:	f8d4 00b0 	ldr.w	r0, [r4, #176]	; 0xb0
  moduleQueried.all = false;
   d6756:	f023 2304 	bic.w	r3, r3, #67109888	; 0x4000400
   d675a:	f8c4 3398 	str.w	r3, [r4, #920]	; 0x398
}
   d675e:	bd10      	pop	{r4, pc}

000d6760 <_ZN8MMA8452QC1Eh>:
//   supplied address into a private variable for future use.
//   The variable addr should be either 0x1C or 0x1D, depending on which voltage
//   the SA0 pin is tied to (GND or 3.3V respectively).
MMA8452Q::MMA8452Q(byte addr)
{
	address = addr; // Store address into private variable
   d6760:	7501      	strb	r1, [r0, #20]
}
   d6762:	4770      	bx	lr

000d6764 <_ZN8MMA8452Q14writeRegistersE17MMA8452Q_RegisterPhh>:

// WRITE MULTIPLE REGISTERS
//	Write an array of "len" bytes ("buffer"), starting at register "reg", and
//	auto-incrmenting to the next.
void MMA8452Q::writeRegisters(MMA8452Q_Register reg, byte *buffer, byte len)
{
   d6764:	b5f8      	push	{r3, r4, r5, r6, r7, lr}
   d6766:	4607      	mov	r7, r0
   d6768:	460c      	mov	r4, r1
   d676a:	4615      	mov	r5, r2
   d676c:	461e      	mov	r6, r3
	Wire.beginTransmission(address);
   d676e:	f002 f937 	bl	d89e0 <_Z19__fetch_global_Wirev>
   d6772:	7d39      	ldrb	r1, [r7, #20]
   d6774:	f001 ffac 	bl	d86d0 <_ZN7TwoWire17beginTransmissionEh>
	Wire.write(reg);
   d6778:	f002 f932 	bl	d89e0 <_Z19__fetch_global_Wirev>
   d677c:	4621      	mov	r1, r4
   d677e:	f7fe fa97 	bl	d4cb0 <_ZN7TwoWire5writeEi>
	for (int x = 0; x < len; x++)
   d6782:	2400      	movs	r4, #0
   d6784:	42a6      	cmp	r6, r4
   d6786:	dd07      	ble.n	d6798 <_ZN8MMA8452Q14writeRegistersE17MMA8452Q_RegisterPhh+0x34>
		Wire.write(buffer[x]);
   d6788:	f002 f92a 	bl	d89e0 <_Z19__fetch_global_Wirev>
   d678c:	6803      	ldr	r3, [r0, #0]
   d678e:	5d29      	ldrb	r1, [r5, r4]
   d6790:	689b      	ldr	r3, [r3, #8]
   d6792:	4798      	blx	r3
	for (int x = 0; x < len; x++)
   d6794:	3401      	adds	r4, #1
   d6796:	e7f5      	b.n	d6784 <_ZN8MMA8452Q14writeRegistersE17MMA8452Q_RegisterPhh+0x20>
	Wire.endTransmission(); //Stop transmitting
   d6798:	f002 f922 	bl	d89e0 <_Z19__fetch_global_Wirev>
}
   d679c:	e8bd 40f8 	ldmia.w	sp!, {r3, r4, r5, r6, r7, lr}
	Wire.endTransmission(); //Stop transmitting
   d67a0:	f001 bfb6 	b.w	d8710 <_ZN7TwoWire15endTransmissionEv>

000d67a4 <_ZN8MMA8452Q13writeRegisterE17MMA8452Q_Registerh>:
{
   d67a4:	b507      	push	{r0, r1, r2, lr}
	writeRegisters(reg, &data, 1);
   d67a6:	2301      	movs	r3, #1
{
   d67a8:	f88d 2007 	strb.w	r2, [sp, #7]
	writeRegisters(reg, &data, 1);
   d67ac:	f10d 0207 	add.w	r2, sp, #7
   d67b0:	f7ff ffd8 	bl	d6764 <_ZN8MMA8452Q14writeRegistersE17MMA8452Q_RegisterPhh>
}
   d67b4:	b003      	add	sp, #12
   d67b6:	f85d fb04 	ldr.w	pc, [sp], #4

000d67ba <_ZN8MMA8452Q12readRegisterE17MMA8452Q_Register>:

// READ A SINGLE REGISTER
//	Read a byte from the MMA8452Q register "reg".
byte MMA8452Q::readRegister(MMA8452Q_Register reg)
{
   d67ba:	b538      	push	{r3, r4, r5, lr}
   d67bc:	4604      	mov	r4, r0
   d67be:	460d      	mov	r5, r1
	Wire.beginTransmission(address);
   d67c0:	f002 f90e 	bl	d89e0 <_Z19__fetch_global_Wirev>
   d67c4:	7d21      	ldrb	r1, [r4, #20]
   d67c6:	f001 ff83 	bl	d86d0 <_ZN7TwoWire17beginTransmissionEh>
	Wire.write(reg);
   d67ca:	f002 f909 	bl	d89e0 <_Z19__fetch_global_Wirev>
   d67ce:	4629      	mov	r1, r5
   d67d0:	f7fe fa6e 	bl	d4cb0 <_ZN7TwoWire5writeEi>
	//endTransmission but keep the connection active
	if (Wire.endTransmission(false) == 0)
   d67d4:	f002 f904 	bl	d89e0 <_Z19__fetch_global_Wirev>
   d67d8:	2100      	movs	r1, #0
   d67da:	f001 ff95 	bl	d8708 <_ZN7TwoWire15endTransmissionEh>
   d67de:	b108      	cbz	r0, d67e4 <_ZN8MMA8452Q12readRegisterE17MMA8452Q_Register+0x2a>
        //Ask for 1 byte, once done, bus is released by default
    	if (Wire.requestFrom(address, 1) == 1)
    	    return Wire.read();
	}
	
    return 0;
   d67e0:	2000      	movs	r0, #0
}
   d67e2:	bd38      	pop	{r3, r4, r5, pc}
    	if (Wire.requestFrom(address, 1) == 1)
   d67e4:	f002 f8fc 	bl	d89e0 <_Z19__fetch_global_Wirev>
   d67e8:	7d21      	ldrb	r1, [r4, #20]
   d67ea:	2201      	movs	r2, #1
   d67ec:	f001 ff6d 	bl	d86ca <_ZN7TwoWire11requestFromEhj>
   d67f0:	2801      	cmp	r0, #1
   d67f2:	d1f5      	bne.n	d67e0 <_ZN8MMA8452Q12readRegisterE17MMA8452Q_Register+0x26>
    	    return Wire.read();
   d67f4:	f002 f8f4 	bl	d89e0 <_Z19__fetch_global_Wirev>
   d67f8:	6803      	ldr	r3, [r0, #0]
   d67fa:	695b      	ldr	r3, [r3, #20]
   d67fc:	4798      	blx	r3
   d67fe:	b2c0      	uxtb	r0, r0
   d6800:	e7ef      	b.n	d67e2 <_ZN8MMA8452Q12readRegisterE17MMA8452Q_Register+0x28>

000d6802 <_ZN8MMA8452Q9availableEv>:
{
   d6802:	b508      	push	{r3, lr}
	return (readRegister(STATUS) & 0x08) >> 3;
   d6804:	2100      	movs	r1, #0
   d6806:	f7ff ffd8 	bl	d67ba <_ZN8MMA8452Q12readRegisterE17MMA8452Q_Register>
}
   d680a:	f3c0 00c0 	ubfx	r0, r0, #3, #1
   d680e:	bd08      	pop	{r3, pc}

000d6810 <_ZN8MMA8452Q8setScaleE14MMA8452Q_Scale>:
{
   d6810:	b538      	push	{r3, r4, r5, lr}
   d6812:	460d      	mov	r5, r1
	byte cfg = readRegister(XYZ_DATA_CFG);
   d6814:	210e      	movs	r1, #14
{
   d6816:	4604      	mov	r4, r0
	byte cfg = readRegister(XYZ_DATA_CFG);
   d6818:	f7ff ffcf 	bl	d67ba <_ZN8MMA8452Q12readRegisterE17MMA8452Q_Register>
	cfg &= 0xFC; // Mask out scale bits
   d681c:	f020 0203 	bic.w	r2, r0, #3
	cfg |= (fsr >> 2);  // Neat trick, see page 22. 00 = 2G, 01 = 4A, 10 = 8G
   d6820:	ea42 0295 	orr.w	r2, r2, r5, lsr #2
	writeRegister(XYZ_DATA_CFG, cfg);
   d6824:	4620      	mov	r0, r4
   d6826:	b2d2      	uxtb	r2, r2
}
   d6828:	e8bd 4038 	ldmia.w	sp!, {r3, r4, r5, lr}
	writeRegister(XYZ_DATA_CFG, cfg);
   d682c:	210e      	movs	r1, #14
   d682e:	f7ff bfb9 	b.w	d67a4 <_ZN8MMA8452Q13writeRegisterE17MMA8452Q_Registerh>

000d6832 <_ZN8MMA8452Q6setODRE12MMA8452Q_ODR>:
{
   d6832:	b538      	push	{r3, r4, r5, lr}
   d6834:	460d      	mov	r5, r1
	byte ctrl = readRegister(CTRL_REG1);
   d6836:	212a      	movs	r1, #42	; 0x2a
{
   d6838:	4604      	mov	r4, r0
	byte ctrl = readRegister(CTRL_REG1);
   d683a:	f7ff ffbe 	bl	d67ba <_ZN8MMA8452Q12readRegisterE17MMA8452Q_Register>
	ctrl &= 0xCF; // Mask out data rate bits
   d683e:	f020 0230 	bic.w	r2, r0, #48	; 0x30
	ctrl |= (odr << 3);
   d6842:	ea42 02c5 	orr.w	r2, r2, r5, lsl #3
	writeRegister(CTRL_REG1, ctrl);
   d6846:	4620      	mov	r0, r4
   d6848:	b2d2      	uxtb	r2, r2
}
   d684a:	e8bd 4038 	ldmia.w	sp!, {r3, r4, r5, lr}
	writeRegister(CTRL_REG1, ctrl);
   d684e:	212a      	movs	r1, #42	; 0x2a
   d6850:	f7ff bfa8 	b.w	d67a4 <_ZN8MMA8452Q13writeRegisterE17MMA8452Q_Registerh>

000d6854 <_ZN8MMA8452Q7readTapEv>:
{
   d6854:	b508      	push	{r3, lr}
	byte tapStat = readRegister(PULSE_SRC);
   d6856:	2122      	movs	r1, #34	; 0x22
   d6858:	f7ff ffaf 	bl	d67ba <_ZN8MMA8452Q12readRegisterE17MMA8452Q_Register>
	if (tapStat & 0x80) // Read EA bit to check if a interrupt was generated
   d685c:	0603      	lsls	r3, r0, #24
		return tapStat & 0x7F;
   d685e:	bf4c      	ite	mi
   d6860:	f000 007f 	andmi.w	r0, r0, #127	; 0x7f
		return 0;
   d6864:	2000      	movpl	r0, #0
}
   d6866:	bd08      	pop	{r3, pc}

000d6868 <_ZN8MMA8452Q7setupPLEv>:
{
   d6868:	b510      	push	{r4, lr}
	writeRegister(PL_CFG, readRegister(PL_CFG) | 0x40); // Set PL_EN (enable)
   d686a:	2111      	movs	r1, #17
{
   d686c:	4604      	mov	r4, r0
	writeRegister(PL_CFG, readRegister(PL_CFG) | 0x40); // Set PL_EN (enable)
   d686e:	f7ff ffa4 	bl	d67ba <_ZN8MMA8452Q12readRegisterE17MMA8452Q_Register>
   d6872:	f040 0040 	orr.w	r0, r0, #64	; 0x40
   d6876:	b2c2      	uxtb	r2, r0
   d6878:	2111      	movs	r1, #17
   d687a:	4620      	mov	r0, r4
   d687c:	f7ff ff92 	bl	d67a4 <_ZN8MMA8452Q13writeRegisterE17MMA8452Q_Registerh>
	writeRegister(PL_COUNT, 0x50);  // Debounce counter at 100ms (at 800 hz)
   d6880:	4620      	mov	r0, r4
   d6882:	2250      	movs	r2, #80	; 0x50
}
   d6884:	e8bd 4010 	ldmia.w	sp!, {r4, lr}
	writeRegister(PL_COUNT, 0x50);  // Debounce counter at 100ms (at 800 hz)
   d6888:	2112      	movs	r1, #18
   d688a:	f7ff bf8b 	b.w	d67a4 <_ZN8MMA8452Q13writeRegisterE17MMA8452Q_Registerh>

000d688e <_ZN8MMA8452Q7standbyEv>:
{
   d688e:	b510      	push	{r4, lr}
	byte c = readRegister(CTRL_REG1);
   d6890:	212a      	movs	r1, #42	; 0x2a
{
   d6892:	4604      	mov	r4, r0
	byte c = readRegister(CTRL_REG1);
   d6894:	f7ff ff91 	bl	d67ba <_ZN8MMA8452Q12readRegisterE17MMA8452Q_Register>
	writeRegister(CTRL_REG1, c & ~(0x01)); //Clear the active bit to go into standby
   d6898:	212a      	movs	r1, #42	; 0x2a
   d689a:	f000 02fe 	and.w	r2, r0, #254	; 0xfe
   d689e:	4620      	mov	r0, r4
}
   d68a0:	e8bd 4010 	ldmia.w	sp!, {r4, lr}
	writeRegister(CTRL_REG1, c & ~(0x01)); //Clear the active bit to go into standby
   d68a4:	f7ff bf7e 	b.w	d67a4 <_ZN8MMA8452Q13writeRegisterE17MMA8452Q_Registerh>

000d68a8 <_ZN8MMA8452Q6activeEv>:
{
   d68a8:	b510      	push	{r4, lr}
	byte c = readRegister(CTRL_REG1);
   d68aa:	212a      	movs	r1, #42	; 0x2a
{
   d68ac:	4604      	mov	r4, r0
	byte c = readRegister(CTRL_REG1);
   d68ae:	f7ff ff84 	bl	d67ba <_ZN8MMA8452Q12readRegisterE17MMA8452Q_Register>
	writeRegister(CTRL_REG1, c | 0x01); //Set the active bit to begin detection
   d68b2:	f040 0001 	orr.w	r0, r0, #1
   d68b6:	b2c2      	uxtb	r2, r0
   d68b8:	212a      	movs	r1, #42	; 0x2a
   d68ba:	4620      	mov	r0, r4
}
   d68bc:	e8bd 4010 	ldmia.w	sp!, {r4, lr}
	writeRegister(CTRL_REG1, c | 0x01); //Set the active bit to begin detection
   d68c0:	f7ff bf70 	b.w	d67a4 <_ZN8MMA8452Q13writeRegisterE17MMA8452Q_Registerh>

000d68c4 <_ZN8MMA8452Q5beginE14MMA8452Q_Scale12MMA8452Q_ODR>:
{
   d68c4:	b538      	push	{r3, r4, r5, lr}
	scale = fsr; // Haul fsr into our class variable, scale
   d68c6:	7541      	strb	r1, [r0, #21]
{
   d68c8:	4615      	mov	r5, r2
   d68ca:	4604      	mov	r4, r0
	Wire.begin(); // Initialize I2C
   d68cc:	f002 f888 	bl	d89e0 <_Z19__fetch_global_Wirev>
   d68d0:	f001 fecc 	bl	d866c <_ZN7TwoWire5beginEv>
	byte c = readRegister(WHO_AM_I);  // Read WHO_AM_I register
   d68d4:	210d      	movs	r1, #13
   d68d6:	4620      	mov	r0, r4
   d68d8:	f7ff ff6f 	bl	d67ba <_ZN8MMA8452Q12readRegisterE17MMA8452Q_Register>
	if (c != 0x2A) // WHO_AM_I should always be 0x2A
   d68dc:	282a      	cmp	r0, #42	; 0x2a
   d68de:	d112      	bne.n	d6906 <_ZN8MMA8452Q5beginE14MMA8452Q_Scale12MMA8452Q_ODR+0x42>
	standby();  // Must be in standby to change registers
   d68e0:	4620      	mov	r0, r4
   d68e2:	f7ff ffd4 	bl	d688e <_ZN8MMA8452Q7standbyEv>
	setScale(scale);  // Set up accelerometer scale
   d68e6:	7d61      	ldrb	r1, [r4, #21]
   d68e8:	4620      	mov	r0, r4
   d68ea:	f7ff ff91 	bl	d6810 <_ZN8MMA8452Q8setScaleE14MMA8452Q_Scale>
	setODR(odr);  // Set up output data rate
   d68ee:	4629      	mov	r1, r5
   d68f0:	4620      	mov	r0, r4
   d68f2:	f7ff ff9e 	bl	d6832 <_ZN8MMA8452Q6setODRE12MMA8452Q_ODR>
	setupPL();  // Set up portrait/landscape detection
   d68f6:	4620      	mov	r0, r4
   d68f8:	f7ff ffb6 	bl	d6868 <_ZN8MMA8452Q7setupPLEv>
	active();  // Set to active to start reading
   d68fc:	4620      	mov	r0, r4
   d68fe:	f7ff ffd3 	bl	d68a8 <_ZN8MMA8452Q6activeEv>
	return 1;
   d6902:	2001      	movs	r0, #1
}
   d6904:	bd38      	pop	{r3, r4, r5, pc}
		return 0;
   d6906:	2000      	movs	r0, #0
   d6908:	e7fc      	b.n	d6904 <_ZN8MMA8452Q5beginE14MMA8452Q_Scale12MMA8452Q_ODR+0x40>
	...

000d690c <_ZN10Qwiic_RfidC1Eh>:
  https://www.sparkfun.com/products/15191
 */

#include "SparkFun_Qwiic_Rfid.h"

Qwiic_Rfid::Qwiic_Rfid(uint8_t address){  _address = address; } // Constructor for I2C
   d690c:	e92d 41f0 	stmdb	sp!, {r4, r5, r6, r7, r8, lr}
   d6910:	4604      	mov	r4, r0
   d6912:	460e      	mov	r6, r1
struct rfidData {
   d6914:	3004      	adds	r0, #4
   d6916:	490a      	ldr	r1, [pc, #40]	; (d6940 <_ZN10Qwiic_RfidC1Eh+0x34>)
   d6918:	f8df 8024 	ldr.w	r8, [pc, #36]	; d6940 <_ZN10Qwiic_RfidC1Eh+0x34>
   d691c:	f000 fe97 	bl	d764e <_ZN6StringC1EPKc>
   d6920:	f104 0518 	add.w	r5, r4, #24
   d6924:	f504 77d4 	add.w	r7, r4, #424	; 0x1a8
   d6928:	4628      	mov	r0, r5
   d692a:	4641      	mov	r1, r8
   d692c:	3514      	adds	r5, #20
   d692e:	f000 fe8e 	bl	d764e <_ZN6StringC1EPKc>
   d6932:	42af      	cmp	r7, r5
   d6934:	d1f8      	bne.n	d6928 <_ZN10Qwiic_RfidC1Eh+0x1c>
   d6936:	7026      	strb	r6, [r4, #0]
   d6938:	4620      	mov	r0, r4
   d693a:	e8bd 81f0 	ldmia.w	sp!, {r4, r5, r6, r7, r8, pc}
   d693e:	bf00      	nop
   d6940:	000da1b7 	.word	0x000da1b7

000d6944 <_ZN10Qwiic_Rfid5beginER7TwoWire>:

bool Qwiic_Rfid::begin( TwoWire &wirePort ) // Begin, but not Wire.begin() =). 
{
   d6944:	b510      	push	{r4, lr}
   d6946:	4604      	mov	r4, r0
   d6948:	4608      	mov	r0, r1
  
  _i2cPort = &wirePort;
   d694a:	f8c4 11a8 	str.w	r1, [r4, #424]	; 0x1a8

  // Check for successful response: "O". 
  _i2cPort->beginTransmission(_address);
   d694e:	7821      	ldrb	r1, [r4, #0]
   d6950:	f001 febe 	bl	d86d0 <_ZN7TwoWire17beginTransmissionEh>
  uint8_t _ret = _i2cPort->endTransmission();
   d6954:	f8d4 01a8 	ldr.w	r0, [r4, #424]	; 0x1a8
   d6958:	f001 feda 	bl	d8710 <_ZN7TwoWire15endTransmissionEv>
  if( !_ret )
    return true; 
  else 
    return false; 

}
   d695c:	fab0 f080 	clz	r0, r0
   d6960:	0940      	lsrs	r0, r0, #5
   d6962:	bd10      	pop	{r4, pc}

000d6964 <_ZN10Qwiic_Rfid12_readTagTimeEh>:
// time from the Qwiic RFID Reader. What comes in from the RFID reader is a
// number that was converted from a string to it's direct numerical
// representation which is then converted back to its' original state. The tag
// and the time is saved to the global rfidData struct. 
void Qwiic_Rfid::_readTagTime(uint8_t _numofReads)
{
   d6964:	b570      	push	{r4, r5, r6, lr}
   d6966:	b08a      	sub	sp, #40	; 0x28
   d6968:	4604      	mov	r4, r0
   d696a:	9101      	str	r1, [sp, #4]

  String _tempTag; 
   d696c:	a802      	add	r0, sp, #8
   d696e:	4957      	ldr	r1, [pc, #348]	; (d6acc <_ZN10Qwiic_Rfid12_readTagTimeEh+0x168>)
   d6970:	f000 fe6d 	bl	d764e <_ZN6StringC1EPKc>
  int32_t _tempTime; 

  _i2cPort->requestFrom(_address, static_cast<uint8_t>(_numofReads)); 
   d6974:	9a01      	ldr	r2, [sp, #4]
   d6976:	7821      	ldrb	r1, [r4, #0]
   d6978:	f8d4 01a8 	ldr.w	r0, [r4, #424]	; 0x1a8
   d697c:	f001 fea5 	bl	d86ca <_ZN7TwoWire11requestFromEhj>
  
  // What is read from the buffer is immediately converted to a string and
  // cocatenated onto the temporary variable.  
  _tempTag = String(_i2cPort->read()); 
   d6980:	f8d4 01a8 	ldr.w	r0, [r4, #424]	; 0x1a8
   d6984:	6803      	ldr	r3, [r0, #0]
   d6986:	695b      	ldr	r3, [r3, #20]
   d6988:	4798      	blx	r3
   d698a:	220a      	movs	r2, #10
   d698c:	4601      	mov	r1, r0
   d698e:	a806      	add	r0, sp, #24
   d6990:	f000 fec2 	bl	d7718 <_ZN6StringC1Eih>
   d6994:	a906      	add	r1, sp, #24
   d6996:	a802      	add	r0, sp, #8
   d6998:	f000 fea4 	bl	d76e4 <_ZN6StringaSEOS_>
   d699c:	a806      	add	r0, sp, #24
   d699e:	f000 fe0b 	bl	d75b8 <_ZN6StringD1Ev>
  _tempTag += String(_i2cPort->read());
   d69a2:	f8d4 01a8 	ldr.w	r0, [r4, #424]	; 0x1a8
   d69a6:	6803      	ldr	r3, [r0, #0]
   d69a8:	695b      	ldr	r3, [r3, #20]
   d69aa:	4798      	blx	r3
   d69ac:	220a      	movs	r2, #10
   d69ae:	4601      	mov	r1, r0
   d69b0:	a806      	add	r0, sp, #24
   d69b2:	f000 feb1 	bl	d7718 <_ZN6StringC1Eih>
	String & operator += (const String &rhs)	{concat(rhs); return (*this);}
   d69b6:	a906      	add	r1, sp, #24
   d69b8:	a802      	add	r0, sp, #8
   d69ba:	f000 feeb 	bl	d7794 <_ZN6String6concatERKS_>
   d69be:	a806      	add	r0, sp, #24
   d69c0:	f000 fdfa 	bl	d75b8 <_ZN6StringD1Ev>
  _tempTag += String(_i2cPort->read());
   d69c4:	f8d4 01a8 	ldr.w	r0, [r4, #424]	; 0x1a8
   d69c8:	6803      	ldr	r3, [r0, #0]
   d69ca:	695b      	ldr	r3, [r3, #20]
   d69cc:	4798      	blx	r3
   d69ce:	220a      	movs	r2, #10
   d69d0:	4601      	mov	r1, r0
   d69d2:	a806      	add	r0, sp, #24
   d69d4:	f000 fea0 	bl	d7718 <_ZN6StringC1Eih>
   d69d8:	a906      	add	r1, sp, #24
   d69da:	a802      	add	r0, sp, #8
   d69dc:	f000 feda 	bl	d7794 <_ZN6String6concatERKS_>
   d69e0:	a806      	add	r0, sp, #24
   d69e2:	f000 fde9 	bl	d75b8 <_ZN6StringD1Ev>
  _tempTag += String(_i2cPort->read());
   d69e6:	f8d4 01a8 	ldr.w	r0, [r4, #424]	; 0x1a8
   d69ea:	6803      	ldr	r3, [r0, #0]
   d69ec:	695b      	ldr	r3, [r3, #20]
   d69ee:	4798      	blx	r3
   d69f0:	220a      	movs	r2, #10
   d69f2:	4601      	mov	r1, r0
   d69f4:	a806      	add	r0, sp, #24
   d69f6:	f000 fe8f 	bl	d7718 <_ZN6StringC1Eih>
   d69fa:	a906      	add	r1, sp, #24
   d69fc:	a802      	add	r0, sp, #8
   d69fe:	f000 fec9 	bl	d7794 <_ZN6String6concatERKS_>
   d6a02:	a806      	add	r0, sp, #24
   d6a04:	f000 fdd8 	bl	d75b8 <_ZN6StringD1Ev>
  _tempTag += String(_i2cPort->read());
   d6a08:	f8d4 01a8 	ldr.w	r0, [r4, #424]	; 0x1a8
   d6a0c:	6803      	ldr	r3, [r0, #0]
   d6a0e:	695b      	ldr	r3, [r3, #20]
   d6a10:	4798      	blx	r3
   d6a12:	220a      	movs	r2, #10
   d6a14:	4601      	mov	r1, r0
   d6a16:	a806      	add	r0, sp, #24
   d6a18:	f000 fe7e 	bl	d7718 <_ZN6StringC1Eih>
   d6a1c:	a906      	add	r1, sp, #24
   d6a1e:	a802      	add	r0, sp, #8
   d6a20:	f000 feb8 	bl	d7794 <_ZN6String6concatERKS_>
   d6a24:	a806      	add	r0, sp, #24
   d6a26:	f000 fdc7 	bl	d75b8 <_ZN6StringD1Ev>
  _tempTag += String(_i2cPort->read());
   d6a2a:	f8d4 01a8 	ldr.w	r0, [r4, #424]	; 0x1a8
   d6a2e:	6803      	ldr	r3, [r0, #0]
   d6a30:	695b      	ldr	r3, [r3, #20]
   d6a32:	4798      	blx	r3
   d6a34:	220a      	movs	r2, #10
   d6a36:	4601      	mov	r1, r0
   d6a38:	a806      	add	r0, sp, #24
   d6a3a:	f000 fe6d 	bl	d7718 <_ZN6StringC1Eih>
   d6a3e:	a906      	add	r1, sp, #24
   d6a40:	a802      	add	r0, sp, #8
   d6a42:	f000 fea7 	bl	d7794 <_ZN6String6concatERKS_>

  // The tag is copied to the tag data member of the rfidData struct. 
  _libRfid.tag  = _tempTag; 
   d6a46:	1d25      	adds	r5, r4, #4
  _tempTag += String(_i2cPort->read());
   d6a48:	a806      	add	r0, sp, #24
   d6a4a:	f000 fdb5 	bl	d75b8 <_ZN6StringD1Ev>
  _libRfid.tag  = _tempTag; 
   d6a4e:	a902      	add	r1, sp, #8
   d6a50:	4628      	mov	r0, r5
   d6a52:	f000 fe2d 	bl	d76b0 <_ZN6StringaSERKS_>
	unsigned char operator == (const char *cstr) const {return equals(cstr);}
   d6a56:	491e      	ldr	r1, [pc, #120]	; (d6ad0 <_ZN10Qwiic_Rfid12_readTagTimeEh+0x16c>)
   d6a58:	4628      	mov	r0, r5
   d6a5a:	f000 feb0 	bl	d77be <_ZNK6String6equalsEPKc>
   d6a5e:	f8d4 31a8 	ldr.w	r3, [r4, #424]	; 0x1a8
    // Time is zero if there is not a tag. 
    _tempTime = 0; 

    // Clear the buffer of the four bytes that would hold a time if there
    // was a time to read. 
    _i2cPort->read(); 
   d6a62:	681a      	ldr	r2, [r3, #0]
   d6a64:	6952      	ldr	r2, [r2, #20]
  if( _libRfid.tag == "000000" ){ // Blank tag.
   d6a66:	b1b8      	cbz	r0, d6a98 <_ZN10Qwiic_Rfid12_readTagTimeEh+0x134>
    _i2cPort->read(); 
   d6a68:	4618      	mov	r0, r3
   d6a6a:	4790      	blx	r2
    _i2cPort->read(); 
   d6a6c:	f8d4 01a8 	ldr.w	r0, [r4, #424]	; 0x1a8
   d6a70:	6803      	ldr	r3, [r0, #0]
   d6a72:	695b      	ldr	r3, [r3, #20]
   d6a74:	4798      	blx	r3
    _i2cPort->read(); 
   d6a76:	f8d4 01a8 	ldr.w	r0, [r4, #424]	; 0x1a8
   d6a7a:	6803      	ldr	r3, [r0, #0]
   d6a7c:	695b      	ldr	r3, [r3, #20]
   d6a7e:	4798      	blx	r3
    _i2cPort->read(); 
   d6a80:	f8d4 01a8 	ldr.w	r0, [r4, #424]	; 0x1a8
   d6a84:	6803      	ldr	r3, [r0, #0]
   d6a86:	695b      	ldr	r3, [r3, #20]
   d6a88:	4798      	blx	r3
    _tempTime = 0; 
   d6a8a:	2500      	movs	r5, #0
    _tempTime |= int32_t(_i2cPort->read() << 8); 
    _tempTime |= int32_t(_i2cPort->read()); 
  }

  // Time is copied to the time data member of the rfidData struct. 
  _libRfid.time = _tempTime; // Time in milliseconds
   d6a8c:	6165      	str	r5, [r4, #20]
  String _tempTag; 
   d6a8e:	a802      	add	r0, sp, #8
   d6a90:	f000 fd92 	bl	d75b8 <_ZN6StringD1Ev>
  

}
   d6a94:	b00a      	add	sp, #40	; 0x28
   d6a96:	bd70      	pop	{r4, r5, r6, pc}
    _tempTime  = int32_t(_i2cPort->read() << 24); 
   d6a98:	4618      	mov	r0, r3
   d6a9a:	4790      	blx	r2
   d6a9c:	0605      	lsls	r5, r0, #24
    _tempTime |= int32_t(_i2cPort->read() << 16); 
   d6a9e:	f8d4 01a8 	ldr.w	r0, [r4, #424]	; 0x1a8
   d6aa2:	6803      	ldr	r3, [r0, #0]
   d6aa4:	695b      	ldr	r3, [r3, #20]
   d6aa6:	4798      	blx	r3
   d6aa8:	ea45 4500 	orr.w	r5, r5, r0, lsl #16
    _tempTime |= int32_t(_i2cPort->read() << 8); 
   d6aac:	f8d4 01a8 	ldr.w	r0, [r4, #424]	; 0x1a8
   d6ab0:	6803      	ldr	r3, [r0, #0]
   d6ab2:	695b      	ldr	r3, [r3, #20]
   d6ab4:	4798      	blx	r3
   d6ab6:	4606      	mov	r6, r0
    _tempTime |= int32_t(_i2cPort->read()); 
   d6ab8:	f8d4 01a8 	ldr.w	r0, [r4, #424]	; 0x1a8
   d6abc:	6803      	ldr	r3, [r0, #0]
   d6abe:	695b      	ldr	r3, [r3, #20]
   d6ac0:	4798      	blx	r3
   d6ac2:	4305      	orrs	r5, r0
   d6ac4:	ea45 2506 	orr.w	r5, r5, r6, lsl #8
   d6ac8:	e7e0      	b.n	d6a8c <_ZN10Qwiic_Rfid12_readTagTimeEh+0x128>
   d6aca:	bf00      	nop
   d6acc:	000da1b7 	.word	0x000da1b7
   d6ad0:	000d9a79 	.word	0x000d9a79

000d6ad4 <_ZN10Qwiic_Rfid6getTagEv>:
String Qwiic_Rfid::getTag(){
   d6ad4:	b538      	push	{r3, r4, r5, lr}
   d6ad6:	460c      	mov	r4, r1
   d6ad8:	4605      	mov	r5, r0
  _readTagTime(TAG_AND_TIME_REQUEST); 
   d6ada:	210a      	movs	r1, #10
   d6adc:	4620      	mov	r0, r4
  String tempTag = _libRfid.tag; // Assign the tag to our local variable
   d6ade:	3404      	adds	r4, #4
  _readTagTime(TAG_AND_TIME_REQUEST); 
   d6ae0:	f7ff ff40 	bl	d6964 <_ZN10Qwiic_Rfid12_readTagTimeEh>
  String tempTag = _libRfid.tag; // Assign the tag to our local variable
   d6ae4:	4621      	mov	r1, r4
   d6ae6:	4628      	mov	r0, r5
   d6ae8:	f000 fdf1 	bl	d76ce <_ZN6StringC1ERKS_>
  _libRfid.tag = ""; // Clear the global variable
   d6aec:	4902      	ldr	r1, [pc, #8]	; (d6af8 <_ZN10Qwiic_Rfid6getTagEv+0x24>)
   d6aee:	4620      	mov	r0, r4
   d6af0:	f000 fe00 	bl	d76f4 <_ZN6StringaSEPKc>
}
   d6af4:	4628      	mov	r0, r5
   d6af6:	bd38      	pop	{r3, r4, r5, pc}
   d6af8:	000da1b7 	.word	0x000da1b7

000d6afc <_ZN10Qwiic_Rfid17_readAllTagsTimesEh>:
// function above it handles the I-squared-C transaction to get the RFID tags and
// time from the Qwiic RFID Reader. What comes in from the RFID reader is a
// number that was converted from a string to it's direct numerical
// representation which is then converted back to its' original state. 
void Qwiic_Rfid::_readAllTagsTimes(uint8_t _numofReads)
{
   d6afc:	e92d 43f0 	stmdb	sp!, {r4, r5, r6, r7, r8, r9, lr}
   d6b00:	b089      	sub	sp, #36	; 0x24
   d6b02:	4604      	mov	r4, r0
   d6b04:	460f      	mov	r7, r1

  String _tempTag; 
   d6b06:	4668      	mov	r0, sp
   d6b08:	495d      	ldr	r1, [pc, #372]	; (d6c80 <_ZN10Qwiic_Rfid17_readAllTagsTimesEh+0x184>)
   d6b0a:	f8df 8178 	ldr.w	r8, [pc, #376]	; d6c84 <_ZN10Qwiic_Rfid17_readAllTagsTimesEh+0x188>
   d6b0e:	f000 fd9e 	bl	d764e <_ZN6StringC1EPKc>
  int32_t _tempTime; 

  for(uint8_t i = 0; i < _numofReads; i++)
   d6b12:	2114      	movs	r1, #20
   d6b14:	4626      	mov	r6, r4
   d6b16:	fb11 4707 	smlabb	r7, r1, r7, r4
   d6b1a:	42b7      	cmp	r7, r6
   d6b1c:	f000 80a9 	beq.w	d6c72 <_ZN10Qwiic_Rfid17_readAllTagsTimesEh+0x176>
  {
    //
    // What is read from the buffer is immediately converted to a string and
    // cocatenated onto the temporary variable.  
    _i2cPort->requestFrom(_address, static_cast<uint8_t>(TAG_AND_TIME_REQUEST)); 
   d6b20:	7821      	ldrb	r1, [r4, #0]
   d6b22:	f8d4 01a8 	ldr.w	r0, [r4, #424]	; 0x1a8
   d6b26:	220a      	movs	r2, #10
   d6b28:	f001 fdcf 	bl	d86ca <_ZN7TwoWire11requestFromEhj>
    _tempTag = String(_i2cPort->read());
   d6b2c:	f8d4 01a8 	ldr.w	r0, [r4, #424]	; 0x1a8
   d6b30:	6803      	ldr	r3, [r0, #0]
   d6b32:	695b      	ldr	r3, [r3, #20]
   d6b34:	4798      	blx	r3
   d6b36:	220a      	movs	r2, #10
   d6b38:	4601      	mov	r1, r0
   d6b3a:	a804      	add	r0, sp, #16
   d6b3c:	f000 fdec 	bl	d7718 <_ZN6StringC1Eih>
   d6b40:	a904      	add	r1, sp, #16
   d6b42:	4668      	mov	r0, sp
   d6b44:	f000 fdce 	bl	d76e4 <_ZN6StringaSEOS_>
   d6b48:	a804      	add	r0, sp, #16
   d6b4a:	f000 fd35 	bl	d75b8 <_ZN6StringD1Ev>
    _tempTag += String(_i2cPort->read());
   d6b4e:	f8d4 01a8 	ldr.w	r0, [r4, #424]	; 0x1a8
   d6b52:	6803      	ldr	r3, [r0, #0]
   d6b54:	695b      	ldr	r3, [r3, #20]
   d6b56:	4798      	blx	r3
   d6b58:	220a      	movs	r2, #10
   d6b5a:	4601      	mov	r1, r0
   d6b5c:	a804      	add	r0, sp, #16
   d6b5e:	f000 fddb 	bl	d7718 <_ZN6StringC1Eih>
	String & operator += (const String &rhs)	{concat(rhs); return (*this);}
   d6b62:	a904      	add	r1, sp, #16
   d6b64:	4668      	mov	r0, sp
   d6b66:	f000 fe15 	bl	d7794 <_ZN6String6concatERKS_>
   d6b6a:	a804      	add	r0, sp, #16
   d6b6c:	f000 fd24 	bl	d75b8 <_ZN6StringD1Ev>
    _tempTag += String(_i2cPort->read());
   d6b70:	f8d4 01a8 	ldr.w	r0, [r4, #424]	; 0x1a8
   d6b74:	6803      	ldr	r3, [r0, #0]
   d6b76:	695b      	ldr	r3, [r3, #20]
   d6b78:	4798      	blx	r3
   d6b7a:	220a      	movs	r2, #10
   d6b7c:	4601      	mov	r1, r0
   d6b7e:	a804      	add	r0, sp, #16
   d6b80:	f000 fdca 	bl	d7718 <_ZN6StringC1Eih>
   d6b84:	a904      	add	r1, sp, #16
   d6b86:	4668      	mov	r0, sp
   d6b88:	f000 fe04 	bl	d7794 <_ZN6String6concatERKS_>
   d6b8c:	a804      	add	r0, sp, #16
   d6b8e:	f000 fd13 	bl	d75b8 <_ZN6StringD1Ev>
    _tempTag += String(_i2cPort->read());
   d6b92:	f8d4 01a8 	ldr.w	r0, [r4, #424]	; 0x1a8
   d6b96:	6803      	ldr	r3, [r0, #0]
   d6b98:	695b      	ldr	r3, [r3, #20]
   d6b9a:	4798      	blx	r3
   d6b9c:	220a      	movs	r2, #10
   d6b9e:	4601      	mov	r1, r0
   d6ba0:	a804      	add	r0, sp, #16
   d6ba2:	f000 fdb9 	bl	d7718 <_ZN6StringC1Eih>
   d6ba6:	a904      	add	r1, sp, #16
   d6ba8:	4668      	mov	r0, sp
   d6baa:	f000 fdf3 	bl	d7794 <_ZN6String6concatERKS_>
   d6bae:	a804      	add	r0, sp, #16
   d6bb0:	f000 fd02 	bl	d75b8 <_ZN6StringD1Ev>
    _tempTag += String(_i2cPort->read());
   d6bb4:	f8d4 01a8 	ldr.w	r0, [r4, #424]	; 0x1a8
   d6bb8:	6803      	ldr	r3, [r0, #0]
   d6bba:	695b      	ldr	r3, [r3, #20]
   d6bbc:	4798      	blx	r3
   d6bbe:	220a      	movs	r2, #10
   d6bc0:	4601      	mov	r1, r0
   d6bc2:	a804      	add	r0, sp, #16
   d6bc4:	f000 fda8 	bl	d7718 <_ZN6StringC1Eih>
   d6bc8:	a904      	add	r1, sp, #16
   d6bca:	4668      	mov	r0, sp
   d6bcc:	f000 fde2 	bl	d7794 <_ZN6String6concatERKS_>
   d6bd0:	a804      	add	r0, sp, #16
   d6bd2:	f000 fcf1 	bl	d75b8 <_ZN6StringD1Ev>
    _tempTag += String(_i2cPort->read());
   d6bd6:	f8d4 01a8 	ldr.w	r0, [r4, #424]	; 0x1a8
   d6bda:	6803      	ldr	r3, [r0, #0]
   d6bdc:	695b      	ldr	r3, [r3, #20]
   d6bde:	4798      	blx	r3
   d6be0:	220a      	movs	r2, #10
   d6be2:	4601      	mov	r1, r0
   d6be4:	a804      	add	r0, sp, #16
   d6be6:	f000 fd97 	bl	d7718 <_ZN6StringC1Eih>
   d6bea:	a904      	add	r1, sp, #16
   d6bec:	4668      	mov	r0, sp
   d6bee:	f000 fdd1 	bl	d7794 <_ZN6String6concatERKS_>
   d6bf2:	f106 0518 	add.w	r5, r6, #24
   d6bf6:	a804      	add	r0, sp, #16
   d6bf8:	f000 fcde 	bl	d75b8 <_ZN6StringD1Ev>

    // The tag is copied to the tag data member of the rfidData struct. 
    _libRfidArray[i].tag = _tempTag; 
   d6bfc:	4669      	mov	r1, sp
   d6bfe:	4628      	mov	r0, r5
   d6c00:	f000 fd56 	bl	d76b0 <_ZN6StringaSERKS_>
	unsigned char operator == (const char *cstr) const {return equals(cstr);}
   d6c04:	4641      	mov	r1, r8
   d6c06:	4628      	mov	r0, r5
   d6c08:	f000 fdd9 	bl	d77be <_ZNK6String6equalsEPKc>
   d6c0c:	f8d4 31a8 	ldr.w	r3, [r4, #424]	; 0x1a8
      
      // Time is zero since there is not tag.
      _tempTime = 0; 

      // Clear the buffer...
      _i2cPort->read(); 
   d6c10:	681a      	ldr	r2, [r3, #0]
   d6c12:	6952      	ldr	r2, [r2, #20]
    if (_libRfidArray[i].tag == "000000"){ // Blank tag.
   d6c14:	b1a0      	cbz	r0, d6c40 <_ZN10Qwiic_Rfid17_readAllTagsTimesEh+0x144>
      _i2cPort->read(); 
   d6c16:	4618      	mov	r0, r3
   d6c18:	4790      	blx	r2
      _i2cPort->read(); 
   d6c1a:	f8d4 01a8 	ldr.w	r0, [r4, #424]	; 0x1a8
   d6c1e:	6803      	ldr	r3, [r0, #0]
   d6c20:	695b      	ldr	r3, [r3, #20]
   d6c22:	4798      	blx	r3
      _i2cPort->read(); 
   d6c24:	f8d4 01a8 	ldr.w	r0, [r4, #424]	; 0x1a8
   d6c28:	6803      	ldr	r3, [r0, #0]
   d6c2a:	695b      	ldr	r3, [r3, #20]
   d6c2c:	4798      	blx	r3
      _i2cPort->read(); 
   d6c2e:	f8d4 01a8 	ldr.w	r0, [r4, #424]	; 0x1a8
   d6c32:	6803      	ldr	r3, [r0, #0]
   d6c34:	695b      	ldr	r3, [r3, #20]
   d6c36:	4798      	blx	r3
      _tempTime = 0; 
   d6c38:	2500      	movs	r5, #0
      _tempTime |= int32_t(_i2cPort->read() << 8); 
      _tempTime |= int32_t(_i2cPort->read()); 
    }

    // Time is copied to the time data member of the rfidData struct. 
    _libRfidArray[i].time = _tempTime; // Convert to seconds
   d6c3a:	62b5      	str	r5, [r6, #40]	; 0x28
  for(uint8_t i = 0; i < _numofReads; i++)
   d6c3c:	3614      	adds	r6, #20
   d6c3e:	e76c      	b.n	d6b1a <_ZN10Qwiic_Rfid17_readAllTagsTimesEh+0x1e>
      _tempTime = int32_t(_i2cPort->read() << 24); 
   d6c40:	4618      	mov	r0, r3
   d6c42:	4790      	blx	r2
   d6c44:	0605      	lsls	r5, r0, #24
      _tempTime |= int32_t(_i2cPort->read() << 16); 
   d6c46:	f8d4 01a8 	ldr.w	r0, [r4, #424]	; 0x1a8
   d6c4a:	6803      	ldr	r3, [r0, #0]
   d6c4c:	695b      	ldr	r3, [r3, #20]
   d6c4e:	4798      	blx	r3
   d6c50:	ea45 4500 	orr.w	r5, r5, r0, lsl #16
      _tempTime |= int32_t(_i2cPort->read() << 8); 
   d6c54:	f8d4 01a8 	ldr.w	r0, [r4, #424]	; 0x1a8
   d6c58:	6803      	ldr	r3, [r0, #0]
   d6c5a:	695b      	ldr	r3, [r3, #20]
   d6c5c:	4798      	blx	r3
   d6c5e:	4681      	mov	r9, r0
      _tempTime |= int32_t(_i2cPort->read()); 
   d6c60:	f8d4 01a8 	ldr.w	r0, [r4, #424]	; 0x1a8
   d6c64:	6803      	ldr	r3, [r0, #0]
   d6c66:	695b      	ldr	r3, [r3, #20]
   d6c68:	4798      	blx	r3
   d6c6a:	4305      	orrs	r5, r0
   d6c6c:	ea45 2509 	orr.w	r5, r5, r9, lsl #8
   d6c70:	e7e3      	b.n	d6c3a <_ZN10Qwiic_Rfid17_readAllTagsTimesEh+0x13e>
  String _tempTag; 
   d6c72:	4668      	mov	r0, sp
   d6c74:	f000 fca0 	bl	d75b8 <_ZN6StringD1Ev>
  } 

}
   d6c78:	b009      	add	sp, #36	; 0x24
   d6c7a:	e8bd 83f0 	ldmia.w	sp!, {r4, r5, r6, r7, r8, r9, pc}
   d6c7e:	bf00      	nop
   d6c80:	000da1b7 	.word	0x000da1b7
   d6c84:	000d9a79 	.word	0x000d9a79

000d6c88 <_ZN10Qwiic_Rfid9clearTagsEv>:
  _readAllTagsTimes(MAX_TAG_STORAGE); 
   d6c88:	2114      	movs	r1, #20
   d6c8a:	f7ff bf37 	b.w	d6afc <_ZN10Qwiic_Rfid17_readAllTagsTimesEh>
	...

000d6c90 <netdb_freeaddrinfo>:

DYNALIB_BEGIN(hal_netdb)

DYNALIB_FN(0, hal_netdb, netdb_gethostbyname, struct hostent*(const char*))
DYNALIB_FN(1, hal_netdb, netdb_gethostbyname_r, int(const char*, struct hostent*, char*, size_t, struct hostent**, int*))
DYNALIB_FN(2, hal_netdb, netdb_freeaddrinfo, void(struct addrinfo*))
   d6c90:	b508      	push	{r3, lr}
   d6c92:	4b02      	ldr	r3, [pc, #8]	; (d6c9c <netdb_freeaddrinfo+0xc>)
   d6c94:	681b      	ldr	r3, [r3, #0]
   d6c96:	689b      	ldr	r3, [r3, #8]
   d6c98:	9301      	str	r3, [sp, #4]
   d6c9a:	bd08      	pop	{r3, pc}
   d6c9c:	00030268 	.word	0x00030268

000d6ca0 <netdb_getaddrinfo>:
DYNALIB_FN(3, hal_netdb, netdb_getaddrinfo, int(const char*, const char*, const struct addrinfo*, struct addrinfo**))
   d6ca0:	b508      	push	{r3, lr}
   d6ca2:	4b02      	ldr	r3, [pc, #8]	; (d6cac <netdb_getaddrinfo+0xc>)
   d6ca4:	681b      	ldr	r3, [r3, #0]
   d6ca6:	68db      	ldr	r3, [r3, #12]
   d6ca8:	9301      	str	r3, [sp, #4]
   d6caa:	bd08      	pop	{r3, pc}
   d6cac:	00030268 	.word	0x00030268

000d6cb0 <HAL_Pin_Mode>:

DYNALIB_BEGIN(hal_gpio)

DYNALIB_FN(0, hal_gpio, HAL_Pin_Map, Hal_Pin_Info*(void))
DYNALIB_FN(1, hal_gpio, HAL_Validate_Pin_Function, PinFunction(pin_t, PinFunction))
DYNALIB_FN(2, hal_gpio, HAL_Pin_Mode, void(pin_t, PinMode))
   d6cb0:	b508      	push	{r3, lr}
   d6cb2:	4b02      	ldr	r3, [pc, #8]	; (d6cbc <HAL_Pin_Mode+0xc>)
   d6cb4:	681b      	ldr	r3, [r3, #0]
   d6cb6:	689b      	ldr	r3, [r3, #8]
   d6cb8:	9301      	str	r3, [sp, #4]
   d6cba:	bd08      	pop	{r3, pc}
   d6cbc:	0003022c 	.word	0x0003022c

000d6cc0 <HAL_Get_Pin_Mode>:
DYNALIB_FN(3, hal_gpio, HAL_Get_Pin_Mode, PinMode(pin_t))
   d6cc0:	b508      	push	{r3, lr}
   d6cc2:	4b02      	ldr	r3, [pc, #8]	; (d6ccc <HAL_Get_Pin_Mode+0xc>)
   d6cc4:	681b      	ldr	r3, [r3, #0]
   d6cc6:	68db      	ldr	r3, [r3, #12]
   d6cc8:	9301      	str	r3, [sp, #4]
   d6cca:	bd08      	pop	{r3, pc}
   d6ccc:	0003022c 	.word	0x0003022c

000d6cd0 <HAL_GPIO_Write>:
DYNALIB_FN(4, hal_gpio, HAL_GPIO_Write, void(pin_t, uint8_t))
   d6cd0:	b508      	push	{r3, lr}
   d6cd2:	4b02      	ldr	r3, [pc, #8]	; (d6cdc <HAL_GPIO_Write+0xc>)
   d6cd4:	681b      	ldr	r3, [r3, #0]
   d6cd6:	691b      	ldr	r3, [r3, #16]
   d6cd8:	9301      	str	r3, [sp, #4]
   d6cda:	bd08      	pop	{r3, pc}
   d6cdc:	0003022c 	.word	0x0003022c

000d6ce0 <HAL_GPIO_Read>:
DYNALIB_FN(5, hal_gpio, HAL_GPIO_Read, int32_t(pin_t))
   d6ce0:	b508      	push	{r3, lr}
   d6ce2:	4b02      	ldr	r3, [pc, #8]	; (d6cec <HAL_GPIO_Read+0xc>)
   d6ce4:	681b      	ldr	r3, [r3, #0]
   d6ce6:	695b      	ldr	r3, [r3, #20]
   d6ce8:	9301      	str	r3, [sp, #4]
   d6cea:	bd08      	pop	{r3, pc}
   d6cec:	0003022c 	.word	0x0003022c

000d6cf0 <HAL_RNG_GetRandomNumber>:

DYNALIB_BEGIN(hal)

#if PLATFORM_ID > 3
DYNALIB_FN(0, hal, HAL_RNG_Configuration, void(void))
DYNALIB_FN(1, hal, HAL_RNG_GetRandomNumber, uint32_t(void))
   d6cf0:	b508      	push	{r3, lr}
   d6cf2:	4b02      	ldr	r3, [pc, #8]	; (d6cfc <HAL_RNG_GetRandomNumber+0xc>)
   d6cf4:	681b      	ldr	r3, [r3, #0]
   d6cf6:	685b      	ldr	r3, [r3, #4]
   d6cf8:	9301      	str	r3, [sp, #4]
   d6cfa:	bd08      	pop	{r3, pc}
   d6cfc:	00030218 	.word	0x00030218

000d6d00 <HAL_Delay_Microseconds>:
#else
#define BASE_IDX 0
#endif

DYNALIB_FN(BASE_IDX + 0, hal, HAL_Delay_Milliseconds, void(uint32_t))
DYNALIB_FN(BASE_IDX + 1, hal, HAL_Delay_Microseconds, void(uint32_t))
   d6d00:	b508      	push	{r3, lr}
   d6d02:	4b02      	ldr	r3, [pc, #8]	; (d6d0c <HAL_Delay_Microseconds+0xc>)
   d6d04:	681b      	ldr	r3, [r3, #0]
   d6d06:	68db      	ldr	r3, [r3, #12]
   d6d08:	9301      	str	r3, [sp, #4]
   d6d0a:	bd08      	pop	{r3, pc}
   d6d0c:	00030218 	.word	0x00030218

000d6d10 <HAL_Timer_Get_Milli_Seconds>:
DYNALIB_FN(BASE_IDX + 2, hal, HAL_Timer_Get_Micro_Seconds, system_tick_t(void))
DYNALIB_FN(BASE_IDX + 3, hal, HAL_Timer_Get_Milli_Seconds, system_tick_t(void))
   d6d10:	b508      	push	{r3, lr}
   d6d12:	4b02      	ldr	r3, [pc, #8]	; (d6d1c <HAL_Timer_Get_Milli_Seconds+0xc>)
   d6d14:	681b      	ldr	r3, [r3, #0]
   d6d16:	695b      	ldr	r3, [r3, #20]
   d6d18:	9301      	str	r3, [sp, #4]
   d6d1a:	bd08      	pop	{r3, pc}
   d6d1c:	00030218 	.word	0x00030218

000d6d20 <os_mutex_recursive_create>:
DYNALIB_FN(13, hal_concurrent, os_mutex_destroy, int(os_mutex_t))
DYNALIB_FN(14, hal_concurrent, os_mutex_lock, int(os_mutex_t))
DYNALIB_FN(15, hal_concurrent, os_mutex_trylock, int(os_mutex_t))
DYNALIB_FN(16, hal_concurrent, os_mutex_unlock, int(os_mutex_t))

DYNALIB_FN(17, hal_concurrent, os_mutex_recursive_create, int(os_mutex_recursive_t*))
   d6d20:	b508      	push	{r3, lr}
   d6d22:	4b02      	ldr	r3, [pc, #8]	; (d6d2c <os_mutex_recursive_create+0xc>)
   d6d24:	681b      	ldr	r3, [r3, #0]
   d6d26:	6c5b      	ldr	r3, [r3, #68]	; 0x44
   d6d28:	9301      	str	r3, [sp, #4]
   d6d2a:	bd08      	pop	{r3, pc}
   d6d2c:	00030248 	.word	0x00030248

000d6d30 <os_mutex_recursive_destroy>:
DYNALIB_FN(18, hal_concurrent, os_mutex_recursive_destroy, int(os_mutex_recursive_t))
   d6d30:	b508      	push	{r3, lr}
   d6d32:	4b02      	ldr	r3, [pc, #8]	; (d6d3c <os_mutex_recursive_destroy+0xc>)
   d6d34:	681b      	ldr	r3, [r3, #0]
   d6d36:	6c9b      	ldr	r3, [r3, #72]	; 0x48
   d6d38:	9301      	str	r3, [sp, #4]
   d6d3a:	bd08      	pop	{r3, pc}
   d6d3c:	00030248 	.word	0x00030248

000d6d40 <inet_inet_ntop>:
DYNALIB_FN(0, hal_inet, inet_inet_addr, in_addr_t(const char*))
DYNALIB_FN(1, hal_inet, inet_inet_aton, int(const char*, struct in_addr*))
DYNALIB_FN(2, hal_inet, inet_inet_network, in_addr_t(const char*))
DYNALIB_FN(3, hal_inet, inet_inet_ntoa, char*(struct in_addr))
DYNALIB_FN(4, hal_inet, inet_inet_ntoa_r, char*(struct in_addr, char*, socklen_t))
DYNALIB_FN(5, hal_inet, inet_inet_ntop, const char*(int, const void*, char*, socklen_t))
   d6d40:	b508      	push	{r3, lr}
   d6d42:	4b02      	ldr	r3, [pc, #8]	; (d6d4c <inet_inet_ntop+0xc>)
   d6d44:	681b      	ldr	r3, [r3, #0]
   d6d46:	695b      	ldr	r3, [r3, #20]
   d6d48:	9301      	str	r3, [sp, #4]
   d6d4a:	bd08      	pop	{r3, pc}
   d6d4c:	00030264 	.word	0x00030264

000d6d50 <hal_usart_init>:
#define BASE_IDX 6 // Base index for all subsequent functions
#else
#define BASE_IDX 0
#endif

DYNALIB_FN(BASE_IDX + 0, hal_usart, hal_usart_init, void(hal_usart_interface_t, hal_usart_ring_buffer_t*, hal_usart_ring_buffer_t*))
   d6d50:	b508      	push	{r3, lr}
   d6d52:	4b02      	ldr	r3, [pc, #8]	; (d6d5c <hal_usart_init+0xc>)
   d6d54:	681b      	ldr	r3, [r3, #0]
   d6d56:	681b      	ldr	r3, [r3, #0]
   d6d58:	9301      	str	r3, [sp, #4]
   d6d5a:	bd08      	pop	{r3, pc}
   d6d5c:	0003023c 	.word	0x0003023c

000d6d60 <hal_usart_write>:
DYNALIB_FN(BASE_IDX + 1, hal_usart, hal_usart_begin, void(hal_usart_interface_t, uint32_t))
DYNALIB_FN(BASE_IDX + 2, hal_usart, hal_usart_end, void(hal_usart_interface_t))
DYNALIB_FN(BASE_IDX + 3, hal_usart, hal_usart_write, uint32_t(hal_usart_interface_t, uint8_t))
   d6d60:	b508      	push	{r3, lr}
   d6d62:	4b02      	ldr	r3, [pc, #8]	; (d6d6c <hal_usart_write+0xc>)
   d6d64:	681b      	ldr	r3, [r3, #0]
   d6d66:	68db      	ldr	r3, [r3, #12]
   d6d68:	9301      	str	r3, [sp, #4]
   d6d6a:	bd08      	pop	{r3, pc}
   d6d6c:	0003023c 	.word	0x0003023c

000d6d70 <hal_usart_available>:
DYNALIB_FN(BASE_IDX + 4, hal_usart, hal_usart_available, int32_t(hal_usart_interface_t))
   d6d70:	b508      	push	{r3, lr}
   d6d72:	4b02      	ldr	r3, [pc, #8]	; (d6d7c <hal_usart_available+0xc>)
   d6d74:	681b      	ldr	r3, [r3, #0]
   d6d76:	691b      	ldr	r3, [r3, #16]
   d6d78:	9301      	str	r3, [sp, #4]
   d6d7a:	bd08      	pop	{r3, pc}
   d6d7c:	0003023c 	.word	0x0003023c

000d6d80 <hal_usart_read>:
DYNALIB_FN(BASE_IDX + 5, hal_usart, hal_usart_read, int32_t(hal_usart_interface_t))
   d6d80:	b508      	push	{r3, lr}
   d6d82:	4b02      	ldr	r3, [pc, #8]	; (d6d8c <hal_usart_read+0xc>)
   d6d84:	681b      	ldr	r3, [r3, #0]
   d6d86:	695b      	ldr	r3, [r3, #20]
   d6d88:	9301      	str	r3, [sp, #4]
   d6d8a:	bd08      	pop	{r3, pc}
   d6d8c:	0003023c 	.word	0x0003023c

000d6d90 <hal_usart_peek>:
DYNALIB_FN(BASE_IDX + 6, hal_usart, hal_usart_peek, int32_t(hal_usart_interface_t))
   d6d90:	b508      	push	{r3, lr}
   d6d92:	4b02      	ldr	r3, [pc, #8]	; (d6d9c <hal_usart_peek+0xc>)
   d6d94:	681b      	ldr	r3, [r3, #0]
   d6d96:	699b      	ldr	r3, [r3, #24]
   d6d98:	9301      	str	r3, [sp, #4]
   d6d9a:	bd08      	pop	{r3, pc}
   d6d9c:	0003023c 	.word	0x0003023c

000d6da0 <hal_usart_flush>:
DYNALIB_FN(BASE_IDX + 7, hal_usart, hal_usart_flush, void(hal_usart_interface_t))
   d6da0:	b508      	push	{r3, lr}
   d6da2:	4b02      	ldr	r3, [pc, #8]	; (d6dac <hal_usart_flush+0xc>)
   d6da4:	681b      	ldr	r3, [r3, #0]
   d6da6:	69db      	ldr	r3, [r3, #28]
   d6da8:	9301      	str	r3, [sp, #4]
   d6daa:	bd08      	pop	{r3, pc}
   d6dac:	0003023c 	.word	0x0003023c

000d6db0 <hal_usart_is_enabled>:
DYNALIB_FN(BASE_IDX + 8, hal_usart, hal_usart_is_enabled, bool(hal_usart_interface_t))
   d6db0:	b508      	push	{r3, lr}
   d6db2:	4b02      	ldr	r3, [pc, #8]	; (d6dbc <hal_usart_is_enabled+0xc>)
   d6db4:	681b      	ldr	r3, [r3, #0]
   d6db6:	6a1b      	ldr	r3, [r3, #32]
   d6db8:	9301      	str	r3, [sp, #4]
   d6dba:	bd08      	pop	{r3, pc}
   d6dbc:	0003023c 	.word	0x0003023c

000d6dc0 <hal_usart_available_data_for_write>:
DYNALIB_FN(BASE_IDX + 9, hal_usart, hal_usart_half_duplex, void(hal_usart_interface_t, bool))
DYNALIB_FN(BASE_IDX + 10, hal_usart, hal_usart_available_data_for_write, int32_t(hal_usart_interface_t))
   d6dc0:	b508      	push	{r3, lr}
   d6dc2:	4b02      	ldr	r3, [pc, #8]	; (d6dcc <hal_usart_available_data_for_write+0xc>)
   d6dc4:	681b      	ldr	r3, [r3, #0]
   d6dc6:	6a9b      	ldr	r3, [r3, #40]	; 0x28
   d6dc8:	9301      	str	r3, [sp, #4]
   d6dca:	bd08      	pop	{r3, pc}
   d6dcc:	0003023c 	.word	0x0003023c

000d6dd0 <hal_i2c_begin>:
#endif

DYNALIB_FN(BASE_IDX + 0, hal_i2c, hal_i2c_set_speed, void(hal_i2c_interface_t, uint32_t, void*))
DYNALIB_FN(BASE_IDX + 1, hal_i2c, hal_i2c_enable_dma_mode, void(hal_i2c_interface_t, bool, void*))
DYNALIB_FN(BASE_IDX + 2, hal_i2c, hal_i2c_stretch_clock, void(hal_i2c_interface_t, bool, void*))
DYNALIB_FN(BASE_IDX + 3, hal_i2c, hal_i2c_begin, void(hal_i2c_interface_t, hal_i2c_mode_t, uint8_t, void*))
   d6dd0:	b508      	push	{r3, lr}
   d6dd2:	4b02      	ldr	r3, [pc, #8]	; (d6ddc <hal_i2c_begin+0xc>)
   d6dd4:	681b      	ldr	r3, [r3, #0]
   d6dd6:	68db      	ldr	r3, [r3, #12]
   d6dd8:	9301      	str	r3, [sp, #4]
   d6dda:	bd08      	pop	{r3, pc}
   d6ddc:	00030228 	.word	0x00030228

000d6de0 <hal_i2c_begin_transmission>:
DYNALIB_FN(BASE_IDX + 4, hal_i2c, hal_i2c_end, void(hal_i2c_interface_t, void*))
DYNALIB_FN(BASE_IDX + 5, hal_i2c, hal_i2c_request, uint32_t(hal_i2c_interface_t, uint8_t, uint8_t, uint8_t, void*))
DYNALIB_FN(BASE_IDX + 6, hal_i2c, hal_i2c_begin_transmission, void(hal_i2c_interface_t, uint8_t, const hal_i2c_transmission_config_t*))
   d6de0:	b508      	push	{r3, lr}
   d6de2:	4b02      	ldr	r3, [pc, #8]	; (d6dec <hal_i2c_begin_transmission+0xc>)
   d6de4:	681b      	ldr	r3, [r3, #0]
   d6de6:	699b      	ldr	r3, [r3, #24]
   d6de8:	9301      	str	r3, [sp, #4]
   d6dea:	bd08      	pop	{r3, pc}
   d6dec:	00030228 	.word	0x00030228

000d6df0 <hal_i2c_end_transmission>:
DYNALIB_FN(BASE_IDX + 7, hal_i2c, hal_i2c_end_transmission, uint8_t(hal_i2c_interface_t, uint8_t, void*))
   d6df0:	b508      	push	{r3, lr}
   d6df2:	4b02      	ldr	r3, [pc, #8]	; (d6dfc <hal_i2c_end_transmission+0xc>)
   d6df4:	681b      	ldr	r3, [r3, #0]
   d6df6:	69db      	ldr	r3, [r3, #28]
   d6df8:	9301      	str	r3, [sp, #4]
   d6dfa:	bd08      	pop	{r3, pc}
   d6dfc:	00030228 	.word	0x00030228

000d6e00 <hal_i2c_write>:
DYNALIB_FN(BASE_IDX + 8, hal_i2c, hal_i2c_write, uint32_t(hal_i2c_interface_t, uint8_t, void*))
   d6e00:	b508      	push	{r3, lr}
   d6e02:	4b02      	ldr	r3, [pc, #8]	; (d6e0c <hal_i2c_write+0xc>)
   d6e04:	681b      	ldr	r3, [r3, #0]
   d6e06:	6a1b      	ldr	r3, [r3, #32]
   d6e08:	9301      	str	r3, [sp, #4]
   d6e0a:	bd08      	pop	{r3, pc}
   d6e0c:	00030228 	.word	0x00030228

000d6e10 <hal_i2c_available>:
DYNALIB_FN(BASE_IDX + 9, hal_i2c, hal_i2c_available, int32_t(hal_i2c_interface_t, void*))
   d6e10:	b508      	push	{r3, lr}
   d6e12:	4b02      	ldr	r3, [pc, #8]	; (d6e1c <hal_i2c_available+0xc>)
   d6e14:	681b      	ldr	r3, [r3, #0]
   d6e16:	6a5b      	ldr	r3, [r3, #36]	; 0x24
   d6e18:	9301      	str	r3, [sp, #4]
   d6e1a:	bd08      	pop	{r3, pc}
   d6e1c:	00030228 	.word	0x00030228

000d6e20 <hal_i2c_read>:
DYNALIB_FN(BASE_IDX + 10, hal_i2c, hal_i2c_read, int32_t(hal_i2c_interface_t, void*))
   d6e20:	b508      	push	{r3, lr}
   d6e22:	4b02      	ldr	r3, [pc, #8]	; (d6e2c <hal_i2c_read+0xc>)
   d6e24:	681b      	ldr	r3, [r3, #0]
   d6e26:	6a9b      	ldr	r3, [r3, #40]	; 0x28
   d6e28:	9301      	str	r3, [sp, #4]
   d6e2a:	bd08      	pop	{r3, pc}
   d6e2c:	00030228 	.word	0x00030228

000d6e30 <hal_i2c_peek>:
DYNALIB_FN(BASE_IDX + 11, hal_i2c, hal_i2c_peek, int32_t(hal_i2c_interface_t, void*))
   d6e30:	b508      	push	{r3, lr}
   d6e32:	4b02      	ldr	r3, [pc, #8]	; (d6e3c <hal_i2c_peek+0xc>)
   d6e34:	681b      	ldr	r3, [r3, #0]
   d6e36:	6adb      	ldr	r3, [r3, #44]	; 0x2c
   d6e38:	9301      	str	r3, [sp, #4]
   d6e3a:	bd08      	pop	{r3, pc}
   d6e3c:	00030228 	.word	0x00030228

000d6e40 <hal_i2c_flush>:
DYNALIB_FN(BASE_IDX + 12, hal_i2c, hal_i2c_flush, void(hal_i2c_interface_t, void*))
   d6e40:	b508      	push	{r3, lr}
   d6e42:	4b02      	ldr	r3, [pc, #8]	; (d6e4c <hal_i2c_flush+0xc>)
   d6e44:	681b      	ldr	r3, [r3, #0]
   d6e46:	6b1b      	ldr	r3, [r3, #48]	; 0x30
   d6e48:	9301      	str	r3, [sp, #4]
   d6e4a:	bd08      	pop	{r3, pc}
   d6e4c:	00030228 	.word	0x00030228

000d6e50 <hal_i2c_is_enabled>:
DYNALIB_FN(BASE_IDX + 13, hal_i2c, hal_i2c_is_enabled, bool(hal_i2c_interface_t, void*))
   d6e50:	b508      	push	{r3, lr}
   d6e52:	4b02      	ldr	r3, [pc, #8]	; (d6e5c <hal_i2c_is_enabled+0xc>)
   d6e54:	681b      	ldr	r3, [r3, #0]
   d6e56:	6b5b      	ldr	r3, [r3, #52]	; 0x34
   d6e58:	9301      	str	r3, [sp, #4]
   d6e5a:	bd08      	pop	{r3, pc}
   d6e5c:	00030228 	.word	0x00030228

000d6e60 <hal_i2c_init>:
DYNALIB_FN(BASE_IDX + 14, hal_i2c, hal_i2c_set_callback_on_received, void(hal_i2c_interface_t, void(*)(int), void*))
DYNALIB_FN(BASE_IDX + 15, hal_i2c, hal_i2c_set_callback_on_requested, void(hal_i2c_interface_t, void(*)(void), void*))
DYNALIB_FN(BASE_IDX + 16, hal_i2c, hal_i2c_init, int(hal_i2c_interface_t, const hal_i2c_config_t*))
   d6e60:	b508      	push	{r3, lr}
   d6e62:	4b02      	ldr	r3, [pc, #8]	; (d6e6c <hal_i2c_init+0xc>)
   d6e64:	681b      	ldr	r3, [r3, #0]
   d6e66:	6c1b      	ldr	r3, [r3, #64]	; 0x40
   d6e68:	9301      	str	r3, [sp, #4]
   d6e6a:	bd08      	pop	{r3, pc}
   d6e6c:	00030228 	.word	0x00030228

000d6e70 <hal_i2c_lock>:
DYNALIB_FN(BASE_IDX + 17, hal_i2c, hal_i2c_reset, uint8_t(hal_i2c_interface_t, uint32_t, void*))
DYNALIB_FN(BASE_IDX + 18, hal_i2c, hal_i2c_lock, int32_t(hal_i2c_interface_t, void*))
   d6e70:	b508      	push	{r3, lr}
   d6e72:	4b02      	ldr	r3, [pc, #8]	; (d6e7c <hal_i2c_lock+0xc>)
   d6e74:	681b      	ldr	r3, [r3, #0]
   d6e76:	6c9b      	ldr	r3, [r3, #72]	; 0x48
   d6e78:	9301      	str	r3, [sp, #4]
   d6e7a:	bd08      	pop	{r3, pc}
   d6e7c:	00030228 	.word	0x00030228

000d6e80 <hal_i2c_unlock>:
DYNALIB_FN(BASE_IDX + 19, hal_i2c, hal_i2c_unlock, int32_t(hal_i2c_interface_t, void*))
   d6e80:	b508      	push	{r3, lr}
   d6e82:	4b02      	ldr	r3, [pc, #8]	; (d6e8c <hal_i2c_unlock+0xc>)
   d6e84:	681b      	ldr	r3, [r3, #0]
   d6e86:	6cdb      	ldr	r3, [r3, #76]	; 0x4c
   d6e88:	9301      	str	r3, [sp, #4]
   d6e8a:	bd08      	pop	{r3, pc}
   d6e8c:	00030228 	.word	0x00030228

000d6e90 <hal_i2c_request_ex>:
DYNALIB_FN(BASE_IDX + 20, hal_i2c, hal_i2c_request_ex, int32_t(hal_i2c_interface_t, const hal_i2c_transmission_config_t*, void*))
   d6e90:	b508      	push	{r3, lr}
   d6e92:	4b02      	ldr	r3, [pc, #8]	; (d6e9c <hal_i2c_request_ex+0xc>)
   d6e94:	681b      	ldr	r3, [r3, #0]
   d6e96:	6d1b      	ldr	r3, [r3, #80]	; 0x50
   d6e98:	9301      	str	r3, [sp, #4]
   d6e9a:	bd08      	pop	{r3, pc}
   d6e9c:	00030228 	.word	0x00030228

000d6ea0 <hal_spi_init>:
DYNALIB_FN(2, hal_spi, hal_spi_set_bit_order, void(hal_spi_interface_t, uint8_t))
DYNALIB_FN(3, hal_spi, hal_spi_set_data_mode, void(hal_spi_interface_t, uint8_t))
DYNALIB_FN(4, hal_spi, hal_spi_set_clock_divider, void(hal_spi_interface_t, uint8_t))
DYNALIB_FN(5, hal_spi, hal_spi_transfer, uint16_t(hal_spi_interface_t, uint16_t))
DYNALIB_FN(6, hal_spi, hal_spi_is_enabled_deprecated, bool(void))
DYNALIB_FN(7, hal_spi, hal_spi_init, void(hal_spi_interface_t))
   d6ea0:	b508      	push	{r3, lr}
   d6ea2:	4b02      	ldr	r3, [pc, #8]	; (d6eac <hal_spi_init+0xc>)
   d6ea4:	681b      	ldr	r3, [r3, #0]
   d6ea6:	69db      	ldr	r3, [r3, #28]
   d6ea8:	9301      	str	r3, [sp, #4]
   d6eaa:	bd08      	pop	{r3, pc}
   d6eac:	00030230 	.word	0x00030230

000d6eb0 <hal_spi_is_enabled>:
DYNALIB_FN(8, hal_spi, hal_spi_is_enabled, bool(hal_spi_interface_t))
   d6eb0:	b508      	push	{r3, lr}
   d6eb2:	4b02      	ldr	r3, [pc, #8]	; (d6ebc <hal_spi_is_enabled+0xc>)
   d6eb4:	681b      	ldr	r3, [r3, #0]
   d6eb6:	6a1b      	ldr	r3, [r3, #32]
   d6eb8:	9301      	str	r3, [sp, #4]
   d6eba:	bd08      	pop	{r3, pc}
   d6ebc:	00030230 	.word	0x00030230

000d6ec0 <HAL_USB_USART_Init>:
#endif

DYNALIB_BEGIN(hal_usb)

#ifdef USB_CDC_ENABLE
DYNALIB_FN(0, hal_usb, HAL_USB_USART_Init, void(HAL_USB_USART_Serial, const HAL_USB_USART_Config*))
   d6ec0:	b508      	push	{r3, lr}
   d6ec2:	4b02      	ldr	r3, [pc, #8]	; (d6ecc <HAL_USB_USART_Init+0xc>)
   d6ec4:	681b      	ldr	r3, [r3, #0]
   d6ec6:	681b      	ldr	r3, [r3, #0]
   d6ec8:	9301      	str	r3, [sp, #4]
   d6eca:	bd08      	pop	{r3, pc}
   d6ecc:	0003024c 	.word	0x0003024c

000d6ed0 <HAL_USB_USART_Begin>:
DYNALIB_FN(1, hal_usb, HAL_USB_USART_Begin, void(HAL_USB_USART_Serial, uint32_t, void *))
   d6ed0:	b508      	push	{r3, lr}
   d6ed2:	4b02      	ldr	r3, [pc, #8]	; (d6edc <HAL_USB_USART_Begin+0xc>)
   d6ed4:	681b      	ldr	r3, [r3, #0]
   d6ed6:	685b      	ldr	r3, [r3, #4]
   d6ed8:	9301      	str	r3, [sp, #4]
   d6eda:	bd08      	pop	{r3, pc}
   d6edc:	0003024c 	.word	0x0003024c

000d6ee0 <HAL_USB_USART_Available_Data>:
DYNALIB_FN(2, hal_usb, HAL_USB_USART_End, void(HAL_USB_USART_Serial))
DYNALIB_FN(3, hal_usb, HAL_USB_USART_Baud_Rate, unsigned int(HAL_USB_USART_Serial))
DYNALIB_FN(4, hal_usb, HAL_USB_USART_Available_Data, int32_t(HAL_USB_USART_Serial))
   d6ee0:	b508      	push	{r3, lr}
   d6ee2:	4b02      	ldr	r3, [pc, #8]	; (d6eec <HAL_USB_USART_Available_Data+0xc>)
   d6ee4:	681b      	ldr	r3, [r3, #0]
   d6ee6:	691b      	ldr	r3, [r3, #16]
   d6ee8:	9301      	str	r3, [sp, #4]
   d6eea:	bd08      	pop	{r3, pc}
   d6eec:	0003024c 	.word	0x0003024c

000d6ef0 <HAL_USB_USART_Available_Data_For_Write>:
DYNALIB_FN(5, hal_usb, HAL_USB_USART_Available_Data_For_Write, int32_t(HAL_USB_USART_Serial))
   d6ef0:	b508      	push	{r3, lr}
   d6ef2:	4b02      	ldr	r3, [pc, #8]	; (d6efc <HAL_USB_USART_Available_Data_For_Write+0xc>)
   d6ef4:	681b      	ldr	r3, [r3, #0]
   d6ef6:	695b      	ldr	r3, [r3, #20]
   d6ef8:	9301      	str	r3, [sp, #4]
   d6efa:	bd08      	pop	{r3, pc}
   d6efc:	0003024c 	.word	0x0003024c

000d6f00 <HAL_USB_USART_Receive_Data>:
DYNALIB_FN(6, hal_usb, HAL_USB_USART_Receive_Data, int32_t(HAL_USB_USART_Serial, uint8_t))
   d6f00:	b508      	push	{r3, lr}
   d6f02:	4b02      	ldr	r3, [pc, #8]	; (d6f0c <HAL_USB_USART_Receive_Data+0xc>)
   d6f04:	681b      	ldr	r3, [r3, #0]
   d6f06:	699b      	ldr	r3, [r3, #24]
   d6f08:	9301      	str	r3, [sp, #4]
   d6f0a:	bd08      	pop	{r3, pc}
   d6f0c:	0003024c 	.word	0x0003024c

000d6f10 <HAL_USB_USART_Send_Data>:
DYNALIB_FN(7, hal_usb, HAL_USB_USART_Send_Data, int32_t(HAL_USB_USART_Serial, uint8_t))
   d6f10:	b508      	push	{r3, lr}
   d6f12:	4b02      	ldr	r3, [pc, #8]	; (d6f1c <HAL_USB_USART_Send_Data+0xc>)
   d6f14:	681b      	ldr	r3, [r3, #0]
   d6f16:	69db      	ldr	r3, [r3, #28]
   d6f18:	9301      	str	r3, [sp, #4]
   d6f1a:	bd08      	pop	{r3, pc}
   d6f1c:	0003024c 	.word	0x0003024c

000d6f20 <HAL_USB_USART_Flush_Data>:
DYNALIB_FN(8, hal_usb, HAL_USB_USART_Flush_Data, void(HAL_USB_USART_Serial))
   d6f20:	b508      	push	{r3, lr}
   d6f22:	4b02      	ldr	r3, [pc, #8]	; (d6f2c <HAL_USB_USART_Flush_Data+0xc>)
   d6f24:	681b      	ldr	r3, [r3, #0]
   d6f26:	6a1b      	ldr	r3, [r3, #32]
   d6f28:	9301      	str	r3, [sp, #4]
   d6f2a:	bd08      	pop	{r3, pc}
   d6f2c:	0003024c 	.word	0x0003024c

000d6f30 <log_message>:
DYNALIB_FN(16, services, log_print_, void(int, int, const char*, const char*, const char*, ...)) // Deprecated
DYNALIB_FN(17, services, LED_RGB_SetChangeHandler, void(led_update_handler_fn, void*))
DYNALIB_FN(18, services, log_print_direct_, void(int, void*, const char*, ...)) // Deprecated
DYNALIB_FN(19, services, LED_GetColor, uint32_t(uint32_t, void*))

DYNALIB_FN(20, services, log_message, void(int, const char*, LogAttributes*, void*, const char*, ...))
   d6f30:	b508      	push	{r3, lr}
   d6f32:	4b02      	ldr	r3, [pc, #8]	; (d6f3c <log_message+0xc>)
   d6f34:	681b      	ldr	r3, [r3, #0]
   d6f36:	6d1b      	ldr	r3, [r3, #80]	; 0x50
   d6f38:	9301      	str	r3, [sp, #4]
   d6f3a:	bd08      	pop	{r3, pc}
   d6f3c:	00030260 	.word	0x00030260

000d6f40 <set_system_mode>:
#endif

DYNALIB_BEGIN(system)

DYNALIB_FN(0, system, system_mode, System_Mode_TypeDef(void))
DYNALIB_FN(1, system, set_system_mode, void(System_Mode_TypeDef))
   d6f40:	b508      	push	{r3, lr}
   d6f42:	4b02      	ldr	r3, [pc, #8]	; (d6f4c <set_system_mode+0xc>)
   d6f44:	681b      	ldr	r3, [r3, #0]
   d6f46:	685b      	ldr	r3, [r3, #4]
   d6f48:	9301      	str	r3, [sp, #4]
   d6f4a:	bd08      	pop	{r3, pc}
   d6f4c:	00030220 	.word	0x00030220

000d6f50 <system_delay_ms>:

DYNALIB_FN(2, system, set_ymodem_serial_flash_update_handler, void(ymodem_serial_flash_update_handler))
DYNALIB_FN(3, system, system_firmwareUpdate, bool(Stream*, void*))
DYNALIB_FN(4, system, system_fileTransfer, bool(system_file_transfer_t*, void*))

DYNALIB_FN(5, system, system_delay_ms, void(unsigned long, bool))
   d6f50:	b508      	push	{r3, lr}
   d6f52:	4b02      	ldr	r3, [pc, #8]	; (d6f5c <system_delay_ms+0xc>)
   d6f54:	681b      	ldr	r3, [r3, #0]
   d6f56:	695b      	ldr	r3, [r3, #20]
   d6f58:	9301      	str	r3, [sp, #4]
   d6f5a:	bd08      	pop	{r3, pc}
   d6f5c:	00030220 	.word	0x00030220

000d6f60 <system_thread_set_state>:
DYNALIB_FN(6, system, system_sleep, int(Spark_Sleep_TypeDef, long, uint32_t, void*))
DYNALIB_FN(7, system, system_sleep_pin, int(uint16_t, uint16_t, long, uint32_t, void*))
DYNALIB_FN(8, system, system_subscribe_event, int(system_event_t, system_event_handler_t*, void*))
DYNALIB_FN(9, system, system_unsubscribe_event, void(system_event_t, system_event_handler_t*, void*))
DYNALIB_FN(10, system, system_button_pushed_duration, uint16_t(uint8_t, void*))
DYNALIB_FN(11, system, system_thread_set_state, void(spark::feature::State, void*))
   d6f60:	b508      	push	{r3, lr}
   d6f62:	4b02      	ldr	r3, [pc, #8]	; (d6f6c <system_thread_set_state+0xc>)
   d6f64:	681b      	ldr	r3, [r3, #0]
   d6f66:	6adb      	ldr	r3, [r3, #44]	; 0x2c
   d6f68:	9301      	str	r3, [sp, #4]
   d6f6a:	bd08      	pop	{r3, pc}
   d6f6c:	00030220 	.word	0x00030220

000d6f70 <application_thread_current>:
DYNALIB_FN(15, system, system_get_flag, int(system_flag_t, uint8_t*, void*))
DYNALIB_FN(16, system, Spark_Prepare_For_Firmware_Update, int(FileTransfer::Descriptor&, uint32_t, void*))
DYNALIB_FN(17, system, Spark_Save_Firmware_Chunk, int(FileTransfer::Descriptor&, const uint8_t*, void*))
DYNALIB_FN(18, system, Spark_Finish_Firmware_Update, int(FileTransfer::Descriptor&, uint32_t, void*))

DYNALIB_FN(19, system, application_thread_current, uint8_t(void*))
   d6f70:	b508      	push	{r3, lr}
   d6f72:	4b02      	ldr	r3, [pc, #8]	; (d6f7c <application_thread_current+0xc>)
   d6f74:	681b      	ldr	r3, [r3, #0]
   d6f76:	6cdb      	ldr	r3, [r3, #76]	; 0x4c
   d6f78:	9301      	str	r3, [sp, #4]
   d6f7a:	bd08      	pop	{r3, pc}
   d6f7c:	00030220 	.word	0x00030220

000d6f80 <application_thread_invoke>:
DYNALIB_FN(20, system, system_thread_current, uint8_t(void*))
DYNALIB_FN(21, system, application_thread_invoke, uint8_t(void(*)(void*), void*, void*))
   d6f80:	b508      	push	{r3, lr}
   d6f82:	4b02      	ldr	r3, [pc, #8]	; (d6f8c <application_thread_invoke+0xc>)
   d6f84:	681b      	ldr	r3, [r3, #0]
   d6f86:	6d5b      	ldr	r3, [r3, #84]	; 0x54
   d6f88:	9301      	str	r3, [sp, #4]
   d6f8a:	bd08      	pop	{r3, pc}
   d6f8c:	00030220 	.word	0x00030220

000d6f90 <system_ctrl_set_app_request_handler>:
DYNALIB_FN(BASE_IDX + 6, system, led_pattern_period, uint16_t(int, int, void*))
DYNALIB_FN(BASE_IDX + 7, system, system_set_tester_handlers, int(system_tester_handlers_t*, void*))
DYNALIB_FN(BASE_IDX + 8, system, system_format_diag_data, int(const uint16_t*, size_t, unsigned, appender_fn, void*, void*))

// Control requests
DYNALIB_FN(BASE_IDX + 9, system, system_ctrl_set_app_request_handler, int(ctrl_request_handler_fn, void*))
   d6f90:	b508      	push	{r3, lr}
   d6f92:	4b03      	ldr	r3, [pc, #12]	; (d6fa0 <system_ctrl_set_app_request_handler+0x10>)
   d6f94:	681b      	ldr	r3, [r3, #0]
   d6f96:	f8d3 3088 	ldr.w	r3, [r3, #136]	; 0x88
   d6f9a:	9301      	str	r3, [sp, #4]
   d6f9c:	bd08      	pop	{r3, pc}
   d6f9e:	0000      	.short	0x0000
   d6fa0:	00030220 	.word	0x00030220

000d6fa4 <system_ctrl_set_result>:
DYNALIB_FN(BASE_IDX + 10, system, system_ctrl_alloc_reply_data, int(ctrl_request*, size_t, void*))
DYNALIB_FN(BASE_IDX + 11, system, system_ctrl_free_request_data, void(ctrl_request*, void*))
DYNALIB_FN(BASE_IDX + 12, system, system_ctrl_set_result, void(ctrl_request*, int, ctrl_completion_handler_fn, void*, void*))
   d6fa4:	b508      	push	{r3, lr}
   d6fa6:	4b03      	ldr	r3, [pc, #12]	; (d6fb4 <system_ctrl_set_result+0x10>)
   d6fa8:	681b      	ldr	r3, [r3, #0]
   d6faa:	f8d3 3094 	ldr.w	r3, [r3, #148]	; 0x94
   d6fae:	9301      	str	r3, [sp, #4]
   d6fb0:	bd08      	pop	{r3, pc}
   d6fb2:	0000      	.short	0x0000
   d6fb4:	00030220 	.word	0x00030220

000d6fb8 <system_sleep_ext>:
#define BASE_IDX1 (BASE_IDX + 18)
#else
#define BASE_IDX1 (BASE_IDX + 17)
#endif // HAL_PLATFORM_POWER_MANAGEMENT

DYNALIB_FN(BASE_IDX1 + 0, system, system_sleep_ext, int(const hal_sleep_config_t*, hal_wakeup_source_base_t**, void*))
   d6fb8:	b508      	push	{r3, lr}
   d6fba:	4b03      	ldr	r3, [pc, #12]	; (d6fc8 <system_sleep_ext+0x10>)
   d6fbc:	681b      	ldr	r3, [r3, #0]
   d6fbe:	f8d3 30ac 	ldr.w	r3, [r3, #172]	; 0xac
   d6fc2:	9301      	str	r3, [sp, #4]
   d6fc4:	bd08      	pop	{r3, pc}
   d6fc6:	0000      	.short	0x0000
   d6fc8:	00030220 	.word	0x00030220

000d6fcc <network_connect>:
#endif

DYNALIB_BEGIN(system_net)

DYNALIB_FN(0, system_net, network_config, const void*(network_handle_t, uint32_t, void*))
DYNALIB_FN(1, system_net, network_connect, void(network_handle_t, uint32_t, uint32_t, void*))
   d6fcc:	b508      	push	{r3, lr}
   d6fce:	4b02      	ldr	r3, [pc, #8]	; (d6fd8 <network_connect+0xc>)
   d6fd0:	681b      	ldr	r3, [r3, #0]
   d6fd2:	685b      	ldr	r3, [r3, #4]
   d6fd4:	9301      	str	r3, [sp, #4]
   d6fd6:	bd08      	pop	{r3, pc}
   d6fd8:	00030240 	.word	0x00030240

000d6fdc <network_connecting>:
DYNALIB_FN(2, system_net, network_connecting, bool(network_handle_t, uint32_t, void*))
   d6fdc:	b508      	push	{r3, lr}
   d6fde:	4b02      	ldr	r3, [pc, #8]	; (d6fe8 <network_connecting+0xc>)
   d6fe0:	681b      	ldr	r3, [r3, #0]
   d6fe2:	689b      	ldr	r3, [r3, #8]
   d6fe4:	9301      	str	r3, [sp, #4]
   d6fe6:	bd08      	pop	{r3, pc}
   d6fe8:	00030240 	.word	0x00030240

000d6fec <network_disconnect>:
DYNALIB_FN(3, system_net, network_disconnect, void(network_handle_t, uint32_t, void*))
   d6fec:	b508      	push	{r3, lr}
   d6fee:	4b02      	ldr	r3, [pc, #8]	; (d6ff8 <network_disconnect+0xc>)
   d6ff0:	681b      	ldr	r3, [r3, #0]
   d6ff2:	68db      	ldr	r3, [r3, #12]
   d6ff4:	9301      	str	r3, [sp, #4]
   d6ff6:	bd08      	pop	{r3, pc}
   d6ff8:	00030240 	.word	0x00030240

000d6ffc <network_ready>:
DYNALIB_FN(4, system_net, network_ready, bool(network_handle_t, uint32_t, void*))
   d6ffc:	b508      	push	{r3, lr}
   d6ffe:	4b02      	ldr	r3, [pc, #8]	; (d7008 <network_ready+0xc>)
   d7000:	681b      	ldr	r3, [r3, #0]
   d7002:	691b      	ldr	r3, [r3, #16]
   d7004:	9301      	str	r3, [sp, #4]
   d7006:	bd08      	pop	{r3, pc}
   d7008:	00030240 	.word	0x00030240

000d700c <network_on>:
DYNALIB_FN(5, system_net, network_on, void(network_handle_t, uint32_t, uint32_t, void*))
   d700c:	b508      	push	{r3, lr}
   d700e:	4b02      	ldr	r3, [pc, #8]	; (d7018 <network_on+0xc>)
   d7010:	681b      	ldr	r3, [r3, #0]
   d7012:	695b      	ldr	r3, [r3, #20]
   d7014:	9301      	str	r3, [sp, #4]
   d7016:	bd08      	pop	{r3, pc}
   d7018:	00030240 	.word	0x00030240

000d701c <network_off>:
DYNALIB_FN(6, system_net, network_off, void(network_handle_t, uint32_t, uint32_t, void*))
   d701c:	b508      	push	{r3, lr}
   d701e:	4b02      	ldr	r3, [pc, #8]	; (d7028 <network_off+0xc>)
   d7020:	681b      	ldr	r3, [r3, #0]
   d7022:	699b      	ldr	r3, [r3, #24]
   d7024:	9301      	str	r3, [sp, #4]
   d7026:	bd08      	pop	{r3, pc}
   d7028:	00030240 	.word	0x00030240

000d702c <network_listen>:
DYNALIB_FN(7, system_net, network_listen, void(network_handle_t, uint32_t, void*))
   d702c:	b508      	push	{r3, lr}
   d702e:	4b02      	ldr	r3, [pc, #8]	; (d7038 <network_listen+0xc>)
   d7030:	681b      	ldr	r3, [r3, #0]
   d7032:	69db      	ldr	r3, [r3, #28]
   d7034:	9301      	str	r3, [sp, #4]
   d7036:	bd08      	pop	{r3, pc}
   d7038:	00030240 	.word	0x00030240

000d703c <network_listening>:
DYNALIB_FN(8, system_net, network_listening, bool(network_handle_t, uint32_t, void*))
   d703c:	b508      	push	{r3, lr}
   d703e:	4b02      	ldr	r3, [pc, #8]	; (d7048 <network_listening+0xc>)
   d7040:	681b      	ldr	r3, [r3, #0]
   d7042:	6a1b      	ldr	r3, [r3, #32]
   d7044:	9301      	str	r3, [sp, #4]
   d7046:	bd08      	pop	{r3, pc}
   d7048:	00030240 	.word	0x00030240

000d704c <network_set_listen_timeout>:
DYNALIB_FN(9, system_net, network_has_credentials, bool(network_handle_t, uint32_t, void*))
DYNALIB_FN(10, system_net, network_set_credentials, int(network_handle_t, uint32_t, NetworkCredentials*, void*))
DYNALIB_FN(11, system_net, network_clear_credentials, bool(network_handle_t, uint32_t, NetworkCredentials*, void*))
DYNALIB_FN(12, system_net, network_set_listen_timeout, void(network_handle_t, uint16_t, void*))
   d704c:	b508      	push	{r3, lr}
   d704e:	4b02      	ldr	r3, [pc, #8]	; (d7058 <network_set_listen_timeout+0xc>)
   d7050:	681b      	ldr	r3, [r3, #0]
   d7052:	6b1b      	ldr	r3, [r3, #48]	; 0x30
   d7054:	9301      	str	r3, [sp, #4]
   d7056:	bd08      	pop	{r3, pc}
   d7058:	00030240 	.word	0x00030240

000d705c <network_get_listen_timeout>:
DYNALIB_FN(13, system_net, network_get_listen_timeout, uint16_t(network_handle_t, uint32_t, void*))
   d705c:	b508      	push	{r3, lr}
   d705e:	4b02      	ldr	r3, [pc, #8]	; (d7068 <network_get_listen_timeout+0xc>)
   d7060:	681b      	ldr	r3, [r3, #0]
   d7062:	6b5b      	ldr	r3, [r3, #52]	; 0x34
   d7064:	9301      	str	r3, [sp, #4]
   d7066:	bd08      	pop	{r3, pc}
   d7068:	00030240 	.word	0x00030240

000d706c <spark_variable>:
#endif


DYNALIB_BEGIN(system_cloud)

DYNALIB_FN(0, system_cloud, spark_variable, bool(const char*, const void*, Spark_Data_TypeDef, spark_variable_t*))
   d706c:	b508      	push	{r3, lr}
   d706e:	4b02      	ldr	r3, [pc, #8]	; (d7078 <spark_variable+0xc>)
   d7070:	681b      	ldr	r3, [r3, #0]
   d7072:	681b      	ldr	r3, [r3, #0]
   d7074:	9301      	str	r3, [sp, #4]
   d7076:	bd08      	pop	{r3, pc}
   d7078:	00030244 	.word	0x00030244

000d707c <spark_function>:
DYNALIB_FN(1, system_cloud, spark_function, bool(const char*, p_user_function_int_str_t, void*))
   d707c:	b508      	push	{r3, lr}
   d707e:	4b02      	ldr	r3, [pc, #8]	; (d7088 <spark_function+0xc>)
   d7080:	681b      	ldr	r3, [r3, #0]
   d7082:	685b      	ldr	r3, [r3, #4]
   d7084:	9301      	str	r3, [sp, #4]
   d7086:	bd08      	pop	{r3, pc}
   d7088:	00030244 	.word	0x00030244

000d708c <spark_cloud_flag_connected>:
DYNALIB_FN(2, system_cloud, spark_process, void(void))
DYNALIB_FN(3, system_cloud, spark_cloud_flag_connect, void(void))
DYNALIB_FN(4, system_cloud, spark_cloud_flag_disconnect, void(void))
DYNALIB_FN(5, system_cloud, spark_cloud_flag_connected, bool(void))
   d708c:	b508      	push	{r3, lr}
   d708e:	4b02      	ldr	r3, [pc, #8]	; (d7098 <spark_cloud_flag_connected+0xc>)
   d7090:	681b      	ldr	r3, [r3, #0]
   d7092:	695b      	ldr	r3, [r3, #20]
   d7094:	9301      	str	r3, [sp, #4]
   d7096:	bd08      	pop	{r3, pc}
   d7098:	00030244 	.word	0x00030244

000d709c <spark_send_event>:
DYNALIB_FN(6, system_cloud, system_cloud_protocol_instance, ProtocolFacade*(void))
DYNALIB_FN(7, system_cloud, spark_deviceID, String(void))
DYNALIB_FN(8, system_cloud, spark_send_event, bool(const char*, const char*, int, uint32_t, void*))
   d709c:	b508      	push	{r3, lr}
   d709e:	4b02      	ldr	r3, [pc, #8]	; (d70a8 <spark_send_event+0xc>)
   d70a0:	681b      	ldr	r3, [r3, #0]
   d70a2:	6a1b      	ldr	r3, [r3, #32]
   d70a4:	9301      	str	r3, [sp, #4]
   d70a6:	bd08      	pop	{r3, pc}
   d70a8:	00030244 	.word	0x00030244

000d70ac <spark_set_random_seed_from_cloud_handler>:
DYNALIB_FN(10, system_cloud, spark_unsubscribe, void(void*))
DYNALIB_FN(11, system_cloud, spark_sync_time, bool(void*))
DYNALIB_FN(12, system_cloud, spark_sync_time_pending, bool(void*))
DYNALIB_FN(13, system_cloud, spark_sync_time_last, system_tick_t(time32_t*, time_t*))
DYNALIB_FN(14, system_cloud, spark_set_connection_property, int(unsigned, unsigned, const void*, void*))
DYNALIB_FN(15, system_cloud, spark_set_random_seed_from_cloud_handler, int(void (*handler)(unsigned int), void*))
   d70ac:	b508      	push	{r3, lr}
   d70ae:	4b02      	ldr	r3, [pc, #8]	; (d70b8 <spark_set_random_seed_from_cloud_handler+0xc>)
   d70b0:	681b      	ldr	r3, [r3, #0]
   d70b2:	6bdb      	ldr	r3, [r3, #60]	; 0x3c
   d70b4:	9301      	str	r3, [sp, #4]
   d70b6:	bd08      	pop	{r3, pc}
   d70b8:	00030244 	.word	0x00030244

000d70bc <malloc>:
#include "hal_platform.h"
#endif // defined(DYNALIB_EXPORT) || (defined(DYNALIB_IMPORT) && !defined(RT_DYNALIB_NO_DEPENDENCY_BREAKING_IMPORTS))

DYNALIB_BEGIN(rt)

DYNALIB_FN(0, rt, malloc, void*(size_t))
   d70bc:	b508      	push	{r3, lr}
   d70be:	4b02      	ldr	r3, [pc, #8]	; (d70c8 <malloc+0xc>)
   d70c0:	681b      	ldr	r3, [r3, #0]
   d70c2:	681b      	ldr	r3, [r3, #0]
   d70c4:	9301      	str	r3, [sp, #4]
   d70c6:	bd08      	pop	{r3, pc}
   d70c8:	0003021c 	.word	0x0003021c

000d70cc <free>:
DYNALIB_FN(1, rt, free, void(void*))
   d70cc:	b508      	push	{r3, lr}
   d70ce:	4b02      	ldr	r3, [pc, #8]	; (d70d8 <free+0xc>)
   d70d0:	681b      	ldr	r3, [r3, #0]
   d70d2:	685b      	ldr	r3, [r3, #4]
   d70d4:	9301      	str	r3, [sp, #4]
   d70d6:	bd08      	pop	{r3, pc}
   d70d8:	0003021c 	.word	0x0003021c

000d70dc <realloc>:
DYNALIB_FN(2, rt, realloc, void*(void*, size_t))
   d70dc:	b508      	push	{r3, lr}
   d70de:	4b02      	ldr	r3, [pc, #8]	; (d70e8 <realloc+0xc>)
   d70e0:	681b      	ldr	r3, [r3, #0]
   d70e2:	689b      	ldr	r3, [r3, #8]
   d70e4:	9301      	str	r3, [sp, #4]
   d70e6:	bd08      	pop	{r3, pc}
   d70e8:	0003021c 	.word	0x0003021c

000d70ec <abort>:
DYNALIB_FN(6, rt, siscanf, int(const char*, const char*, ...))
DYNALIB_FN(7, rt, snprintf, int(char*, size_t, const char*, ...))
DYNALIB_FN(8, rt, sniprintf, int(char*, size_t, const char*, ...))
DYNALIB_FN(9, rt, vsnprintf, int(char*, size_t, const char*, va_list))
DYNALIB_FN(10, rt, vsniprintf, int(char*, size_t, const char*, va_list))
DYNALIB_FN(11, rt, abort, void(void))
   d70ec:	b508      	push	{r3, lr}
   d70ee:	4b02      	ldr	r3, [pc, #8]	; (d70f8 <abort+0xc>)
   d70f0:	681b      	ldr	r3, [r3, #0]
   d70f2:	6adb      	ldr	r3, [r3, #44]	; 0x2c
   d70f4:	9301      	str	r3, [sp, #4]
   d70f6:	bd08      	pop	{r3, pc}
   d70f8:	0003021c 	.word	0x0003021c

000d70fc <_malloc_r>:
DYNALIB_FN(12, rt, _malloc_r, void*(struct _reent*, size_t))
   d70fc:	b508      	push	{r3, lr}
   d70fe:	4b02      	ldr	r3, [pc, #8]	; (d7108 <_malloc_r+0xc>)
   d7100:	681b      	ldr	r3, [r3, #0]
   d7102:	6b1b      	ldr	r3, [r3, #48]	; 0x30
   d7104:	9301      	str	r3, [sp, #4]
   d7106:	bd08      	pop	{r3, pc}
   d7108:	0003021c 	.word	0x0003021c

000d710c <newlib_impure_ptr_callback>:
// RT is currently being imported into system-part1 from system-part2,
// which is the reverse direction.

#if defined(DYNALIB_EXPORT) || (defined(DYNALIB_IMPORT) && !defined(RT_DYNALIB_NO_DEPENDENCY_BREAKING_IMPORTS))
DYNALIB_FN(16, rt, __assert_func, void(const char*, int, const char*, const char*))
DYNALIB_FN(17, rt, newlib_impure_ptr_callback, void(void (*)(struct _reent*, size_t, uint32_t, void*), void*))
   d710c:	b508      	push	{r3, lr}
   d710e:	4b02      	ldr	r3, [pc, #8]	; (d7118 <newlib_impure_ptr_callback+0xc>)
   d7110:	681b      	ldr	r3, [r3, #0]
   d7112:	6c5b      	ldr	r3, [r3, #68]	; 0x44
   d7114:	9301      	str	r3, [sp, #4]
   d7116:	bd08      	pop	{r3, pc}
   d7118:	0003021c 	.word	0x0003021c

000d711c <_ZN4PMIC4lockEv.constprop.0>:
    pmicWireInstance()->write(address);
    pmicWireInstance()->write(DATA);
    pmicWireInstance()->endTransmission(true);
}

bool PMIC::lock() {
   d711c:	b508      	push	{r3, lr}
            return &Wire1;
   d711e:	f001 fc87 	bl	d8a30 <_Z20__fetch_global_Wire1v>
    return pmicWireInstance()->lock();
}
   d7122:	e8bd 4008 	ldmia.w	sp!, {r3, lr}
    return pmicWireInstance()->lock();
   d7126:	f001 baf6 	b.w	d8716 <_ZN7TwoWire4lockEv>

000d712a <_ZN4PMICC1Eb>:
PMIC::PMIC(bool _lock) :
   d712a:	b510      	push	{r4, lr}
   d712c:	4604      	mov	r4, r0
    lock_(_lock)
   d712e:	7001      	strb	r1, [r0, #0]
    if (lock_) {
   d7130:	b109      	cbz	r1, d7136 <_ZN4PMICC1Eb+0xc>
        lock();
   d7132:	f7ff fff3 	bl	d711c <_ZN4PMIC4lockEv.constprop.0>
}
   d7136:	4620      	mov	r0, r4
   d7138:	bd10      	pop	{r4, pc}

000d713a <_ZN4PMIC6unlockEv>:

bool PMIC::unlock() {
   d713a:	b508      	push	{r3, lr}
            return &Wire1;
   d713c:	f001 fc78 	bl	d8a30 <_Z20__fetch_global_Wire1v>
    return pmicWireInstance()->unlock();
}
   d7140:	e8bd 4008 	ldmia.w	sp!, {r3, lr}
    return pmicWireInstance()->unlock();
   d7144:	f001 baf0 	b.w	d8728 <_ZN7TwoWire6unlockEv>

000d7148 <_ZN4PMICD1Ev>:
PMIC::~PMIC()
   d7148:	b510      	push	{r4, lr}
    if (lock_) {
   d714a:	7803      	ldrb	r3, [r0, #0]
PMIC::~PMIC()
   d714c:	4604      	mov	r4, r0
    if (lock_) {
   d714e:	b10b      	cbz	r3, d7154 <_ZN4PMICD1Ev+0xc>
        unlock();
   d7150:	f7ff fff3 	bl	d713a <_ZN4PMIC6unlockEv>
}
   d7154:	4620      	mov	r0, r4
   d7156:	bd10      	pop	{r4, pc}

000d7158 <_ZNSt10lock_guardI4PMICED1Ev>:
      { _M_device.lock(); }

      lock_guard(mutex_type& __m, adopt_lock_t) noexcept : _M_device(__m)
      { } // calling thread owns mutex

      ~lock_guard()
   d7158:	b510      	push	{r4, lr}
   d715a:	4604      	mov	r4, r0
      { _M_device.unlock(); }
   d715c:	6800      	ldr	r0, [r0, #0]
   d715e:	f7ff ffec 	bl	d713a <_ZN4PMIC6unlockEv>
   d7162:	4620      	mov	r0, r4
   d7164:	bd10      	pop	{r4, pc}

000d7166 <_ZN4PMIC12readRegisterEh>:
byte PMIC::readRegister(byte startAddress) {
   d7166:	b530      	push	{r4, r5, lr}
   d7168:	b087      	sub	sp, #28
   d716a:	460d      	mov	r5, r1
      explicit lock_guard(mutex_type& __m) : _M_device(__m)
   d716c:	9001      	str	r0, [sp, #4]
      { _M_device.lock(); }
   d716e:	f7ff ffd5 	bl	d711c <_ZN4PMIC4lockEv.constprop.0>
public:
  WireTransmission(uint8_t address)
      : address_{address},
        size_{0},
        stop_{true},
        timeout_{HAL_I2C_DEFAULT_TIMEOUT_MS} {
   d7172:	236b      	movs	r3, #107	; 0x6b
   d7174:	f88d 3008 	strb.w	r3, [sp, #8]
   d7178:	2300      	movs	r3, #0
   d717a:	2401      	movs	r4, #1
   d717c:	9303      	str	r3, [sp, #12]
    size_ = size;
    return *this;
  }

  WireTransmission& timeout(system_tick_t ms) {
    timeout_ = ms;
   d717e:	230a      	movs	r3, #10
   d7180:	9305      	str	r3, [sp, #20]
        timeout_{HAL_I2C_DEFAULT_TIMEOUT_MS} {
   d7182:	f88d 4010 	strb.w	r4, [sp, #16]
            return &Wire1;
   d7186:	f001 fc53 	bl	d8a30 <_Z20__fetch_global_Wire1v>
    pmicWireInstance()->beginTransmission(config);
   d718a:	a902      	add	r1, sp, #8
   d718c:	f001 faa4 	bl	d86d8 <_ZN7TwoWire17beginTransmissionERK16WireTransmission>
            return &Wire1;
   d7190:	f001 fc4e 	bl	d8a30 <_Z20__fetch_global_Wire1v>
    pmicWireInstance()->write(startAddress);
   d7194:	6803      	ldr	r3, [r0, #0]
   d7196:	4629      	mov	r1, r5
   d7198:	689b      	ldr	r3, [r3, #8]
   d719a:	4798      	blx	r3
            return &Wire1;
   d719c:	f001 fc48 	bl	d8a30 <_Z20__fetch_global_Wire1v>
    pmicWireInstance()->endTransmission(true);
   d71a0:	4621      	mov	r1, r4
   d71a2:	f001 fab1 	bl	d8708 <_ZN7TwoWire15endTransmissionEh>
    size_ = size;
   d71a6:	9403      	str	r4, [sp, #12]
            return &Wire1;
   d71a8:	f001 fc42 	bl	d8a30 <_Z20__fetch_global_Wire1v>
    pmicWireInstance()->requestFrom(config);
   d71ac:	a902      	add	r1, sp, #8
   d71ae:	f001 fa63 	bl	d8678 <_ZN7TwoWire11requestFromERK16WireTransmission>
            return &Wire1;
   d71b2:	f001 fc3d 	bl	d8a30 <_Z20__fetch_global_Wire1v>
    DATA = pmicWireInstance()->read();
   d71b6:	6803      	ldr	r3, [r0, #0]
   d71b8:	695b      	ldr	r3, [r3, #20]
   d71ba:	4798      	blx	r3
   d71bc:	4604      	mov	r4, r0
    std::lock_guard<PMIC> l(*this);
   d71be:	a801      	add	r0, sp, #4
   d71c0:	f7ff ffca 	bl	d7158 <_ZNSt10lock_guardI4PMICED1Ev>
}
   d71c4:	b2e0      	uxtb	r0, r4
   d71c6:	b007      	add	sp, #28
   d71c8:	bd30      	pop	{r4, r5, pc}

000d71ca <_ZN4PMIC13writeRegisterEhh>:
void PMIC::writeRegister(byte address, byte DATA) {
   d71ca:	b570      	push	{r4, r5, r6, lr}
   d71cc:	b086      	sub	sp, #24
   d71ce:	4614      	mov	r4, r2
   d71d0:	460d      	mov	r5, r1
      explicit lock_guard(mutex_type& __m) : _M_device(__m)
   d71d2:	9001      	str	r0, [sp, #4]
      { _M_device.lock(); }
   d71d4:	f7ff ffa2 	bl	d711c <_ZN4PMIC4lockEv.constprop.0>
        timeout_{HAL_I2C_DEFAULT_TIMEOUT_MS} {
   d71d8:	236b      	movs	r3, #107	; 0x6b
   d71da:	f88d 3008 	strb.w	r3, [sp, #8]
   d71de:	2300      	movs	r3, #0
   d71e0:	9303      	str	r3, [sp, #12]
   d71e2:	2601      	movs	r6, #1
    timeout_ = ms;
   d71e4:	230a      	movs	r3, #10
   d71e6:	9305      	str	r3, [sp, #20]
        timeout_{HAL_I2C_DEFAULT_TIMEOUT_MS} {
   d71e8:	f88d 6010 	strb.w	r6, [sp, #16]
            return &Wire1;
   d71ec:	f001 fc20 	bl	d8a30 <_Z20__fetch_global_Wire1v>
    pmicWireInstance()->beginTransmission(config);
   d71f0:	a902      	add	r1, sp, #8
   d71f2:	f001 fa71 	bl	d86d8 <_ZN7TwoWire17beginTransmissionERK16WireTransmission>
            return &Wire1;
   d71f6:	f001 fc1b 	bl	d8a30 <_Z20__fetch_global_Wire1v>
    pmicWireInstance()->write(address);
   d71fa:	6803      	ldr	r3, [r0, #0]
   d71fc:	4629      	mov	r1, r5
   d71fe:	689b      	ldr	r3, [r3, #8]
   d7200:	4798      	blx	r3
            return &Wire1;
   d7202:	f001 fc15 	bl	d8a30 <_Z20__fetch_global_Wire1v>
    pmicWireInstance()->write(DATA);
   d7206:	6803      	ldr	r3, [r0, #0]
   d7208:	4621      	mov	r1, r4
   d720a:	689b      	ldr	r3, [r3, #8]
   d720c:	4798      	blx	r3
            return &Wire1;
   d720e:	f001 fc0f 	bl	d8a30 <_Z20__fetch_global_Wire1v>
    pmicWireInstance()->endTransmission(true);
   d7212:	4631      	mov	r1, r6
   d7214:	f001 fa78 	bl	d8708 <_ZN7TwoWire15endTransmissionEh>
    std::lock_guard<PMIC> l(*this);
   d7218:	a801      	add	r0, sp, #4
   d721a:	f7ff ff9d 	bl	d7158 <_ZNSt10lock_guardI4PMICED1Ev>
}
   d721e:	b006      	add	sp, #24
   d7220:	bd70      	pop	{r4, r5, r6, pc}

000d7222 <_ZN4PMIC15disableChargingEv>:
bool PMIC::disableCharging() {
   d7222:	b513      	push	{r0, r1, r4, lr}
   d7224:	4604      	mov	r4, r0
      explicit lock_guard(mutex_type& __m) : _M_device(__m)
   d7226:	9001      	str	r0, [sp, #4]
      { _M_device.lock(); }
   d7228:	f7ff ff78 	bl	d711c <_ZN4PMIC4lockEv.constprop.0>
    byte DATA = readRegister(POWERON_CONFIG_REGISTER);
   d722c:	2101      	movs	r1, #1
   d722e:	4620      	mov	r0, r4
   d7230:	f7ff ff99 	bl	d7166 <_ZN4PMIC12readRegisterEh>
    writeRegister(POWERON_CONFIG_REGISTER, (DATA & 0b11001111));
   d7234:	2101      	movs	r1, #1
   d7236:	f000 02cf 	and.w	r2, r0, #207	; 0xcf
   d723a:	4620      	mov	r0, r4
   d723c:	f7ff ffc5 	bl	d71ca <_ZN4PMIC13writeRegisterEhh>
    std::lock_guard<PMIC> l(*this);
   d7240:	a801      	add	r0, sp, #4
   d7242:	f7ff ff89 	bl	d7158 <_ZNSt10lock_guardI4PMICED1Ev>
}
   d7246:	2001      	movs	r0, #1
   d7248:	b002      	add	sp, #8
   d724a:	bd10      	pop	{r4, pc}

000d724c <_ZN5spark13EthernetClass9listeningEv>:
    uint16_t getListenTimeout(void) {
        return network_get_listen_timeout(*this, 0, NULL);
    }

    bool listening(void) {
        return network_listening(*this, 0, NULL);
   d724c:	2200      	movs	r2, #0
   d724e:	6840      	ldr	r0, [r0, #4]
   d7250:	4611      	mov	r1, r2
   d7252:	f7ff bef3 	b.w	d703c <network_listening>

000d7256 <_ZN5spark13EthernetClass16getListenTimeoutEv>:
        return network_get_listen_timeout(*this, 0, NULL);
   d7256:	2200      	movs	r2, #0
   d7258:	6840      	ldr	r0, [r0, #4]
   d725a:	4611      	mov	r1, r2
   d725c:	f7ff befe 	b.w	d705c <network_get_listen_timeout>

000d7260 <_ZN5spark13EthernetClass16setListenTimeoutEt>:
        network_set_listen_timeout(*this, timeout, NULL);
   d7260:	6840      	ldr	r0, [r0, #4]
   d7262:	2200      	movs	r2, #0
   d7264:	f7ff bef2 	b.w	d704c <network_set_listen_timeout>

000d7268 <_ZN5spark13EthernetClass6listenEb>:
        network_listen(*this, begin ? 0 : 1, NULL);
   d7268:	6840      	ldr	r0, [r0, #4]
   d726a:	2200      	movs	r2, #0
   d726c:	f081 0101 	eor.w	r1, r1, #1
   d7270:	f7ff bedc 	b.w	d702c <network_listen>

000d7274 <_ZN5spark13EthernetClass3offEv>:
        network_off(*this, 0, 0, NULL);
   d7274:	2300      	movs	r3, #0
   d7276:	6840      	ldr	r0, [r0, #4]
   d7278:	461a      	mov	r2, r3
   d727a:	4619      	mov	r1, r3
   d727c:	f7ff bece 	b.w	d701c <network_off>

000d7280 <_ZN5spark13EthernetClass2onEv>:
        network_on(*this, 0, 0, NULL);
   d7280:	2300      	movs	r3, #0
   d7282:	6840      	ldr	r0, [r0, #4]
   d7284:	461a      	mov	r2, r3
   d7286:	4619      	mov	r1, r3
   d7288:	f7ff bec0 	b.w	d700c <network_on>

000d728c <_ZN5spark13EthernetClass5readyEv>:
    }

    bool ready() {
        return network_ready(*this, 0,  NULL);
   d728c:	2200      	movs	r2, #0
   d728e:	6840      	ldr	r0, [r0, #4]
   d7290:	4611      	mov	r1, r2
   d7292:	f7ff beb3 	b.w	d6ffc <network_ready>

000d7296 <_ZN5spark13EthernetClass10connectingEv>:
        return network_connecting(*this, 0, NULL);
   d7296:	2200      	movs	r2, #0
   d7298:	6840      	ldr	r0, [r0, #4]
   d729a:	4611      	mov	r1, r2
   d729c:	f7ff be9e 	b.w	d6fdc <network_connecting>

000d72a0 <_ZN5spark13EthernetClass10disconnectEv>:
        network_disconnect(*this, NETWORK_DISCONNECT_REASON_USER, NULL);
   d72a0:	6840      	ldr	r0, [r0, #4]
   d72a2:	2200      	movs	r2, #0
   d72a4:	2102      	movs	r1, #2
   d72a6:	f7ff bea1 	b.w	d6fec <network_disconnect>

000d72aa <_ZN5spark13EthernetClass7connectEj>:
        network_connect(*this, flags, 0, NULL);
   d72aa:	2300      	movs	r3, #0
   d72ac:	6840      	ldr	r0, [r0, #4]
   d72ae:	461a      	mov	r2, r3
   d72b0:	f7ff be8c 	b.w	d6fcc <network_connect>

000d72b4 <_GLOBAL__sub_I__ZN5spark8EthernetE>:
    static NetworkClass& from(network_interface_t nif);

    virtual IPAddress resolve(const char* name);

    explicit NetworkClass(network_interface_t iface)
            : iface_(iface) {
   d72b4:	4b02      	ldr	r3, [pc, #8]	; (d72c0 <_GLOBAL__sub_I__ZN5spark8EthernetE+0xc>)
   d72b6:	2203      	movs	r2, #3
   d72b8:	605a      	str	r2, [r3, #4]
            NetworkClass(NETWORK_INTERFACE_ETHERNET) {
   d72ba:	4a02      	ldr	r2, [pc, #8]	; (d72c4 <_GLOBAL__sub_I__ZN5spark8EthernetE+0x10>)
   d72bc:	601a      	str	r2, [r3, #0]

namespace spark {

EthernetClass Ethernet;

} // spark
   d72be:	4770      	bx	lr
   d72c0:	2003e704 	.word	0x2003e704
   d72c4:	000da524 	.word	0x000da524

000d72c8 <_ZN8SPIClassC1E19hal_spi_interface_t>:
    }
    return particle::SPISettings(info->clock, info->bit_order, info->data_mode);
}
} // namespace

SPIClass::SPIClass(hal_spi_interface_t spi)
   d72c8:	b510      	push	{r4, lr}
   d72ca:	4604      	mov	r4, r0
   d72cc:	4608      	mov	r0, r1
{
    _spi = spi;
   d72ce:	7021      	strb	r1, [r4, #0]
    hal_spi_init(_spi);
   d72d0:	f7ff fde6 	bl	d6ea0 <hal_spi_init>
    _dividerReference = SPI_CLK_SYSTEM; // 0 indicates the system clock
   d72d4:	2300      	movs	r3, #0
   d72d6:	6063      	str	r3, [r4, #4]
}
   d72d8:	4620      	mov	r0, r4
   d72da:	bd10      	pop	{r4, pc}

000d72dc <_ZN17SystemSleepResult22freeWakeupSourceMemoryEv.isra.0>:
    operator SleepResult() {
        return toSleepResult();
    }

private:
    void freeWakeupSourceMemory() {
   d72dc:	b510      	push	{r4, lr}
   d72de:	4604      	mov	r4, r0
        if (wakeupSource_) {
   d72e0:	6800      	ldr	r0, [r0, #0]
   d72e2:	b118      	cbz	r0, d72ec <_ZN17SystemSleepResult22freeWakeupSourceMemoryEv.isra.0+0x10>
            free(wakeupSource_);
   d72e4:	f7ff fef2 	bl	d70cc <free>
            wakeupSource_ = nullptr;
   d72e8:	2300      	movs	r3, #0
   d72ea:	6023      	str	r3, [r4, #0]
        }
    }
   d72ec:	bd10      	pop	{r4, pc}

000d72ee <_ZN11SystemClassD1Ev>:
    system_error_t error_;
    SleepResult compatResult_;
};


class SystemClass {
   d72ee:	b510      	push	{r4, lr}
   d72f0:	4604      	mov	r4, r0
        freeWakeupSourceMemory();
   d72f2:	f7ff fff3 	bl	d72dc <_ZN17SystemSleepResult22freeWakeupSourceMemoryEv.isra.0>
class SystemClass {
   d72f6:	4620      	mov	r0, r4
   d72f8:	bd10      	pop	{r4, pc}

000d72fa <_ZN17SystemSleepResultaSEOS_>:
    SystemSleepResult& operator=(SystemSleepResult&& result) {
   d72fa:	b538      	push	{r3, r4, r5, lr}
        error_ = result.error_;
   d72fc:	f9b1 3004 	ldrsh.w	r3, [r1, #4]
   d7300:	8083      	strh	r3, [r0, #4]
        compatResult_ = result.compatResult_;
   d7302:	460b      	mov	r3, r1
    SystemSleepResult& operator=(SystemSleepResult&& result) {
   d7304:	460d      	mov	r5, r1
        compatResult_ = result.compatResult_;
   d7306:	f853 2f06 	ldr.w	r2, [r3, #6]!
   d730a:	f8c0 2006 	str.w	r2, [r0, #6]
   d730e:	889b      	ldrh	r3, [r3, #4]
   d7310:	8143      	strh	r3, [r0, #10]
    SystemSleepResult& operator=(SystemSleepResult&& result) {
   d7312:	4604      	mov	r4, r0
        freeWakeupSourceMemory();
   d7314:	f7ff ffe2 	bl	d72dc <_ZN17SystemSleepResult22freeWakeupSourceMemoryEv.isra.0>
        if (result.wakeupSource_) {
   d7318:	682b      	ldr	r3, [r5, #0]
   d731a:	b113      	cbz	r3, d7322 <_ZN17SystemSleepResultaSEOS_+0x28>
            wakeupSource_ = result.wakeupSource_;
   d731c:	6023      	str	r3, [r4, #0]
            result.wakeupSource_ = nullptr;
   d731e:	2300      	movs	r3, #0
   d7320:	602b      	str	r3, [r5, #0]
    }
   d7322:	4620      	mov	r0, r4
   d7324:	bd38      	pop	{r3, r4, r5, pc}
	...

000d7328 <_ZN17SystemSleepResult16copyWakeupSourceEP24hal_wakeup_source_base_t>:
    int copyWakeupSource(hal_wakeup_source_base_t* source) {
   d7328:	b538      	push	{r3, r4, r5, lr}
   d732a:	460c      	mov	r4, r1
   d732c:	4605      	mov	r5, r0
        freeWakeupSourceMemory();
   d732e:	f7ff ffd5 	bl	d72dc <_ZN17SystemSleepResult22freeWakeupSourceMemoryEv.isra.0>
        if (source) {
   d7332:	b144      	cbz	r4, d7346 <_ZN17SystemSleepResult16copyWakeupSourceEP24hal_wakeup_source_base_t+0x1e>
            wakeupSource_ = (hal_wakeup_source_base_t*)malloc(source->size);
   d7334:	8820      	ldrh	r0, [r4, #0]
   d7336:	f7ff fec1 	bl	d70bc <malloc>
   d733a:	6028      	str	r0, [r5, #0]
            if (wakeupSource_) {
   d733c:	b128      	cbz	r0, d734a <_ZN17SystemSleepResult16copyWakeupSourceEP24hal_wakeup_source_base_t+0x22>
                memcpy(wakeupSource_, source, source->size);
   d733e:	8822      	ldrh	r2, [r4, #0]
   d7340:	4621      	mov	r1, r4
   d7342:	f002 fa07 	bl	d9754 <memcpy>
        return SYSTEM_ERROR_NONE;
   d7346:	2000      	movs	r0, #0
    }
   d7348:	bd38      	pop	{r3, r4, r5, pc}
                return SYSTEM_ERROR_NO_MEMORY;
   d734a:	4801      	ldr	r0, [pc, #4]	; (d7350 <_ZN17SystemSleepResult16copyWakeupSourceEP24hal_wakeup_source_base_t+0x28>)
   d734c:	e7fc      	b.n	d7348 <_ZN17SystemSleepResult16copyWakeupSourceEP24hal_wakeup_source_base_t+0x20>
   d734e:	bf00      	nop
   d7350:	fffffefc 	.word	0xfffffefc

000d7354 <_ZN11SystemClass5sleepERKN8particle24SystemSleepConfigurationE>:
void SystemClass::enterSafeMode(SystemResetFlags flags)
{
    system_reset(SYSTEM_RESET_MODE_SAFE, 0, 0, flags.value(), nullptr);
}

SystemSleepResult SystemClass::sleep(const particle::SystemSleepConfiguration& config) {
   d7354:	b5f0      	push	{r4, r5, r6, r7, lr}
   d7356:	4d2d      	ldr	r5, [pc, #180]	; (d740c <_ZN11SystemClass5sleepERKN8particle24SystemSleepConfigurationE+0xb8>)
    }

    // It doesn't guarantee the combination of sleep mode and
    // wakeup sources that the platform supports.
    bool valid() const {
        if (!valid_) {
   d7358:	7d0b      	ldrb	r3, [r1, #20]
   d735a:	4604      	mov	r4, r0
   d735c:	b08b      	sub	sp, #44	; 0x2c
   d735e:	4608      	mov	r0, r1
   d7360:	1daf      	adds	r7, r5, #6
   d7362:	2b00      	cmp	r3, #0
   d7364:	d038      	beq.n	d73d8 <_ZN11SystemClass5sleepERKN8particle24SystemSleepConfigurationE+0x84>
        return static_cast<SystemSleepMode>(config_->mode);
   d7366:	680b      	ldr	r3, [r1, #0]
            return valid_;
        }
        if (sleepMode() == SystemSleepMode::NONE) {
   d7368:	791b      	ldrb	r3, [r3, #4]
   d736a:	2b00      	cmp	r3, #0
   d736c:	d034      	beq.n	d73d8 <_ZN11SystemClass5sleepERKN8particle24SystemSleepConfigurationE+0x84>
              error_(SYSTEM_ERROR_NONE) {
   d736e:	2200      	movs	r2, #0
    SleepResult() {}
   d7370:	4b27      	ldr	r3, [pc, #156]	; (d7410 <_ZN11SystemClass5sleepERKN8particle24SystemSleepConfigurationE+0xbc>)
   d7372:	9304      	str	r3, [sp, #16]
    if (!config.valid()) {
        LOG(ERROR, "System sleep configuration is invalid.");
        System.systemSleepResult_ = SystemSleepResult(SYSTEM_ERROR_INVALID_ARGUMENT);
    } else {
        SystemSleepResult result;
        int ret = system_sleep_ext(config.halConfig(), result.halWakeupSource(), nullptr);
   d7374:	a902      	add	r1, sp, #8
   d7376:	3004      	adds	r0, #4
              error_(SYSTEM_ERROR_NONE) {
   d7378:	9202      	str	r2, [sp, #8]
   d737a:	f8ad 200c 	strh.w	r2, [sp, #12]
    SleepResult() {}
   d737e:	f88d 200e 	strb.w	r2, [sp, #14]
   d7382:	f7ff fe19 	bl	d6fb8 <system_sleep_ext>
        compatResult_ = result.compatResult_;
   d7386:	f8dd 300e 	ldr.w	r3, [sp, #14]
   d738a:	f8c5 3006 	str.w	r3, [r5, #6]
        result.setError(static_cast<system_error_t>(ret));
   d738e:	b200      	sxth	r0, r0
   d7390:	f8bd 3012 	ldrh.w	r3, [sp, #18]
        error_ = error;
   d7394:	f8ad 000c 	strh.w	r0, [sp, #12]
        error_ = result.error_;
   d7398:	80a8      	strh	r0, [r5, #4]
        copyWakeupSource(result.wakeupSource_);
   d739a:	9902      	ldr	r1, [sp, #8]
        compatResult_ = result.compatResult_;
   d739c:	80bb      	strh	r3, [r7, #4]
        copyWakeupSource(result.wakeupSource_);
   d739e:	4628      	mov	r0, r5
   d73a0:	f7ff ffc2 	bl	d7328 <_ZN17SystemSleepResult16copyWakeupSourceEP24hal_wakeup_source_base_t>
        freeWakeupSourceMemory();
   d73a4:	a802      	add	r0, sp, #8
   d73a6:	f7ff ff99 	bl	d72dc <_ZN17SystemSleepResult22freeWakeupSourceMemoryEv.isra.0>
              error_(SYSTEM_ERROR_NONE) {
   d73aa:	2300      	movs	r3, #0
   d73ac:	6023      	str	r3, [r4, #0]
   d73ae:	80a3      	strh	r3, [r4, #4]
    SleepResult() {}
   d73b0:	71a3      	strb	r3, [r4, #6]
   d73b2:	8123      	strh	r3, [r4, #8]
   d73b4:	f64f 73ff 	movw	r3, #65535	; 0xffff
   d73b8:	8163      	strh	r3, [r4, #10]
        error_ = result.error_;
   d73ba:	f9b5 3004 	ldrsh.w	r3, [r5, #4]
   d73be:	80a3      	strh	r3, [r4, #4]
        compatResult_ = result.compatResult_;
   d73c0:	683b      	ldr	r3, [r7, #0]
   d73c2:	f8c4 3006 	str.w	r3, [r4, #6]
   d73c6:	88bb      	ldrh	r3, [r7, #4]
        copyWakeupSource(result.wakeupSource_);
   d73c8:	6829      	ldr	r1, [r5, #0]
        compatResult_ = result.compatResult_;
   d73ca:	8163      	strh	r3, [r4, #10]
        copyWakeupSource(result.wakeupSource_);
   d73cc:	4620      	mov	r0, r4
   d73ce:	f7ff ffab 	bl	d7328 <_ZN17SystemSleepResult16copyWakeupSourceEP24hal_wakeup_source_base_t>
        System.systemSleepResult_ = result;
    }
    return System.systemSleepResult_;
}
   d73d2:	4620      	mov	r0, r4
   d73d4:	b00b      	add	sp, #44	; 0x2c
   d73d6:	bdf0      	pop	{r4, r5, r6, r7, pc}
        LOG(ERROR, "System sleep configuration is invalid.");
   d73d8:	2600      	movs	r6, #0
   d73da:	2320      	movs	r3, #32
   d73dc:	e9cd 3602 	strd	r3, r6, [sp, #8]
   d73e0:	4b0c      	ldr	r3, [pc, #48]	; (d7414 <_ZN11SystemClass5sleepERKN8particle24SystemSleepConfigurationE+0xc0>)
   d73e2:	9300      	str	r3, [sp, #0]
   d73e4:	490c      	ldr	r1, [pc, #48]	; (d7418 <_ZN11SystemClass5sleepERKN8particle24SystemSleepConfigurationE+0xc4>)
   d73e6:	4633      	mov	r3, r6
   d73e8:	aa02      	add	r2, sp, #8
   d73ea:	2032      	movs	r0, #50	; 0x32
   d73ec:	f7ff fda0 	bl	d6f30 <log_message>
    SleepResult() {}
   d73f0:	4b07      	ldr	r3, [pc, #28]	; (d7410 <_ZN11SystemClass5sleepERKN8particle24SystemSleepConfigurationE+0xbc>)
   d73f2:	9304      	str	r3, [sp, #16]
        System.systemSleepResult_ = SystemSleepResult(SYSTEM_ERROR_INVALID_ARGUMENT);
   d73f4:	a902      	add	r1, sp, #8
        error_ = error;
   d73f6:	f64f 63f2 	movw	r3, #65266	; 0xfef2
   d73fa:	4804      	ldr	r0, [pc, #16]	; (d740c <_ZN11SystemClass5sleepERKN8particle24SystemSleepConfigurationE+0xb8>)
              error_(SYSTEM_ERROR_NONE) {
   d73fc:	9602      	str	r6, [sp, #8]
    SleepResult() {}
   d73fe:	f88d 600e 	strb.w	r6, [sp, #14]
        error_ = error;
   d7402:	f8ad 300c 	strh.w	r3, [sp, #12]
   d7406:	f7ff ff78 	bl	d72fa <_ZN17SystemSleepResultaSEOS_>
   d740a:	e7cb      	b.n	d73a4 <_ZN11SystemClass5sleepERKN8particle24SystemSleepConfigurationE+0x50>
   d740c:	2003e70c 	.word	0x2003e70c
   d7410:	ffff0000 	.word	0xffff0000
   d7414:	000da557 	.word	0x000da557
   d7418:	000da550 	.word	0x000da550

000d741c <_GLOBAL__sub_I_System>:
    return wokenUpByRtc();
}

system_error_t SleepResult::error() const {
    return err_;
   d741c:	b510      	push	{r4, lr}
} // namespace particle

// particle::Flag<TagT, ValueT>
template<typename TagT, typename ValueT>
inline particle::Flag<TagT, ValueT>::Flag(ValueT val) :
        val_(val) {
   d741e:	4b09      	ldr	r3, [pc, #36]	; (d7444 <_GLOBAL__sub_I_System+0x28>)
              error_(SYSTEM_ERROR_NONE) {
   d7420:	4c09      	ldr	r4, [pc, #36]	; (d7448 <_GLOBAL__sub_I_System+0x2c>)
   d7422:	2202      	movs	r2, #2
   d7424:	2000      	movs	r0, #0
   d7426:	601a      	str	r2, [r3, #0]
    SleepResult() {}
   d7428:	4b08      	ldr	r3, [pc, #32]	; (d744c <_GLOBAL__sub_I_System+0x30>)
              error_(SYSTEM_ERROR_NONE) {
   d742a:	6020      	str	r0, [r4, #0]
   d742c:	80a0      	strh	r0, [r4, #4]
    SleepResult() {}
   d742e:	71a0      	strb	r0, [r4, #6]
   d7430:	60a3      	str	r3, [r4, #8]
public:

    SystemClass(System_Mode_TypeDef mode = DEFAULT) {
        set_system_mode(mode);
   d7432:	f7ff fd85 	bl	d6f40 <set_system_mode>
SystemClass System;
   d7436:	4620      	mov	r0, r4
   d7438:	4a05      	ldr	r2, [pc, #20]	; (d7450 <_GLOBAL__sub_I_System+0x34>)
   d743a:	4906      	ldr	r1, [pc, #24]	; (d7454 <_GLOBAL__sub_I_System+0x38>)
   d743c:	e8bd 4010 	ldmia.w	sp!, {r4, lr}
SystemClass System;
   d7440:	f001 bb1e 	b.w	d8a80 <__aeabi_atexit>
   d7444:	2003e718 	.word	0x2003e718
   d7448:	2003e70c 	.word	0x2003e70c
   d744c:	ffff0000 	.word	0xffff0000
   d7450:	2003e134 	.word	0x2003e134
   d7454:	000d72ef 	.word	0x000d72ef

000d7458 <_Z11str_reversePc>:

//------------------------------------------------------------------------------------------
#define BUFSIZE (sizeof(long) * 8 + 1)

//utility function used by ultoa()
__attribute__((weak)) void str_reverse(char* buffer){
   d7458:	b510      	push	{r4, lr}
   d745a:	4604      	mov	r4, r0
	char *i, *j;
	char c;
	i=buffer;
	j=buffer + strlen(buffer)-1;
   d745c:	f002 f9e3 	bl	d9826 <strlen>
   d7460:	3801      	subs	r0, #1
   d7462:	1823      	adds	r3, r4, r0
   d7464:	4620      	mov	r0, r4
	while(i<j){
   d7466:	4283      	cmp	r3, r0
   d7468:	d906      	bls.n	d7478 <_Z11str_reversePc+0x20>
		c = *i;
   d746a:	7802      	ldrb	r2, [r0, #0]
		*i = *j;
   d746c:	7819      	ldrb	r1, [r3, #0]
   d746e:	f800 1b01 	strb.w	r1, [r0], #1
		*j = c;
   d7472:	f803 2901 	strb.w	r2, [r3], #-1
	while(i<j){
   d7476:	e7f6      	b.n	d7466 <_Z11str_reversePc+0xe>
		++i;
		--j;
	}
}
   d7478:	bd10      	pop	{r4, pc}

000d747a <ultoa>:
      memcpy(head, ++tail, i);
      return str;
}

//convert unsigned long to string
__attribute__((weak)) char* ultoa(unsigned long a, char* buffer, int radix, char pad){
   d747a:	b570      	push	{r4, r5, r6, lr}
   d747c:	460c      	mov	r4, r1
	if(radix<2 || radix>36){
   d747e:	1e91      	subs	r1, r2, #2
   d7480:	2922      	cmp	r1, #34	; 0x22
__attribute__((weak)) char* ultoa(unsigned long a, char* buffer, int radix, char pad){
   d7482:	4605      	mov	r5, r0
	if(radix<2 || radix>36){
   d7484:	d822      	bhi.n	d74cc <ultoa+0x52>
		return NULL;
	}
	char* ptr=buffer;
   d7486:	4620      	mov	r0, r4

	div_t result;
	while(a){
   d7488:	b16d      	cbz	r5, d74a6 <ultoa+0x2c>
            /* toolchain bug??
            result = div(a, radix);
            */
            result.quot = a/radix;
   d748a:	fbb5 f6f2 	udiv	r6, r5, r2
            result.rem = a%radix;
   d748e:	fb02 5516 	mls	r5, r2, r6, r5
            *ptr = result.rem;
   d7492:	b2e9      	uxtb	r1, r5
            if(result.rem<10){
   d7494:	2d09      	cmp	r5, #9
                *ptr += '0';
   d7496:	bf94      	ite	ls
   d7498:	3130      	addls	r1, #48	; 0x30
            }else{
                *ptr += 'a'-10;
   d749a:	3157      	addhi	r1, #87	; 0x57
   d749c:	b2c9      	uxtb	r1, r1
   d749e:	f800 1b01 	strb.w	r1, [r0], #1
            }
            ++ptr;
            a = result.quot;
   d74a2:	4635      	mov	r5, r6
	while(a){
   d74a4:	e7f0      	b.n	d7488 <ultoa+0xe>
   d74a6:	4602      	mov	r2, r0
	}
        while (ptr < buffer+pad)
   d74a8:	4423      	add	r3, r4
            *ptr++ = '0';
   d74aa:	2130      	movs	r1, #48	; 0x30
        while (ptr < buffer+pad)
   d74ac:	4293      	cmp	r3, r2
   d74ae:	d902      	bls.n	d74b6 <ultoa+0x3c>
            *ptr++ = '0';
   d74b0:	f802 1b01 	strb.w	r1, [r2], #1
        while (ptr < buffer+pad)
   d74b4:	e7fa      	b.n	d74ac <ultoa+0x32>
   d74b6:	1a1a      	subs	r2, r3, r0
   d74b8:	4283      	cmp	r3, r0
   d74ba:	bf38      	it	cc
   d74bc:	2200      	movcc	r2, #0

	*ptr = '\0';
   d74be:	2300      	movs	r3, #0
   d74c0:	5483      	strb	r3, [r0, r2]
	str_reverse(buffer);
   d74c2:	4620      	mov	r0, r4
   d74c4:	f7ff ffc8 	bl	d7458 <_Z11str_reversePc>
	return buffer;
   d74c8:	4620      	mov	r0, r4
}
   d74ca:	bd70      	pop	{r4, r5, r6, pc}
		return NULL;
   d74cc:	2000      	movs	r0, #0
   d74ce:	e7fc      	b.n	d74ca <ultoa+0x50>

000d74d0 <itoa>:

__attribute__((weak)) char* itoa(int a, char* buffer, int radix){
   d74d0:	b538      	push	{r3, r4, r5, lr}
	if(a<0){
   d74d2:	1e03      	subs	r3, r0, #0
__attribute__((weak)) char* itoa(int a, char* buffer, int radix){
   d74d4:	460c      	mov	r4, r1
   d74d6:	4615      	mov	r5, r2
	if(a<0){
   d74d8:	da0e      	bge.n	d74f8 <itoa+0x28>
		*buffer = '-';
		unsigned v = a==INT_MIN ? ((unsigned)INT_MAX+1) : -a;
   d74da:	f1b3 4f00 	cmp.w	r3, #2147483648	; 0x80000000
		*buffer = '-';
   d74de:	f04f 022d 	mov.w	r2, #45	; 0x2d
		unsigned v = a==INT_MIN ? ((unsigned)INT_MAX+1) : -a;
   d74e2:	bf14      	ite	ne
   d74e4:	4258      	negne	r0, r3
   d74e6:	4618      	moveq	r0, r3
		ultoa((unsigned)v, buffer + 1, radix);
   d74e8:	2301      	movs	r3, #1
		*buffer = '-';
   d74ea:	700a      	strb	r2, [r1, #0]
		ultoa((unsigned)v, buffer + 1, radix);
   d74ec:	462a      	mov	r2, r5
   d74ee:	4419      	add	r1, r3
	}else{
		ultoa(a, buffer, radix);
   d74f0:	f7ff ffc3 	bl	d747a <ultoa>
	}
	return buffer;
}
   d74f4:	4620      	mov	r0, r4
   d74f6:	bd38      	pop	{r3, r4, r5, pc}
		ultoa(a, buffer, radix);
   d74f8:	2301      	movs	r3, #1
   d74fa:	e7f9      	b.n	d74f0 <itoa+0x20>

000d74fc <_Z4dtoadhPc>:
#include "string_convert.h"

//These are very crude implementations - will refine later
//------------------------------------------------------------------------------------------

void dtoa (double val, unsigned char prec, char *sout) {
   d74fc:	e92d 47f0 	stmdb	sp!, {r4, r5, r6, r7, r8, r9, sl, lr}
   d7500:	ec57 6b10 	vmov	r6, r7, d0
   d7504:	4680      	mov	r8, r0
   d7506:	460c      	mov	r4, r1
    bool negative = val<0;
    if (negative) {
   d7508:	ee10 0a10 	vmov	r0, s0
   d750c:	2200      	movs	r2, #0
   d750e:	2300      	movs	r3, #0
   d7510:	4639      	mov	r1, r7
   d7512:	f001 fef1 	bl	d92f8 <__aeabi_dcmplt>
   d7516:	b128      	cbz	r0, d7524 <_Z4dtoadhPc+0x28>
        val = -val;
   d7518:	f107 4300 	add.w	r3, r7, #2147483648	; 0x80000000
   d751c:	461f      	mov	r7, r3
        *sout++ = '-';
   d751e:	232d      	movs	r3, #45	; 0x2d
   d7520:	f804 3b01 	strb.w	r3, [r4], #1
   d7524:	2300      	movs	r3, #0
    }
    long scale = 1;
   d7526:	f04f 0901 	mov.w	r9, #1
    for (uint8_t i=0; i<prec; i++)
        scale *= 10;
   d752a:	220a      	movs	r2, #10
    for (uint8_t i=0; i<prec; i++)
   d752c:	b2d9      	uxtb	r1, r3
   d752e:	4588      	cmp	r8, r1
   d7530:	d903      	bls.n	d753a <_Z4dtoadhPc+0x3e>
        scale *= 10;
   d7532:	fb02 f909 	mul.w	r9, r2, r9
    for (uint8_t i=0; i<prec; i++)
   d7536:	3301      	adds	r3, #1
   d7538:	e7f8      	b.n	d752c <_Z4dtoadhPc+0x30>
    val *= scale;   // capture all the significant digits
   d753a:	4648      	mov	r0, r9
   d753c:	f001 fc00 	bl	d8d40 <__aeabi_i2d>
   d7540:	4632      	mov	r2, r6
   d7542:	463b      	mov	r3, r7
   d7544:	f001 fc66 	bl	d8e14 <__aeabi_dmul>
   d7548:	4606      	mov	r6, r0
   d754a:	460f      	mov	r7, r1
    uint64_t fixed = uint64_t(val);
   d754c:	f001 ff72 	bl	d9434 <__aeabi_d2ulz>
   d7550:	4605      	mov	r5, r0
   d7552:	468a      	mov	sl, r1
    if ((val-fixed)>=0.5)    // round last digit
   d7554:	f001 fc28 	bl	d8da8 <__aeabi_ul2d>
   d7558:	4602      	mov	r2, r0
   d755a:	460b      	mov	r3, r1
   d755c:	4630      	mov	r0, r6
   d755e:	4639      	mov	r1, r7
   d7560:	f001 faa0 	bl	d8aa4 <__aeabi_dsub>
   d7564:	4b13      	ldr	r3, [pc, #76]	; (d75b4 <_Z4dtoadhPc+0xb8>)
   d7566:	2200      	movs	r2, #0
   d7568:	f001 feda 	bl	d9320 <__aeabi_dcmpge>
   d756c:	b110      	cbz	r0, d7574 <_Z4dtoadhPc+0x78>
        fixed++;
   d756e:	3501      	adds	r5, #1
   d7570:	f14a 0a00 	adc.w	sl, sl, #0

    unsigned long first = (unsigned long)(fixed / scale);
   d7574:	464a      	mov	r2, r9
   d7576:	4628      	mov	r0, r5
   d7578:	17d3      	asrs	r3, r2, #31
   d757a:	4651      	mov	r1, sl
   d757c:	f001 ff42 	bl	d9404 <__aeabi_uldivmod>
    unsigned long second = (unsigned long)(fixed % scale);

    ultoa(first, sout, 10, 1);
   d7580:	2301      	movs	r3, #1
   d7582:	4615      	mov	r5, r2
   d7584:	4621      	mov	r1, r4
   d7586:	220a      	movs	r2, #10
   d7588:	f7ff ff77 	bl	d747a <ultoa>
    if (prec) {
   d758c:	f1b8 0f00 	cmp.w	r8, #0
   d7590:	d00d      	beq.n	d75ae <_Z4dtoadhPc+0xb2>
        sout += strlen(sout);
   d7592:	4620      	mov	r0, r4
   d7594:	f002 f947 	bl	d9826 <strlen>
        *sout++ = '.';
   d7598:	232e      	movs	r3, #46	; 0x2e
        sout += strlen(sout);
   d759a:	1821      	adds	r1, r4, r0
        *sout++ = '.';
   d759c:	5423      	strb	r3, [r4, r0]
        ultoa(second, sout, 10, prec);
   d759e:	220a      	movs	r2, #10
   d75a0:	4643      	mov	r3, r8
   d75a2:	4628      	mov	r0, r5
   d75a4:	3101      	adds	r1, #1
    }
}
   d75a6:	e8bd 47f0 	ldmia.w	sp!, {r4, r5, r6, r7, r8, r9, sl, lr}
        ultoa(second, sout, 10, prec);
   d75aa:	f7ff bf66 	b.w	d747a <ultoa>
}
   d75ae:	e8bd 87f0 	ldmia.w	sp!, {r4, r5, r6, r7, r8, r9, sl, pc}
   d75b2:	bf00      	nop
   d75b4:	3fe00000 	.word	0x3fe00000

000d75b8 <_ZN6StringD1Ev>:
	init();
	char buf[33];
	dtoa(value, decimalPlaces, buf);
        *this = buf;
}
String::~String()
   d75b8:	b510      	push	{r4, lr}
   d75ba:	4604      	mov	r4, r0
{
	free(buffer);
   d75bc:	6800      	ldr	r0, [r0, #0]
   d75be:	f7ff fd85 	bl	d70cc <free>
}
   d75c2:	4620      	mov	r0, r4
   d75c4:	bd10      	pop	{r4, pc}

000d75c6 <_ZN6String10invalidateEv>:
	len = 0;
	flags = 0;
}

void String::invalidate(void)
{
   d75c6:	b510      	push	{r4, lr}
   d75c8:	4604      	mov	r4, r0
	if (buffer) free(buffer);
   d75ca:	6800      	ldr	r0, [r0, #0]
   d75cc:	b108      	cbz	r0, d75d2 <_ZN6String10invalidateEv+0xc>
   d75ce:	f7ff fd7d 	bl	d70cc <free>
	buffer = NULL;
   d75d2:	2300      	movs	r3, #0
	capacity = len = 0;
   d75d4:	e9c4 3301 	strd	r3, r3, [r4, #4]
	buffer = NULL;
   d75d8:	6023      	str	r3, [r4, #0]
}
   d75da:	bd10      	pop	{r4, pc}

000d75dc <_ZN6String12changeBufferEj>:
	}
	return 0;
}

unsigned char String::changeBuffer(unsigned int maxStrLen)
{
   d75dc:	b538      	push	{r3, r4, r5, lr}
   d75de:	4604      	mov	r4, r0
   d75e0:	460d      	mov	r5, r1
	char *newbuffer = (char *)realloc(buffer, maxStrLen + 1);
   d75e2:	6800      	ldr	r0, [r0, #0]
   d75e4:	3101      	adds	r1, #1
   d75e6:	f7ff fd79 	bl	d70dc <realloc>
	if (newbuffer) {
   d75ea:	b110      	cbz	r0, d75f2 <_ZN6String12changeBufferEj+0x16>
		buffer = newbuffer;
		capacity = maxStrLen;
   d75ec:	e9c4 0500 	strd	r0, r5, [r4]
		return 1;
   d75f0:	2001      	movs	r0, #1
	}
	return 0;
}
   d75f2:	bd38      	pop	{r3, r4, r5, pc}

000d75f4 <_ZN6String7reserveEj>:
{
   d75f4:	b510      	push	{r4, lr}
	if (buffer && capacity >= size) return 1;
   d75f6:	6803      	ldr	r3, [r0, #0]
{
   d75f8:	4604      	mov	r4, r0
	if (buffer && capacity >= size) return 1;
   d75fa:	b123      	cbz	r3, d7606 <_ZN6String7reserveEj+0x12>
   d75fc:	6843      	ldr	r3, [r0, #4]
   d75fe:	428b      	cmp	r3, r1
   d7600:	d301      	bcc.n	d7606 <_ZN6String7reserveEj+0x12>
   d7602:	2001      	movs	r0, #1
}
   d7604:	bd10      	pop	{r4, pc}
	if (changeBuffer(size)) {
   d7606:	4620      	mov	r0, r4
   d7608:	f7ff ffe8 	bl	d75dc <_ZN6String12changeBufferEj>
   d760c:	2800      	cmp	r0, #0
   d760e:	d0f9      	beq.n	d7604 <_ZN6String7reserveEj+0x10>
		if (len == 0) buffer[0] = 0;
   d7610:	68a3      	ldr	r3, [r4, #8]
   d7612:	2b00      	cmp	r3, #0
   d7614:	d1f5      	bne.n	d7602 <_ZN6String7reserveEj+0xe>
   d7616:	6822      	ldr	r2, [r4, #0]
   d7618:	7013      	strb	r3, [r2, #0]
   d761a:	e7f2      	b.n	d7602 <_ZN6String7reserveEj+0xe>

000d761c <_ZN6String4copyEPKcj>:
/*********************************************/
/*  Copy and Move                            */
/*********************************************/

String & String::copy(const char *cstr, unsigned int length)
{
   d761c:	b537      	push	{r0, r1, r2, r4, r5, lr}
   d761e:	460d      	mov	r5, r1
	if (!reserve(length)) {
   d7620:	4611      	mov	r1, r2
   d7622:	9201      	str	r2, [sp, #4]
{
   d7624:	4604      	mov	r4, r0
	if (!reserve(length)) {
   d7626:	f7ff ffe5 	bl	d75f4 <_ZN6String7reserveEj>
   d762a:	9a01      	ldr	r2, [sp, #4]
   d762c:	b928      	cbnz	r0, d763a <_ZN6String4copyEPKcj+0x1e>
		invalidate();
   d762e:	4620      	mov	r0, r4
   d7630:	f7ff ffc9 	bl	d75c6 <_ZN6String10invalidateEv>
	}
	len = length;
	memcpy(buffer, cstr, length);
	buffer[len] = 0;
	return *this;
}
   d7634:	4620      	mov	r0, r4
   d7636:	b003      	add	sp, #12
   d7638:	bd30      	pop	{r4, r5, pc}
	len = length;
   d763a:	60a2      	str	r2, [r4, #8]
	memcpy(buffer, cstr, length);
   d763c:	4629      	mov	r1, r5
   d763e:	6820      	ldr	r0, [r4, #0]
   d7640:	f002 f888 	bl	d9754 <memcpy>
	buffer[len] = 0;
   d7644:	6822      	ldr	r2, [r4, #0]
   d7646:	68a3      	ldr	r3, [r4, #8]
   d7648:	2100      	movs	r1, #0
   d764a:	54d1      	strb	r1, [r2, r3]
	return *this;
   d764c:	e7f2      	b.n	d7634 <_ZN6String4copyEPKcj+0x18>

000d764e <_ZN6StringC1EPKc>:
	buffer = NULL;
   d764e:	2300      	movs	r3, #0
String::String(const char *cstr)
   d7650:	b513      	push	{r0, r1, r4, lr}
	capacity = 0;
   d7652:	e9c0 3300 	strd	r3, r3, [r0]
String::String(const char *cstr)
   d7656:	4604      	mov	r4, r0
	len = 0;
   d7658:	6083      	str	r3, [r0, #8]
	flags = 0;
   d765a:	7303      	strb	r3, [r0, #12]
	if (cstr) copy(cstr, strlen(cstr));
   d765c:	b141      	cbz	r1, d7670 <_ZN6StringC1EPKc+0x22>
   d765e:	4608      	mov	r0, r1
   d7660:	9101      	str	r1, [sp, #4]
   d7662:	f002 f8e0 	bl	d9826 <strlen>
   d7666:	9901      	ldr	r1, [sp, #4]
   d7668:	4602      	mov	r2, r0
   d766a:	4620      	mov	r0, r4
   d766c:	f7ff ffd6 	bl	d761c <_ZN6String4copyEPKcj>
}
   d7670:	4620      	mov	r0, r4
   d7672:	b002      	add	sp, #8
   d7674:	bd10      	pop	{r4, pc}

000d7676 <_ZN6String4moveERS_>:
    return copy(reinterpret_cast<const char*>(pstr), length);
}

#ifdef __GXX_EXPERIMENTAL_CXX0X__
void String::move(String &rhs)
{
   d7676:	b538      	push	{r3, r4, r5, lr}
   d7678:	4605      	mov	r5, r0
	if (buffer) {
   d767a:	6800      	ldr	r0, [r0, #0]
{
   d767c:	460c      	mov	r4, r1
	if (buffer) {
   d767e:	b168      	cbz	r0, d769c <_ZN6String4moveERS_+0x26>
		if (capacity >= rhs.len) {
   d7680:	686a      	ldr	r2, [r5, #4]
   d7682:	688b      	ldr	r3, [r1, #8]
   d7684:	429a      	cmp	r2, r3
   d7686:	d307      	bcc.n	d7698 <_ZN6String4moveERS_+0x22>
			strcpy(buffer, rhs.buffer);
   d7688:	6809      	ldr	r1, [r1, #0]
   d768a:	f002 f8a7 	bl	d97dc <strcpy>
			len = rhs.len;
   d768e:	68a3      	ldr	r3, [r4, #8]
   d7690:	60ab      	str	r3, [r5, #8]
			rhs.len = 0;
   d7692:	2300      	movs	r3, #0
	buffer = rhs.buffer;
	capacity = rhs.capacity;
	len = rhs.len;
	rhs.buffer = NULL;
	rhs.capacity = 0;
	rhs.len = 0;
   d7694:	60a3      	str	r3, [r4, #8]
}
   d7696:	bd38      	pop	{r3, r4, r5, pc}
			free(buffer);
   d7698:	f7ff fd18 	bl	d70cc <free>
	buffer = rhs.buffer;
   d769c:	6823      	ldr	r3, [r4, #0]
   d769e:	602b      	str	r3, [r5, #0]
	capacity = rhs.capacity;
   d76a0:	6863      	ldr	r3, [r4, #4]
   d76a2:	606b      	str	r3, [r5, #4]
	len = rhs.len;
   d76a4:	68a3      	ldr	r3, [r4, #8]
   d76a6:	60ab      	str	r3, [r5, #8]
	rhs.buffer = NULL;
   d76a8:	2300      	movs	r3, #0
	rhs.capacity = 0;
   d76aa:	e9c4 3300 	strd	r3, r3, [r4]
   d76ae:	e7f1      	b.n	d7694 <_ZN6String4moveERS_+0x1e>

000d76b0 <_ZN6StringaSERKS_>:
#endif

String & String::operator = (const String &rhs)
{
	if (this == &rhs) return *this;
   d76b0:	4288      	cmp	r0, r1
{
   d76b2:	b510      	push	{r4, lr}
   d76b4:	4604      	mov	r4, r0
	if (this == &rhs) return *this;
   d76b6:	d005      	beq.n	d76c4 <_ZN6StringaSERKS_+0x14>

	if (rhs.buffer) copy(rhs.buffer, rhs.len);
   d76b8:	680b      	ldr	r3, [r1, #0]
   d76ba:	b12b      	cbz	r3, d76c8 <_ZN6StringaSERKS_+0x18>
   d76bc:	688a      	ldr	r2, [r1, #8]
   d76be:	4619      	mov	r1, r3
   d76c0:	f7ff ffac 	bl	d761c <_ZN6String4copyEPKcj>
	else invalidate();

	return *this;
}
   d76c4:	4620      	mov	r0, r4
   d76c6:	bd10      	pop	{r4, pc}
	else invalidate();
   d76c8:	f7ff ff7d 	bl	d75c6 <_ZN6String10invalidateEv>
   d76cc:	e7fa      	b.n	d76c4 <_ZN6StringaSERKS_+0x14>

000d76ce <_ZN6StringC1ERKS_>:
String::String(const String &value)
   d76ce:	b510      	push	{r4, lr}
	buffer = NULL;
   d76d0:	2300      	movs	r3, #0
String::String(const String &value)
   d76d2:	4604      	mov	r4, r0
	capacity = 0;
   d76d4:	e9c0 3300 	strd	r3, r3, [r0]
	len = 0;
   d76d8:	6083      	str	r3, [r0, #8]
	flags = 0;
   d76da:	7303      	strb	r3, [r0, #12]
	*this = value;
   d76dc:	f7ff ffe8 	bl	d76b0 <_ZN6StringaSERKS_>
}
   d76e0:	4620      	mov	r0, r4
   d76e2:	bd10      	pop	{r4, pc}

000d76e4 <_ZN6StringaSEOS_>:
}

#ifdef __GXX_EXPERIMENTAL_CXX0X__
String & String::operator = (String &&rval)
{
	if (this != &rval) move(rval);
   d76e4:	4288      	cmp	r0, r1
{
   d76e6:	b510      	push	{r4, lr}
   d76e8:	4604      	mov	r4, r0
	if (this != &rval) move(rval);
   d76ea:	d001      	beq.n	d76f0 <_ZN6StringaSEOS_+0xc>
   d76ec:	f7ff ffc3 	bl	d7676 <_ZN6String4moveERS_>
	return *this;
}
   d76f0:	4620      	mov	r0, r4
   d76f2:	bd10      	pop	{r4, pc}

000d76f4 <_ZN6StringaSEPKc>:
	return *this;
}
#endif

String & String::operator = (const char *cstr)
{
   d76f4:	b513      	push	{r0, r1, r4, lr}
   d76f6:	4604      	mov	r4, r0
	if (cstr) copy(cstr, strlen(cstr));
   d76f8:	b159      	cbz	r1, d7712 <_ZN6StringaSEPKc+0x1e>
   d76fa:	4608      	mov	r0, r1
   d76fc:	9101      	str	r1, [sp, #4]
   d76fe:	f002 f892 	bl	d9826 <strlen>
   d7702:	9901      	ldr	r1, [sp, #4]
   d7704:	4602      	mov	r2, r0
   d7706:	4620      	mov	r0, r4
   d7708:	f7ff ff88 	bl	d761c <_ZN6String4copyEPKcj>
	else invalidate();

	return *this;
}
   d770c:	4620      	mov	r0, r4
   d770e:	b002      	add	sp, #8
   d7710:	bd10      	pop	{r4, pc}
	else invalidate();
   d7712:	f7ff ff58 	bl	d75c6 <_ZN6String10invalidateEv>
   d7716:	e7f9      	b.n	d770c <_ZN6StringaSEPKc+0x18>

000d7718 <_ZN6StringC1Eih>:
String::String(int value, unsigned char base)
   d7718:	b510      	push	{r4, lr}
   d771a:	4604      	mov	r4, r0
   d771c:	b08a      	sub	sp, #40	; 0x28
	buffer = NULL;
   d771e:	2300      	movs	r3, #0
	capacity = 0;
   d7720:	e9c4 3300 	strd	r3, r3, [r4]
	len = 0;
   d7724:	60a3      	str	r3, [r4, #8]
	flags = 0;
   d7726:	7323      	strb	r3, [r4, #12]
String::String(int value, unsigned char base)
   d7728:	4608      	mov	r0, r1
	itoa(value, buf, base);
   d772a:	a901      	add	r1, sp, #4
   d772c:	f7ff fed0 	bl	d74d0 <itoa>
	*this = buf;
   d7730:	a901      	add	r1, sp, #4
   d7732:	4620      	mov	r0, r4
   d7734:	f7ff ffde 	bl	d76f4 <_ZN6StringaSEPKc>
}
   d7738:	4620      	mov	r0, r4
   d773a:	b00a      	add	sp, #40	; 0x28
   d773c:	bd10      	pop	{r4, pc}

000d773e <_ZN6StringC1Edi>:
String::String(double value, int decimalPlaces)
   d773e:	b510      	push	{r4, lr}
   d7740:	4604      	mov	r4, r0
   d7742:	b08a      	sub	sp, #40	; 0x28
	buffer = NULL;
   d7744:	2300      	movs	r3, #0
String::String(double value, int decimalPlaces)
   d7746:	4608      	mov	r0, r1
	capacity = 0;
   d7748:	e9c4 3300 	strd	r3, r3, [r4]
	len = 0;
   d774c:	60a3      	str	r3, [r4, #8]
	flags = 0;
   d774e:	7323      	strb	r3, [r4, #12]
	dtoa(value, decimalPlaces, buf);
   d7750:	a901      	add	r1, sp, #4
   d7752:	b2c0      	uxtb	r0, r0
   d7754:	f7ff fed2 	bl	d74fc <_Z4dtoadhPc>
        *this = buf;
   d7758:	a901      	add	r1, sp, #4
   d775a:	4620      	mov	r0, r4
   d775c:	f7ff ffca 	bl	d76f4 <_ZN6StringaSEPKc>
}
   d7760:	4620      	mov	r0, r4
   d7762:	b00a      	add	sp, #40	; 0x28
   d7764:	bd10      	pop	{r4, pc}

000d7766 <_ZN6String6concatEPKcj>:
{
	return concat(s.buffer, s.len);
}

unsigned char String::concat(const char *cstr, unsigned int length)
{
   d7766:	b570      	push	{r4, r5, r6, lr}
   d7768:	4605      	mov	r5, r0
	unsigned int newlen = len + length;
	if (!cstr) return 0;
   d776a:	460e      	mov	r6, r1
   d776c:	b909      	cbnz	r1, d7772 <_ZN6String6concatEPKcj+0xc>
   d776e:	2000      	movs	r0, #0
	if (length == 0) return 1;
	if (!reserve(newlen)) return 0;
	strcpy(buffer + len, cstr);
	len = newlen;
	return 1;
}
   d7770:	bd70      	pop	{r4, r5, r6, pc}
	if (length == 0) return 1;
   d7772:	b16a      	cbz	r2, d7790 <_ZN6String6concatEPKcj+0x2a>
	unsigned int newlen = len + length;
   d7774:	6884      	ldr	r4, [r0, #8]
   d7776:	4414      	add	r4, r2
	if (!reserve(newlen)) return 0;
   d7778:	4621      	mov	r1, r4
   d777a:	f7ff ff3b 	bl	d75f4 <_ZN6String7reserveEj>
   d777e:	2800      	cmp	r0, #0
   d7780:	d0f5      	beq.n	d776e <_ZN6String6concatEPKcj+0x8>
	strcpy(buffer + len, cstr);
   d7782:	6828      	ldr	r0, [r5, #0]
   d7784:	68ab      	ldr	r3, [r5, #8]
   d7786:	4631      	mov	r1, r6
   d7788:	4418      	add	r0, r3
   d778a:	f002 f827 	bl	d97dc <strcpy>
	len = newlen;
   d778e:	60ac      	str	r4, [r5, #8]
	if (length == 0) return 1;
   d7790:	2001      	movs	r0, #1
   d7792:	e7ed      	b.n	d7770 <_ZN6String6concatEPKcj+0xa>

000d7794 <_ZN6String6concatERKS_>:
	return concat(s.buffer, s.len);
   d7794:	688a      	ldr	r2, [r1, #8]
   d7796:	6809      	ldr	r1, [r1, #0]
   d7798:	f7ff bfe5 	b.w	d7766 <_ZN6String6concatEPKcj>

000d779c <_ZN6String6concatEPKc>:

unsigned char String::concat(const char *cstr)
{
   d779c:	b513      	push	{r0, r1, r4, lr}
   d779e:	4604      	mov	r4, r0
	if (!cstr) return 0;
	return concat(cstr, strlen(cstr));
}
   d77a0:	4608      	mov	r0, r1
	if (!cstr) return 0;
   d77a2:	b151      	cbz	r1, d77ba <_ZN6String6concatEPKc+0x1e>
	return concat(cstr, strlen(cstr));
   d77a4:	9101      	str	r1, [sp, #4]
   d77a6:	f002 f83e 	bl	d9826 <strlen>
   d77aa:	9901      	ldr	r1, [sp, #4]
   d77ac:	4602      	mov	r2, r0
   d77ae:	4620      	mov	r0, r4
}
   d77b0:	b002      	add	sp, #8
   d77b2:	e8bd 4010 	ldmia.w	sp!, {r4, lr}
	return concat(cstr, strlen(cstr));
   d77b6:	f7ff bfd6 	b.w	d7766 <_ZN6String6concatEPKcj>
}
   d77ba:	b002      	add	sp, #8
   d77bc:	bd10      	pop	{r4, pc}

000d77be <_ZNK6String6equalsEPKc>:
{
	return (len == s2.len && compareTo(s2) == 0);
}

unsigned char String::equals(const char *cstr) const
{
   d77be:	b508      	push	{r3, lr}
	if (len == 0) return (cstr == NULL || *cstr == 0);
   d77c0:	6882      	ldr	r2, [r0, #8]
   d77c2:	b93a      	cbnz	r2, d77d4 <_ZNK6String6equalsEPKc+0x16>
   d77c4:	b121      	cbz	r1, d77d0 <_ZNK6String6equalsEPKc+0x12>
   d77c6:	7808      	ldrb	r0, [r1, #0]
	if (cstr == NULL) return buffer[0] == 0;
	return strcmp(buffer, cstr) == 0;
   d77c8:	fab0 f080 	clz	r0, r0
   d77cc:	0940      	lsrs	r0, r0, #5
   d77ce:	e000      	b.n	d77d2 <_ZNK6String6equalsEPKc+0x14>
	if (len == 0) return (cstr == NULL || *cstr == 0);
   d77d0:	2001      	movs	r0, #1
}
   d77d2:	bd08      	pop	{r3, pc}
	if (cstr == NULL) return buffer[0] == 0;
   d77d4:	6800      	ldr	r0, [r0, #0]
   d77d6:	b909      	cbnz	r1, d77dc <_ZNK6String6equalsEPKc+0x1e>
   d77d8:	7800      	ldrb	r0, [r0, #0]
   d77da:	e7f5      	b.n	d77c8 <_ZNK6String6equalsEPKc+0xa>
	return strcmp(buffer, cstr) == 0;
   d77dc:	f001 fff4 	bl	d97c8 <strcmp>
   d77e0:	e7f2      	b.n	d77c8 <_ZNK6String6equalsEPKc+0xa>

000d77e2 <_ZNSt16_Sp_counted_baseILN9__gnu_cxx12_Lock_policyE0EE10_M_releaseEv.part.0>:
    _Sp_counted_base<_S_single>::_M_release() noexcept
   d77e2:	b510      	push	{r4, lr}
          _M_dispose();
   d77e4:	6803      	ldr	r3, [r0, #0]
    _Sp_counted_base<_S_single>::_M_release() noexcept
   d77e6:	4604      	mov	r4, r0
          _M_dispose();
   d77e8:	689b      	ldr	r3, [r3, #8]
   d77ea:	4798      	blx	r3
          if (--_M_weak_count == 0)
   d77ec:	68a3      	ldr	r3, [r4, #8]
   d77ee:	3b01      	subs	r3, #1
   d77f0:	60a3      	str	r3, [r4, #8]
   d77f2:	b92b      	cbnz	r3, d7800 <_ZNSt16_Sp_counted_baseILN9__gnu_cxx12_Lock_policyE0EE10_M_releaseEv.part.0+0x1e>
            _M_destroy();
   d77f4:	6823      	ldr	r3, [r4, #0]
   d77f6:	4620      	mov	r0, r4
   d77f8:	68db      	ldr	r3, [r3, #12]
    }
   d77fa:	e8bd 4010 	ldmia.w	sp!, {r4, lr}
            _M_destroy();
   d77fe:	4718      	bx	r3
    }
   d7800:	bd10      	pop	{r4, pc}

000d7802 <_ZN14RecursiveMutexD1Ev>:
    RecursiveMutex() : handle_(nullptr)
    {
        os_mutex_recursive_create(&handle_);
    }

    ~RecursiveMutex() {
   d7802:	b510      	push	{r4, lr}
   d7804:	4604      	mov	r4, r0
        dispose();
    }

    void dispose()
    {
        if (handle_) {
   d7806:	6800      	ldr	r0, [r0, #0]
   d7808:	b108      	cbz	r0, d780e <_ZN14RecursiveMutexD1Ev+0xc>
            os_mutex_recursive_destroy(handle_);
   d780a:	f7ff fa91 	bl	d6d30 <os_mutex_recursive_destroy>
    }
   d780e:	4620      	mov	r0, r4
   d7810:	bd10      	pop	{r4, pc}

000d7812 <_ZNSt14__shared_countILN9__gnu_cxx12_Lock_policyE0EEC1ERKS2_>:
	  _M_pi->_M_release();
      }

      __shared_count(const __shared_count& __r) noexcept
      : _M_pi(__r._M_pi)
   d7812:	680b      	ldr	r3, [r1, #0]
   d7814:	6003      	str	r3, [r0, #0]
      {
	if (_M_pi != 0)
   d7816:	b113      	cbz	r3, d781e <_ZNSt14__shared_countILN9__gnu_cxx12_Lock_policyE0EEC1ERKS2_+0xc>
    { ++_M_use_count; }
   d7818:	685a      	ldr	r2, [r3, #4]
   d781a:	3201      	adds	r2, #1
   d781c:	605a      	str	r2, [r3, #4]
	  _M_pi->_M_add_ref_copy();
      }
   d781e:	4770      	bx	lr

000d7820 <_ZNSt14__shared_countILN9__gnu_cxx12_Lock_policyE0EED1Ev>:
      ~__shared_count() noexcept
   d7820:	b510      	push	{r4, lr}
   d7822:	4604      	mov	r4, r0
	if (_M_pi != nullptr)
   d7824:	6800      	ldr	r0, [r0, #0]
   d7826:	b128      	cbz	r0, d7834 <_ZNSt14__shared_countILN9__gnu_cxx12_Lock_policyE0EED1Ev+0x14>
      if (--_M_use_count == 0)
   d7828:	6843      	ldr	r3, [r0, #4]
   d782a:	3b01      	subs	r3, #1
   d782c:	6043      	str	r3, [r0, #4]
   d782e:	b90b      	cbnz	r3, d7834 <_ZNSt14__shared_countILN9__gnu_cxx12_Lock_policyE0EED1Ev+0x14>
   d7830:	f7ff ffd7 	bl	d77e2 <_ZNSt16_Sp_counted_baseILN9__gnu_cxx12_Lock_policyE0EE10_M_releaseEv.part.0>
      }
   d7834:	4620      	mov	r0, r4
   d7836:	bd10      	pop	{r4, pc}

000d7838 <_GLOBAL__sub_I__ZN8particle3ble13WiringBleLock6mutex_E>:
BleCharacteristic BleLocalDevice::addCharacteristic(const String& desc, EnumFlags<BleCharacteristicProperty> properties, BleOnDataReceivedCallback callback, void* context) {
    WiringBleLock lk;
    return addCharacteristic(desc.c_str(), properties, callback, context);
}

} /* namespace particle */
   d7838:	b510      	push	{r4, lr}
    RecursiveMutex() : handle_(nullptr)
   d783a:	4c06      	ldr	r4, [pc, #24]	; (d7854 <_GLOBAL__sub_I__ZN8particle3ble13WiringBleLock6mutex_E+0x1c>)
   d783c:	2300      	movs	r3, #0
        os_mutex_recursive_create(&handle_);
   d783e:	4620      	mov	r0, r4
    RecursiveMutex() : handle_(nullptr)
   d7840:	6023      	str	r3, [r4, #0]
        os_mutex_recursive_create(&handle_);
   d7842:	f7ff fa6d 	bl	d6d20 <os_mutex_recursive_create>
RecursiveMutex WiringBleLock::mutex_;
   d7846:	4620      	mov	r0, r4
   d7848:	4a03      	ldr	r2, [pc, #12]	; (d7858 <_GLOBAL__sub_I__ZN8particle3ble13WiringBleLock6mutex_E+0x20>)
   d784a:	4904      	ldr	r1, [pc, #16]	; (d785c <_GLOBAL__sub_I__ZN8particle3ble13WiringBleLock6mutex_E+0x24>)
} /* namespace particle */
   d784c:	e8bd 4010 	ldmia.w	sp!, {r4, lr}
RecursiveMutex WiringBleLock::mutex_;
   d7850:	f001 b916 	b.w	d8a80 <__aeabi_atexit>
   d7854:	2003e71c 	.word	0x2003e71c
   d7858:	2003e134 	.word	0x2003e134
   d785c:	000d7803 	.word	0x000d7803

000d7860 <_ZN5Print5writeEPKhj>:

// Public Methods //////////////////////////////////////////////////////////////

/* default implementation: may be overridden */
size_t Print::write(const uint8_t *buffer, size_t size)
{
   d7860:	b5f8      	push	{r3, r4, r5, r6, r7, lr}
   d7862:	4606      	mov	r6, r0
   d7864:	460d      	mov	r5, r1
  size_t n = 0;
   d7866:	188f      	adds	r7, r1, r2
   d7868:	2400      	movs	r4, #0
  while (size--) {
   d786a:	42bd      	cmp	r5, r7
   d786c:	d00c      	beq.n	d7888 <_ZN5Print5writeEPKhj+0x28>
     int chunk = write(*buffer++);
   d786e:	6833      	ldr	r3, [r6, #0]
   d7870:	f815 1b01 	ldrb.w	r1, [r5], #1
   d7874:	689b      	ldr	r3, [r3, #8]
   d7876:	4630      	mov	r0, r6
   d7878:	4798      	blx	r3
     if (chunk>=0)
   d787a:	1e03      	subs	r3, r0, #0
   d787c:	db01      	blt.n	d7882 <_ZN5Print5writeEPKhj+0x22>
         n += chunk;
   d787e:	441c      	add	r4, r3
  while (size--) {
   d7880:	e7f3      	b.n	d786a <_ZN5Print5writeEPKhj+0xa>
     int chunk = write(*buffer++);
   d7882:	2c00      	cmp	r4, #0
   d7884:	bf08      	it	eq
   d7886:	461c      	moveq	r4, r3
             n = chunk;
         break;
     }
  }
  return n;
}
   d7888:	4620      	mov	r0, r4
   d788a:	bdf8      	pop	{r3, r4, r5, r6, r7, pc}

000d788c <_ZN5Print5writeEPKc>:

    int getWriteError() { return write_error; }
    void clearWriteError() { setWriteError(0); }

    virtual size_t write(uint8_t) = 0;
    size_t write(const char *str) {
   d788c:	b513      	push	{r0, r1, r4, lr}
   d788e:	4604      	mov	r4, r0
      if (str == NULL) return 0;
      return write((const uint8_t *)str, strlen(str));
    }
   d7890:	4608      	mov	r0, r1
      if (str == NULL) return 0;
   d7892:	b159      	cbz	r1, d78ac <_ZN5Print5writeEPKc+0x20>
      return write((const uint8_t *)str, strlen(str));
   d7894:	9101      	str	r1, [sp, #4]
   d7896:	f001 ffc6 	bl	d9826 <strlen>
   d789a:	6823      	ldr	r3, [r4, #0]
   d789c:	9901      	ldr	r1, [sp, #4]
   d789e:	68db      	ldr	r3, [r3, #12]
   d78a0:	4602      	mov	r2, r0
   d78a2:	4620      	mov	r0, r4
    }
   d78a4:	b002      	add	sp, #8
   d78a6:	e8bd 4010 	ldmia.w	sp!, {r4, lr}
      return write((const uint8_t *)str, strlen(str));
   d78aa:	4718      	bx	r3
    }
   d78ac:	b002      	add	sp, #8
   d78ae:	bd10      	pop	{r4, pc}

000d78b0 <_ZN5Print5printEPKc>:

size_t Print::print(const char str[])
{
   d78b0:	b508      	push	{r3, lr}
  return write(str);
   d78b2:	f7ff ffeb 	bl	d788c <_ZN5Print5writeEPKc>
}
   d78b6:	bd08      	pop	{r3, pc}

000d78b8 <_ZN5Print5printEc>:

size_t Print::print(char c)
{
  return write(c);
   d78b8:	6803      	ldr	r3, [r0, #0]
   d78ba:	689b      	ldr	r3, [r3, #8]
   d78bc:	4718      	bx	r3

000d78be <_ZN5Print5printEPK19__FlashStringHelper>:
 {
   return x.printTo(*this);
 }

size_t Print::print(const __FlashStringHelper* str)
{
   d78be:	b508      	push	{r3, lr}
  return write(str);
   d78c0:	f7ff ffe4 	bl	d788c <_ZN5Print5writeEPKc>
  return print(reinterpret_cast<const char*>(str));
}
   d78c4:	bd08      	pop	{r3, pc}

000d78c6 <_ZN5Print7printlnEv>:

size_t Print::println(void)
{
   d78c6:	b538      	push	{r3, r4, r5, lr}
  size_t n = print('\r');
   d78c8:	210d      	movs	r1, #13
{
   d78ca:	4605      	mov	r5, r0
  size_t n = print('\r');
   d78cc:	f7ff fff4 	bl	d78b8 <_ZN5Print5printEc>
  n += print('\n');
   d78d0:	210a      	movs	r1, #10
  size_t n = print('\r');
   d78d2:	4604      	mov	r4, r0
  n += print('\n');
   d78d4:	4628      	mov	r0, r5
   d78d6:	f7ff ffef 	bl	d78b8 <_ZN5Print5printEc>
  return n;
}
   d78da:	4420      	add	r0, r4
   d78dc:	bd38      	pop	{r3, r4, r5, pc}

000d78de <_ZN5Print7printlnEPKc>:

size_t Print::println(const char c[])
{
   d78de:	b538      	push	{r3, r4, r5, lr}
   d78e0:	4605      	mov	r5, r0
  return write(str);
   d78e2:	f7ff ffd3 	bl	d788c <_ZN5Print5writeEPKc>
   d78e6:	4604      	mov	r4, r0
  size_t n = print(c);
  n += println();
   d78e8:	4628      	mov	r0, r5
   d78ea:	f7ff ffec 	bl	d78c6 <_ZN5Print7printlnEv>
  return n;
}
   d78ee:	4420      	add	r0, r4
   d78f0:	bd38      	pop	{r3, r4, r5, pc}

000d78f2 <_ZN5Print7printlnEPK19__FlashStringHelper>:
   return n;
 }

size_t Print::println(const __FlashStringHelper* str)
{
  return println(reinterpret_cast<const char*>(str));
   d78f2:	f7ff bff4 	b.w	d78de <_ZN5Print7printlnEPKc>

000d78f6 <_ZN5Print11printNumberEmh>:
}

// Private Methods /////////////////////////////////////////////////////////////

size_t Print::printNumber(unsigned long n, uint8_t base) {
   d78f6:	b530      	push	{r4, r5, lr}
   d78f8:	b08b      	sub	sp, #44	; 0x2c
  char buf[8 * sizeof(n) + 1]; // Assumes 8-bit chars plus zero byte.
  char *str = &buf[sizeof(buf) - 1];

  *str = '\0';
   d78fa:	2300      	movs	r3, #0
   d78fc:	f88d 3024 	strb.w	r3, [sp, #36]	; 0x24

  // prevent crash if called with base == 1
  if (base < 2) base = 10;
   d7900:	2a01      	cmp	r2, #1
   d7902:	bf98      	it	ls
   d7904:	220a      	movls	r2, #10
   d7906:	ac09      	add	r4, sp, #36	; 0x24

  do {
   decltype(n) m = n;
   n /= base;
   d7908:	460d      	mov	r5, r1
   d790a:	fbb1 f1f2 	udiv	r1, r1, r2
   char c = m - base * n;
   d790e:	fb01 5312 	mls	r3, r1, r2, r5
   d7912:	f003 03ff 	and.w	r3, r3, #255	; 0xff
   *--str = c < 10 ? c + '0' : c + 'A' - 10;
   d7916:	2b09      	cmp	r3, #9
   d7918:	bf94      	ite	ls
   d791a:	3330      	addls	r3, #48	; 0x30
   d791c:	3337      	addhi	r3, #55	; 0x37
   d791e:	b2db      	uxtb	r3, r3
  } while(n);
   d7920:	42aa      	cmp	r2, r5
   *--str = c < 10 ? c + '0' : c + 'A' - 10;
   d7922:	f804 3d01 	strb.w	r3, [r4, #-1]!
  } while(n);
   d7926:	d9ef      	bls.n	d7908 <_ZN5Print11printNumberEmh+0x12>

  return write(str);
   d7928:	4621      	mov	r1, r4
   d792a:	f7ff ffaf 	bl	d788c <_ZN5Print5writeEPKc>
}
   d792e:	b00b      	add	sp, #44	; 0x2c
   d7930:	bd30      	pop	{r4, r5, pc}
	...

000d7934 <_ZN5Print10printFloatEdh>:

  return write(str);
}

size_t Print::printFloat(double number, uint8_t digits)
{
   d7934:	e92d 4ff7 	stmdb	sp!, {r0, r1, r2, r4, r5, r6, r7, r8, r9, sl, fp, lr}
   d7938:	ec55 4b10 	vmov	r4, r5, d0
   d793c:	4606      	mov	r6, r0
   d793e:	460f      	mov	r7, r1
  size_t n = 0;

  if (isnan(number)) return print("nan");
   d7940:	ee10 2a10 	vmov	r2, s0
   d7944:	ee10 0a10 	vmov	r0, s0
   d7948:	462b      	mov	r3, r5
   d794a:	4629      	mov	r1, r5
   d794c:	f001 fcfc 	bl	d9348 <__aeabi_dcmpun>
   d7950:	b140      	cbz	r0, d7964 <_ZN5Print10printFloatEdh+0x30>
  return write(str);
   d7952:	4953      	ldr	r1, [pc, #332]	; (d7aa0 <_ZN5Print10printFloatEdh+0x16c>)
   d7954:	4630      	mov	r0, r6
   d7956:	f7ff ff99 	bl	d788c <_ZN5Print5writeEPKc>
   d795a:	4682      	mov	sl, r0
    n += print(toPrint);
    remainder -= toPrint;
  }

  return n;
}
   d795c:	4650      	mov	r0, sl
   d795e:	b003      	add	sp, #12
   d7960:	e8bd 8ff0 	ldmia.w	sp!, {r4, r5, r6, r7, r8, r9, sl, fp, pc}
  && !_GLIBCXX_NO_OBSOLETE_ISINF_ISNAN_DYNAMIC
  using ::isinf;
#else
  constexpr bool
  isinf(double __x)
  { return __builtin_isinf(__x); }
   d7964:	f025 4900 	bic.w	r9, r5, #2147483648	; 0x80000000
  if (isinf(number)) return print("inf");
   d7968:	4b4e      	ldr	r3, [pc, #312]	; (d7aa4 <_ZN5Print10printFloatEdh+0x170>)
   d796a:	f04f 32ff 	mov.w	r2, #4294967295
   d796e:	4620      	mov	r0, r4
   d7970:	4649      	mov	r1, r9
   d7972:	f001 fce9 	bl	d9348 <__aeabi_dcmpun>
   d7976:	b948      	cbnz	r0, d798c <_ZN5Print10printFloatEdh+0x58>
   d7978:	4b4a      	ldr	r3, [pc, #296]	; (d7aa4 <_ZN5Print10printFloatEdh+0x170>)
   d797a:	f04f 32ff 	mov.w	r2, #4294967295
   d797e:	4620      	mov	r0, r4
   d7980:	4649      	mov	r1, r9
   d7982:	f001 fcc3 	bl	d930c <__aeabi_dcmple>
   d7986:	b908      	cbnz	r0, d798c <_ZN5Print10printFloatEdh+0x58>
  return write(str);
   d7988:	4947      	ldr	r1, [pc, #284]	; (d7aa8 <_ZN5Print10printFloatEdh+0x174>)
   d798a:	e7e3      	b.n	d7954 <_ZN5Print10printFloatEdh+0x20>
  if (number > 4294967040.0) return print ("ovf");  // constant determined empirically
   d798c:	4b47      	ldr	r3, [pc, #284]	; (d7aac <_ZN5Print10printFloatEdh+0x178>)
   d798e:	f04f 4260 	mov.w	r2, #3758096384	; 0xe0000000
   d7992:	4620      	mov	r0, r4
   d7994:	4629      	mov	r1, r5
   d7996:	f001 fccd 	bl	d9334 <__aeabi_dcmpgt>
   d799a:	b108      	cbz	r0, d79a0 <_ZN5Print10printFloatEdh+0x6c>
  return write(str);
   d799c:	4944      	ldr	r1, [pc, #272]	; (d7ab0 <_ZN5Print10printFloatEdh+0x17c>)
   d799e:	e7d9      	b.n	d7954 <_ZN5Print10printFloatEdh+0x20>
  if (number <-4294967040.0) return print ("ovf");  // constant determined empirically
   d79a0:	4b44      	ldr	r3, [pc, #272]	; (d7ab4 <_ZN5Print10printFloatEdh+0x180>)
   d79a2:	f04f 4260 	mov.w	r2, #3758096384	; 0xe0000000
   d79a6:	4620      	mov	r0, r4
   d79a8:	4629      	mov	r1, r5
   d79aa:	f001 fca5 	bl	d92f8 <__aeabi_dcmplt>
   d79ae:	2800      	cmp	r0, #0
   d79b0:	d1f4      	bne.n	d799c <_ZN5Print10printFloatEdh+0x68>
  if (number < 0.0)
   d79b2:	2200      	movs	r2, #0
   d79b4:	2300      	movs	r3, #0
   d79b6:	4620      	mov	r0, r4
   d79b8:	4629      	mov	r1, r5
   d79ba:	f001 fc9d 	bl	d92f8 <__aeabi_dcmplt>
   d79be:	b1d0      	cbz	r0, d79f6 <_ZN5Print10printFloatEdh+0xc2>
     n += print('-');
   d79c0:	212d      	movs	r1, #45	; 0x2d
   d79c2:	4630      	mov	r0, r6
   d79c4:	f7ff ff78 	bl	d78b8 <_ZN5Print5printEc>
     number = -number;
   d79c8:	f105 4300 	add.w	r3, r5, #2147483648	; 0x80000000
     n += print('-');
   d79cc:	4682      	mov	sl, r0
     number = -number;
   d79ce:	461d      	mov	r5, r3
  double rounding = 0.5;
   d79d0:	4939      	ldr	r1, [pc, #228]	; (d7ab8 <_ZN5Print10printFloatEdh+0x184>)
    rounding /= 10.0;
   d79d2:	f8df 90ec 	ldr.w	r9, [pc, #236]	; d7ac0 <_ZN5Print10printFloatEdh+0x18c>
  size_t n = 0;
   d79d6:	f04f 0b00 	mov.w	fp, #0
  double rounding = 0.5;
   d79da:	2000      	movs	r0, #0
    rounding /= 10.0;
   d79dc:	f04f 0800 	mov.w	r8, #0
  for (uint8_t i=0; i<digits; ++i)
   d79e0:	fa5f f38b 	uxtb.w	r3, fp
   d79e4:	429f      	cmp	r7, r3
   d79e6:	d908      	bls.n	d79fa <_ZN5Print10printFloatEdh+0xc6>
    rounding /= 10.0;
   d79e8:	4642      	mov	r2, r8
   d79ea:	464b      	mov	r3, r9
   d79ec:	f001 fb3c 	bl	d9068 <__aeabi_ddiv>
  for (uint8_t i=0; i<digits; ++i)
   d79f0:	f10b 0b01 	add.w	fp, fp, #1
   d79f4:	e7f4      	b.n	d79e0 <_ZN5Print10printFloatEdh+0xac>
  size_t n = 0;
   d79f6:	4682      	mov	sl, r0
   d79f8:	e7ea      	b.n	d79d0 <_ZN5Print10printFloatEdh+0x9c>
  number += rounding;
   d79fa:	4622      	mov	r2, r4
   d79fc:	462b      	mov	r3, r5
   d79fe:	f001 f853 	bl	d8aa8 <__adddf3>
   d7a02:	460d      	mov	r5, r1
   d7a04:	4604      	mov	r4, r0
  unsigned long int_part = (unsigned long)number;
   d7a06:	f001 fcdd 	bl	d93c4 <__aeabi_d2uiz>
   d7a0a:	4680      	mov	r8, r0
  double remainder = number - (double)int_part;
   d7a0c:	f001 f988 	bl	d8d20 <__aeabi_ui2d>
   d7a10:	4602      	mov	r2, r0
   d7a12:	460b      	mov	r3, r1
   d7a14:	4620      	mov	r0, r4
   d7a16:	4629      	mov	r1, r5
   d7a18:	f001 f844 	bl	d8aa4 <__aeabi_dsub>
            val = n;
        }
#if __GNUC__ >= 9
#pragma GCC diagnostic pop
#endif // __GNUC__ >= 9
        return printNumber(val, base) + t;
   d7a1c:	220a      	movs	r2, #10
   d7a1e:	4604      	mov	r4, r0
   d7a20:	460d      	mov	r5, r1
   d7a22:	4630      	mov	r0, r6
   d7a24:	4641      	mov	r1, r8
   d7a26:	f7ff ff66 	bl	d78f6 <_ZN5Print11printNumberEmh>
  n += print(int_part);
   d7a2a:	4482      	add	sl, r0
  if (digits > 0) {
   d7a2c:	b127      	cbz	r7, d7a38 <_ZN5Print10printFloatEdh+0x104>
  return write(str);
   d7a2e:	4923      	ldr	r1, [pc, #140]	; (d7abc <_ZN5Print10printFloatEdh+0x188>)
   d7a30:	4630      	mov	r0, r6
   d7a32:	f7ff ff2b 	bl	d788c <_ZN5Print5writeEPKc>
    n += print(".");
   d7a36:	4482      	add	sl, r0
    remainder *= 10.0;
   d7a38:	f8df 9084 	ldr.w	r9, [pc, #132]	; d7ac0 <_ZN5Print10printFloatEdh+0x18c>
   d7a3c:	f04f 0800 	mov.w	r8, #0
  while (digits-- > 0)
   d7a40:	3f01      	subs	r7, #1
   d7a42:	b2ff      	uxtb	r7, r7
   d7a44:	2fff      	cmp	r7, #255	; 0xff
   d7a46:	d089      	beq.n	d795c <_ZN5Print10printFloatEdh+0x28>
    remainder *= 10.0;
   d7a48:	4642      	mov	r2, r8
   d7a4a:	464b      	mov	r3, r9
   d7a4c:	4620      	mov	r0, r4
   d7a4e:	4629      	mov	r1, r5
   d7a50:	f001 f9e0 	bl	d8e14 <__aeabi_dmul>
   d7a54:	4604      	mov	r4, r0
   d7a56:	460d      	mov	r5, r1
    int toPrint = int(remainder);
   d7a58:	f001 fc8c 	bl	d9374 <__aeabi_d2iz>
        if (n < 0 && base == 10) {
   d7a5c:	f1b0 0b00 	subs.w	fp, r0, #0
   d7a60:	da1a      	bge.n	d7a98 <_ZN5Print10printFloatEdh+0x164>
            t = print('-');
   d7a62:	212d      	movs	r1, #45	; 0x2d
   d7a64:	4630      	mov	r0, r6
   d7a66:	f7ff ff27 	bl	d78b8 <_ZN5Print5printEc>
            val = -n;
   d7a6a:	f1cb 0100 	rsb	r1, fp, #0
            t = print('-');
   d7a6e:	4603      	mov	r3, r0
        return printNumber(val, base) + t;
   d7a70:	220a      	movs	r2, #10
   d7a72:	4630      	mov	r0, r6
   d7a74:	9301      	str	r3, [sp, #4]
   d7a76:	f7ff ff3e 	bl	d78f6 <_ZN5Print11printNumberEmh>
   d7a7a:	9b01      	ldr	r3, [sp, #4]
   d7a7c:	4418      	add	r0, r3
    n += print(toPrint);
   d7a7e:	4482      	add	sl, r0
    remainder -= toPrint;
   d7a80:	4658      	mov	r0, fp
   d7a82:	f001 f95d 	bl	d8d40 <__aeabi_i2d>
   d7a86:	4602      	mov	r2, r0
   d7a88:	460b      	mov	r3, r1
   d7a8a:	4620      	mov	r0, r4
   d7a8c:	4629      	mov	r1, r5
   d7a8e:	f001 f809 	bl	d8aa4 <__aeabi_dsub>
   d7a92:	4604      	mov	r4, r0
   d7a94:	460d      	mov	r5, r1
  while (digits-- > 0)
   d7a96:	e7d3      	b.n	d7a40 <_ZN5Print10printFloatEdh+0x10c>
            val = n;
   d7a98:	4659      	mov	r1, fp
        size_t t = 0;
   d7a9a:	2300      	movs	r3, #0
   d7a9c:	e7e8      	b.n	d7a70 <_ZN5Print10printFloatEdh+0x13c>
   d7a9e:	bf00      	nop
   d7aa0:	000da57e 	.word	0x000da57e
   d7aa4:	7fefffff 	.word	0x7fefffff
   d7aa8:	000da582 	.word	0x000da582
   d7aac:	41efffff 	.word	0x41efffff
   d7ab0:	000da586 	.word	0x000da586
   d7ab4:	c1efffff 	.word	0xc1efffff
   d7ab8:	3fe00000 	.word	0x3fe00000
   d7abc:	000d98ef 	.word	0x000d98ef
   d7ac0:	40240000 	.word	0x40240000

000d7ac4 <_ZN5Print7printlnEdi>:
{
   d7ac4:	b538      	push	{r3, r4, r5, lr}
  return printFloat(n, digits);
   d7ac6:	b2c9      	uxtb	r1, r1
{
   d7ac8:	4605      	mov	r5, r0
  return printFloat(n, digits);
   d7aca:	f7ff ff33 	bl	d7934 <_ZN5Print10printFloatEdh>
   d7ace:	4604      	mov	r4, r0
  n += println();
   d7ad0:	4628      	mov	r0, r5
   d7ad2:	f7ff fef8 	bl	d78c6 <_ZN5Print7printlnEv>
}
   d7ad6:	4420      	add	r0, r4
   d7ad8:	bd38      	pop	{r3, r4, r5, pc}
	...

000d7adc <_GLOBAL__sub_I__ZN5spark3LogE>:
    // This handler doesn't support direct logging
}

// spark::Logger
inline spark::Logger::Logger(const char *name) :
        name_(name) {
   d7adc:	4b01      	ldr	r3, [pc, #4]	; (d7ae4 <_GLOBAL__sub_I__ZN5spark3LogE+0x8>)
   d7ade:	4a02      	ldr	r2, [pc, #8]	; (d7ae8 <_GLOBAL__sub_I__ZN5spark3LogE+0xc>)
   d7ae0:	601a      	str	r2, [r3, #0]
#if Wiring_LogConfig

// spark::
void spark::logProcessControlRequest(ctrl_request* req) {
    JSONRequestHandler::process(req);
}
   d7ae2:	4770      	bx	lr
   d7ae4:	2003e720 	.word	0x2003e720
   d7ae8:	000da58a 	.word	0x000da58a

000d7aec <_GLOBAL__sub_I_TIME_FORMAT_DEFAULT>:
            calendar_time_cache = Convert_UnixTime_To_CalendarTime(unix_time);
            unix_time_cache = unix_time;
    }
}

const char* TimeClass::format_spec = TIME_FORMAT_DEFAULT;
   d7aec:	4b02      	ldr	r3, [pc, #8]	; (d7af8 <_GLOBAL__sub_I_TIME_FORMAT_DEFAULT+0xc>)
   d7aee:	681a      	ldr	r2, [r3, #0]
   d7af0:	4b02      	ldr	r3, [pc, #8]	; (d7afc <_GLOBAL__sub_I_TIME_FORMAT_DEFAULT+0x10>)
   d7af2:	601a      	str	r2, [r3, #0]
{
  return isValid();
}


TimeClass Time;
   d7af4:	4770      	bx	lr
   d7af6:	bf00      	nop
   d7af8:	2003e0cc 	.word	0x2003e0cc
   d7afc:	2003e724 	.word	0x2003e724

000d7b00 <delay>:
    return (value - fromStart) * (toEnd - toStart) / (fromEnd - fromStart) + toStart;
}

void delay(unsigned long ms)
{
    system_delay_ms(ms, false);
   d7b00:	2100      	movs	r1, #0
   d7b02:	f7ff ba25 	b.w	d6f50 <system_delay_ms>

000d7b06 <_ZNSt14_Function_baseD1Ev>:
	{ __functor._M_access<_Functor*>() = new _Functor(std::move(__f)); }
      };

    _Function_base() : _M_manager(nullptr) { }

    ~_Function_base()
   d7b06:	b510      	push	{r4, lr}
    {
      if (_M_manager)
   d7b08:	6883      	ldr	r3, [r0, #8]
    ~_Function_base()
   d7b0a:	4604      	mov	r4, r0
      if (_M_manager)
   d7b0c:	b113      	cbz	r3, d7b14 <_ZNSt14_Function_baseD1Ev+0xe>
	_M_manager(_M_functor, _M_functor, __destroy_functor);
   d7b0e:	2203      	movs	r2, #3
   d7b10:	4601      	mov	r1, r0
   d7b12:	4798      	blx	r3
    }
   d7b14:	4620      	mov	r0, r4
   d7b16:	bd10      	pop	{r4, pc}

000d7b18 <_ZN8RGBClassD1Ev>:
#include "rgbled.h"

typedef void (raw_rgb_change_handler_t)(uint8_t, uint8_t, uint8_t);
typedef std::function<raw_rgb_change_handler_t> wiring_rgb_change_handler_t;

class RGBClass {
   d7b18:	b510      	push	{r4, lr}
   d7b1a:	4604      	mov	r4, r0
   *  @ingroup functors
   *
   *  Polymorphic function wrapper.
   */
  template<typename _Res, typename... _ArgTypes>
    class function<_Res(_ArgTypes...)>
   d7b1c:	f7ff fff3 	bl	d7b06 <_ZNSt14_Function_baseD1Ev>
   d7b20:	4620      	mov	r0, r4
   d7b22:	bd10      	pop	{r4, pc}

000d7b24 <_ZSt4swapISt9_Any_dataENSt9enable_ifIXsrSt6__and_IJSt6__not_ISt15__is_tuple_likeIT_EESt21is_move_constructibleIS5_ESt18is_move_assignableIS5_EEE5valueEvE4typeERS5_SF_>:
    inline
#if __cplusplus >= 201103L
    typename enable_if<__and_<__not_<__is_tuple_like<_Tp>>,
			      is_move_constructible<_Tp>,
			      is_move_assignable<_Tp>>::value>::type
    swap(_Tp& __a, _Tp& __b)
   d7b24:	b513      	push	{r0, r1, r4, lr}
   d7b26:	460b      	mov	r3, r1
   d7b28:	4602      	mov	r2, r0
#endif
    {
      // concept requirements
      __glibcxx_function_requires(_SGIAssignableConcept<_Tp>)

      _Tp __tmp = _GLIBCXX_MOVE(__a);
   d7b2a:	e9d0 0100 	ldrd	r0, r1, [r0]
   d7b2e:	466c      	mov	r4, sp
   d7b30:	e884 0003 	stmia.w	r4, {r0, r1}
      __a = _GLIBCXX_MOVE(__b);
   d7b34:	e893 0003 	ldmia.w	r3, {r0, r1}
   d7b38:	e882 0003 	stmia.w	r2, {r0, r1}
      __b = _GLIBCXX_MOVE(__tmp);
   d7b3c:	e894 0003 	ldmia.w	r4, {r0, r1}
   d7b40:	e883 0003 	stmia.w	r3, {r0, r1}
    }
   d7b44:	b002      	add	sp, #8
   d7b46:	bd10      	pop	{r4, pc}

000d7b48 <_GLOBAL__sub_I_RGB>:
    _Function_base() : _M_manager(nullptr) { }
   d7b48:	4803      	ldr	r0, [pc, #12]	; (d7b58 <_GLOBAL__sub_I_RGB+0x10>)
#include "spark_wiring_rgb.h"
#include "spark_wiring_interrupts.h"

#include "core_hal.h"

RGBClass RGB;
   d7b4a:	4a04      	ldr	r2, [pc, #16]	; (d7b5c <_GLOBAL__sub_I_RGB+0x14>)
   d7b4c:	4904      	ldr	r1, [pc, #16]	; (d7b60 <_GLOBAL__sub_I_RGB+0x18>)
   d7b4e:	2300      	movs	r3, #0
   d7b50:	6083      	str	r3, [r0, #8]
   d7b52:	f000 bf95 	b.w	d8a80 <__aeabi_atexit>
   d7b56:	bf00      	nop
   d7b58:	2003e728 	.word	0x2003e728
   d7b5c:	2003e134 	.word	0x2003e134
   d7b60:	000d7b19 	.word	0x000d7b19

000d7b64 <_ZZ21module_user_init_hookENUlP6_reentjmPvE_4_FUNES0_jmS1_>:

void module_user_init_hook()
{
#if HAL_PLATFORM_NEWLIB
    newlib_impure_ptr_callback([](struct _reent* r, size_t size, uint32_t version, void* ctx) -> void {
        _impure_ptr = r;
   d7b64:	4b01      	ldr	r3, [pc, #4]	; (d7b6c <_ZZ21module_user_init_hookENUlP6_reentjmPvE_4_FUNES0_jmS1_+0x8>)
   d7b66:	6018      	str	r0, [r3, #0]
    }, nullptr);
   d7b68:	4770      	bx	lr
   d7b6a:	bf00      	nop
   d7b6c:	2003e0d0 	.word	0x2003e0d0

000d7b70 <serialEventRun>:
{
   d7b70:	b508      	push	{r3, lr}
    if (serialEvent && Serial.available()>0)
   d7b72:	4b0b      	ldr	r3, [pc, #44]	; (d7ba0 <serialEventRun+0x30>)
   d7b74:	b143      	cbz	r3, d7b88 <serialEventRun+0x18>
   d7b76:	f000 fc19 	bl	d83ac <_Z16_fetch_usbserialv>
   d7b7a:	6803      	ldr	r3, [r0, #0]
   d7b7c:	691b      	ldr	r3, [r3, #16]
   d7b7e:	4798      	blx	r3
   d7b80:	2800      	cmp	r0, #0
   d7b82:	dd01      	ble.n	d7b88 <serialEventRun+0x18>
        serialEvent();
   d7b84:	f3af 8000 	nop.w
    if (serialEvent1 && Serial1.available()>0)
   d7b88:	4b06      	ldr	r3, [pc, #24]	; (d7ba4 <serialEventRun+0x34>)
   d7b8a:	b143      	cbz	r3, d7b9e <serialEventRun+0x2e>
   d7b8c:	f000 fcd8 	bl	d8540 <_Z22__fetch_global_Serial1v>
   d7b90:	6803      	ldr	r3, [r0, #0]
   d7b92:	691b      	ldr	r3, [r3, #16]
   d7b94:	4798      	blx	r3
   d7b96:	2800      	cmp	r0, #0
   d7b98:	dd01      	ble.n	d7b9e <serialEventRun+0x2e>
        serialEvent1();
   d7b9a:	f3af 8000 	nop.w
}
   d7b9e:	bd08      	pop	{r3, pc}
	...

000d7ba8 <_post_loop>:
{
   d7ba8:	b508      	push	{r3, lr}
	serialEventRun();
   d7baa:	f7ff ffe1 	bl	d7b70 <serialEventRun>
		return !timeout_fn;
	}

	static inline system_tick_t current_time()
	{
		return HAL_Timer_Get_Milli_Seconds();
   d7bae:	f7ff f8af 	bl	d6d10 <HAL_Timer_Get_Milli_Seconds>
	/**
	 * Lifesign that the application is still working normally.
	 */
	static void checkin()
	{
		last_checkin = current_time();
   d7bb2:	4b01      	ldr	r3, [pc, #4]	; (d7bb8 <_post_loop+0x10>)
   d7bb4:	6018      	str	r0, [r3, #0]
}
   d7bb6:	bd08      	pop	{r3, pc}
   d7bb8:	2003e7bc 	.word	0x2003e7bc

000d7bbc <_Z33system_initialize_user_backup_ramv>:
    memcpy(&link_global_retained_start, &link_global_retained_initial_values, len);
   d7bbc:	4802      	ldr	r0, [pc, #8]	; (d7bc8 <_Z33system_initialize_user_backup_ramv+0xc>)
   d7bbe:	4a03      	ldr	r2, [pc, #12]	; (d7bcc <_Z33system_initialize_user_backup_ramv+0x10>)
   d7bc0:	4903      	ldr	r1, [pc, #12]	; (d7bd0 <_Z33system_initialize_user_backup_ramv+0x14>)
   d7bc2:	1a12      	subs	r2, r2, r0
   d7bc4:	f001 bdc6 	b.w	d9754 <memcpy>
   d7bc8:	2003f400 	.word	0x2003f400
   d7bcc:	2003f404 	.word	0x2003f404
   d7bd0:	000da708 	.word	0x000da708

000d7bd4 <_Z27ctrl_request_custom_handlerP12ctrl_request>:
void __attribute((weak)) ctrl_request_custom_handler(ctrl_request* req) {
   d7bd4:	b507      	push	{r0, r1, r2, lr}
    system_ctrl_set_result(req, SYSTEM_ERROR_NOT_SUPPORTED, nullptr, nullptr, nullptr);
   d7bd6:	2300      	movs	r3, #0
   d7bd8:	9300      	str	r3, [sp, #0]
   d7bda:	461a      	mov	r2, r3
   d7bdc:	f06f 0177 	mvn.w	r1, #119	; 0x77
   d7be0:	f7ff f9e0 	bl	d6fa4 <system_ctrl_set_result>
}
   d7be4:	b003      	add	sp, #12
   d7be6:	f85d fb04 	ldr.w	pc, [sp], #4
	...

000d7bec <_ZL20ctrl_request_handlerP12ctrl_request>:
static void ctrl_request_handler(ctrl_request* req) {
   d7bec:	b507      	push	{r0, r1, r2, lr}
    switch (req->type) {
   d7bee:	8843      	ldrh	r3, [r0, #2]
   d7bf0:	2b0a      	cmp	r3, #10
   d7bf2:	d008      	beq.n	d7c06 <_ZL20ctrl_request_handlerP12ctrl_request+0x1a>
   d7bf4:	2b50      	cmp	r3, #80	; 0x50
   d7bf6:	d10b      	bne.n	d7c10 <_ZL20ctrl_request_handlerP12ctrl_request+0x24>
        if (log_process_ctrl_request_callback) {
   d7bf8:	4b09      	ldr	r3, [pc, #36]	; (d7c20 <_ZL20ctrl_request_handlerP12ctrl_request+0x34>)
   d7bfa:	681b      	ldr	r3, [r3, #0]
   d7bfc:	b14b      	cbz	r3, d7c12 <_ZL20ctrl_request_handlerP12ctrl_request+0x26>
}
   d7bfe:	b003      	add	sp, #12
   d7c00:	f85d eb04 	ldr.w	lr, [sp], #4
            log_process_ctrl_request_callback(req);
   d7c04:	4718      	bx	r3
        ctrl_request_custom_handler(req);
   d7c06:	f7ff ffe5 	bl	d7bd4 <_Z27ctrl_request_custom_handlerP12ctrl_request>
}
   d7c0a:	b003      	add	sp, #12
   d7c0c:	f85d fb04 	ldr.w	pc, [sp], #4
        system_ctrl_set_result(req, SYSTEM_ERROR_NOT_SUPPORTED, nullptr, nullptr, nullptr);
   d7c10:	2300      	movs	r3, #0
   d7c12:	9300      	str	r3, [sp, #0]
   d7c14:	461a      	mov	r2, r3
   d7c16:	f06f 0177 	mvn.w	r1, #119	; 0x77
   d7c1a:	f7ff f9c3 	bl	d6fa4 <system_ctrl_set_result>
}
   d7c1e:	e7f4      	b.n	d7c0a <_ZL20ctrl_request_handlerP12ctrl_request+0x1e>
   d7c20:	2003e73c 	.word	0x2003e73c

000d7c24 <module_user_init_hook>:
{
   d7c24:	b538      	push	{r3, r4, r5, lr}
#endif // HAL_PLATFORM_NEWLIB

#if HAL_PLATFORM_BACKUP_RAM
    backup_ram_was_valid_ =  __backup_sram_signature==signature;
   d7c26:	4c12      	ldr	r4, [pc, #72]	; (d7c70 <module_user_init_hook+0x4c>)
    newlib_impure_ptr_callback([](struct _reent* r, size_t size, uint32_t version, void* ctx) -> void {
   d7c28:	4812      	ldr	r0, [pc, #72]	; (d7c74 <module_user_init_hook+0x50>)
    backup_ram_was_valid_ =  __backup_sram_signature==signature;
   d7c2a:	4d13      	ldr	r5, [pc, #76]	; (d7c78 <module_user_init_hook+0x54>)
    newlib_impure_ptr_callback([](struct _reent* r, size_t size, uint32_t version, void* ctx) -> void {
   d7c2c:	2100      	movs	r1, #0
   d7c2e:	f7ff fa6d 	bl	d710c <newlib_impure_ptr_callback>
    backup_ram_was_valid_ =  __backup_sram_signature==signature;
   d7c32:	6823      	ldr	r3, [r4, #0]
   d7c34:	42ab      	cmp	r3, r5
   d7c36:	4b11      	ldr	r3, [pc, #68]	; (d7c7c <module_user_init_hook+0x58>)
   d7c38:	bf0c      	ite	eq
   d7c3a:	2201      	moveq	r2, #1
   d7c3c:	2200      	movne	r2, #0
   d7c3e:	701a      	strb	r2, [r3, #0]
    if (!backup_ram_was_valid_) {
   d7c40:	d002      	beq.n	d7c48 <module_user_init_hook+0x24>
        system_initialize_user_backup_ram();
   d7c42:	f7ff ffbb 	bl	d7bbc <_Z33system_initialize_user_backup_ramv>
        __backup_sram_signature = signature;
   d7c46:	6025      	str	r5, [r4, #0]
    }
#endif

#if HAL_PLATFORM_RNG
    // Initialize the default stdlib PRNG using hardware RNG as a seed
    const uint32_t seed = HAL_RNG_GetRandomNumber();
   d7c48:	f7ff f852 	bl	d6cf0 <HAL_RNG_GetRandomNumber>
   d7c4c:	4604      	mov	r4, r0
    srand(seed);
   d7c4e:	f001 fd97 	bl	d9780 <srand>

    // If the user defines random_seed_from_cloud, call it with a seed value
    // generated by a hardware RNG as well.
    if (random_seed_from_cloud) {
   d7c52:	4b0b      	ldr	r3, [pc, #44]	; (d7c80 <module_user_init_hook+0x5c>)
   d7c54:	b113      	cbz	r3, d7c5c <module_user_init_hook+0x38>
        random_seed_from_cloud(seed);
   d7c56:	4620      	mov	r0, r4
   d7c58:	f3af 8000 	nop.w
    }
#endif
    // Register the random_seed_from_cloud handler
    spark_set_random_seed_from_cloud_handler(&random_seed_from_cloud, nullptr);
   d7c5c:	2100      	movs	r1, #0
   d7c5e:	4808      	ldr	r0, [pc, #32]	; (d7c80 <module_user_init_hook+0x5c>)
   d7c60:	f7ff fa24 	bl	d70ac <spark_set_random_seed_from_cloud_handler>

    // Register application handler for the control requests
    system_ctrl_set_app_request_handler(ctrl_request_handler, nullptr);
}
   d7c64:	e8bd 4038 	ldmia.w	sp!, {r3, r4, r5, lr}
    system_ctrl_set_app_request_handler(ctrl_request_handler, nullptr);
   d7c68:	4806      	ldr	r0, [pc, #24]	; (d7c84 <module_user_init_hook+0x60>)
   d7c6a:	2100      	movs	r1, #0
   d7c6c:	f7ff b990 	b.w	d6f90 <system_ctrl_set_app_request_handler>
   d7c70:	2003f400 	.word	0x2003f400
   d7c74:	000d7b65 	.word	0x000d7b65
   d7c78:	9a271c1e 	.word	0x9a271c1e
   d7c7c:	2003e738 	.word	0x2003e738
   d7c80:	00000000 	.word	0x00000000
   d7c84:	000d7bed 	.word	0x000d7bed

000d7c88 <_ZNSt15_Sp_counted_ptrIPN8particle6detail10FutureImplIbNS1_13FutureContextEEELN9__gnu_cxx12_Lock_policyE0EED1Ev>:
    class _Sp_counted_ptr final : public _Sp_counted_base<_Lp>
   d7c88:	4770      	bx	lr

000d7c8a <_ZNSt15_Sp_counted_ptrIPN8particle6detail10FutureImplIbNS1_13FutureContextEEELN9__gnu_cxx12_Lock_policyE0EE14_M_get_deleterERKSt9type_info>:
      { return nullptr; }
   d7c8a:	2000      	movs	r0, #0
   d7c8c:	4770      	bx	lr

000d7c8e <_ZNSt15_Sp_counted_ptrIPN8particle6detail10FutureImplIbNS1_13FutureContextEEELN9__gnu_cxx12_Lock_policyE0EED0Ev>:
    class _Sp_counted_ptr final : public _Sp_counted_base<_Lp>
   d7c8e:	b510      	push	{r4, lr}
   d7c90:	2110      	movs	r1, #16
   d7c92:	4604      	mov	r4, r0
   d7c94:	f000 fef9 	bl	d8a8a <_ZdlPvj>
   d7c98:	4620      	mov	r0, r4
   d7c9a:	bd10      	pop	{r4, pc}

000d7c9c <_ZNSt15_Sp_counted_ptrIPN8particle6detail10FutureImplIbNS1_13FutureContextEEELN9__gnu_cxx12_Lock_policyE0EE10_M_destroyEv>:
      _M_destroy() noexcept
   d7c9c:	b508      	push	{r3, lr}
      { delete this; }
   d7c9e:	f7ff fff6 	bl	d7c8e <_ZNSt15_Sp_counted_ptrIPN8particle6detail10FutureImplIbNS1_13FutureContextEEELN9__gnu_cxx12_Lock_policyE0EED0Ev>
   d7ca2:	bd08      	pop	{r3, pc}

000d7ca4 <_ZN8particle5ErrorC1EOS0_>:

inline particle::Error::Error(const Error& error) :
        Error(error.type_, error.msg_) {
}

inline particle::Error::Error(Error&& error) :
   d7ca4:	b530      	push	{r4, r5, lr}
        type_(type) {
   d7ca6:	2200      	movs	r2, #0
   d7ca8:	f64f 749c 	movw	r4, #65436	; 0xff9c
   d7cac:	6002      	str	r2, [r0, #0]
   d7cae:	8084      	strh	r4, [r0, #4]
      __a = _GLIBCXX_MOVE(__b);
   d7cb0:	888d      	ldrh	r5, [r1, #4]
      __b = _GLIBCXX_MOVE(__tmp);
   d7cb2:	808c      	strh	r4, [r1, #4]
      __a = _GLIBCXX_MOVE(__b);
   d7cb4:	680c      	ldr	r4, [r1, #0]
   d7cb6:	8085      	strh	r5, [r0, #4]
   d7cb8:	6004      	str	r4, [r0, #0]
      __b = _GLIBCXX_MOVE(__tmp);
   d7cba:	600a      	str	r2, [r1, #0]
        Error() {
    swap(*this, error);
}
   d7cbc:	bd30      	pop	{r4, r5, pc}

000d7cbe <_ZN8particle5ErrorD1Ev>:

inline particle::Error::~Error() {
   d7cbe:	b510      	push	{r4, lr}
   d7cc0:	4604      	mov	r4, r0
    free((void*)msg_);
   d7cc2:	6800      	ldr	r0, [r0, #0]
   d7cc4:	f7ff fa02 	bl	d70cc <free>
}
   d7cc8:	4620      	mov	r0, r4
   d7cca:	bd10      	pop	{r4, pc}

000d7ccc <_ZNSt15_Sp_counted_ptrIPN8particle6detail10FutureImplIbNS1_13FutureContextEEELN9__gnu_cxx12_Lock_policyE0EE10_M_disposeEv>:
      _M_dispose() noexcept
   d7ccc:	b538      	push	{r3, r4, r5, lr}
      { delete _M_ptr; }
   d7cce:	68c4      	ldr	r4, [r0, #12]
   d7cd0:	b1f4      	cbz	r4, d7d10 <_ZNSt15_Sp_counted_ptrIPN8particle6detail10FutureImplIbNS1_13FutureContextEEELN9__gnu_cxx12_Lock_policyE0EE10_M_disposeEv+0x44>
      _Tp
      load(memory_order __m = memory_order_seq_cst) const noexcept
      {
	alignas(_Tp) unsigned char __buf[sizeof(_Tp)];
	_Tp* __ptr = reinterpret_cast<_Tp*>(__buf);
	__atomic_load(std::__addressof(_M_i), __ptr, int(__m));
   d7cd2:	7823      	ldrb	r3, [r4, #0]
    ~FutureImpl() {
        // Call destructor of the appropriate unnamed enum's field
        const State s = this->state();
        if (s == State::SUCCEEDED) {
            result_.~ResultT();
        } else if (s == State::FAILED) {
   d7cd4:	2b02      	cmp	r3, #2
   d7cd6:	d103      	bne.n	d7ce0 <_ZNSt15_Sp_counted_ptrIPN8particle6detail10FutureImplIbNS1_13FutureContextEEELN9__gnu_cxx12_Lock_policyE0EE10_M_disposeEv+0x14>
            error_.~Error();
   d7cd8:	f104 000c 	add.w	r0, r4, #12
   d7cdc:	f7ff ffef 	bl	d7cbe <_ZN8particle5ErrorD1Ev>
      {
	memory_order __b = __m & __memory_order_mask;
	__glibcxx_assert(__b != memory_order_release);
	__glibcxx_assert(__b != memory_order_acq_rel);

	return __atomic_load_n(&_M_p, int(__m));
   d7ce0:	6865      	ldr	r5, [r4, #4]
        delete onSuccess_.load(std::memory_order_relaxed);
   d7ce2:	b135      	cbz	r5, d7cf2 <_ZNSt15_Sp_counted_ptrIPN8particle6detail10FutureImplIbNS1_13FutureContextEEELN9__gnu_cxx12_Lock_policyE0EE10_M_disposeEv+0x26>
    class function<_Res(_ArgTypes...)>
   d7ce4:	4628      	mov	r0, r5
   d7ce6:	f7ff ff0e 	bl	d7b06 <_ZNSt14_Function_baseD1Ev>
   d7cea:	2110      	movs	r1, #16
   d7cec:	4628      	mov	r0, r5
   d7cee:	f000 fecc 	bl	d8a8a <_ZdlPvj>
   d7cf2:	68a5      	ldr	r5, [r4, #8]
        delete onError_.load(std::memory_order_relaxed);
   d7cf4:	b135      	cbz	r5, d7d04 <_ZNSt15_Sp_counted_ptrIPN8particle6detail10FutureImplIbNS1_13FutureContextEEELN9__gnu_cxx12_Lock_policyE0EE10_M_disposeEv+0x38>
   d7cf6:	4628      	mov	r0, r5
   d7cf8:	f7ff ff05 	bl	d7b06 <_ZNSt14_Function_baseD1Ev>
   d7cfc:	2110      	movs	r1, #16
   d7cfe:	4628      	mov	r0, r5
   d7d00:	f000 fec3 	bl	d8a8a <_ZdlPvj>
   d7d04:	4620      	mov	r0, r4
   d7d06:	2114      	movs	r1, #20
   d7d08:	e8bd 4038 	ldmia.w	sp!, {r3, r4, r5, lr}
   d7d0c:	f000 bebd 	b.w	d8a8a <_ZdlPvj>
   d7d10:	bd38      	pop	{r3, r4, r5, pc}

000d7d12 <_ZN10CloudClass22call_raw_user_functionEPvPKcS0_>:
{
    return CloudDisconnectOptions(options->flags, options->timeout, options->graceful);
}

int CloudClass::call_raw_user_function(void* data, const char* param, void* reserved)
{
   d7d12:	b510      	push	{r4, lr}
   d7d14:	b088      	sub	sp, #32
   d7d16:	4604      	mov	r4, r0
    user_function_int_str_t* fn = (user_function_int_str_t*)(data);
    String p(param);
   d7d18:	4668      	mov	r0, sp
   d7d1a:	f7ff fc98 	bl	d764e <_ZN6StringC1EPKc>
    return (*fn)(p);
   d7d1e:	4669      	mov	r1, sp
   d7d20:	a804      	add	r0, sp, #16
   d7d22:	f7ff fcd4 	bl	d76ce <_ZN6StringC1ERKS_>
   d7d26:	a804      	add	r0, sp, #16
   d7d28:	47a0      	blx	r4
   d7d2a:	4604      	mov	r4, r0
   d7d2c:	a804      	add	r0, sp, #16
   d7d2e:	f7ff fc43 	bl	d75b8 <_ZN6StringD1Ev>
    String p(param);
   d7d32:	4668      	mov	r0, sp
   d7d34:	f7ff fc40 	bl	d75b8 <_ZN6StringD1Ev>
}
   d7d38:	4620      	mov	r0, r4
   d7d3a:	b008      	add	sp, #32
   d7d3c:	bd10      	pop	{r4, pc}

000d7d3e <_ZN10CloudClass17register_functionEPFiPvPKcS0_ES0_S2_>:
    wiring_event_handler_t* fn = (wiring_event_handler_t*)(handler_data);
    (*fn)(event_name, data);
}

bool CloudClass::register_function(cloud_function_t fn, void* data, const char* funcKey)
{
   d7d3e:	b51f      	push	{r0, r1, r2, r3, r4, lr}
    const char *funcKey;
    cloud_function_t fn;
    void* data;

     cloud_function_descriptor() {
         memset(this, 0, sizeof(*this));
   d7d40:	2300      	movs	r3, #0
    cloud_function_descriptor desc = {};
    desc.size = sizeof(desc);
    desc.fn = fn;
    desc.data = (void*)data;
   d7d42:	e9cd 0102 	strd	r0, r1, [sp, #8]
    desc.funcKey = funcKey;
   d7d46:	9201      	str	r2, [sp, #4]
         size = sizeof(*this);
   d7d48:	2410      	movs	r4, #16
    return spark_function(NULL, (user_function_int_str_t*)&desc, NULL);
   d7d4a:	461a      	mov	r2, r3
   d7d4c:	4669      	mov	r1, sp
   d7d4e:	4618      	mov	r0, r3
         memset(this, 0, sizeof(*this));
   d7d50:	f8ad 3002 	strh.w	r3, [sp, #2]
         size = sizeof(*this);
   d7d54:	f8ad 4000 	strh.w	r4, [sp]
   d7d58:	f7ff f990 	bl	d707c <spark_function>
}
   d7d5c:	b004      	add	sp, #16
   d7d5e:	bd10      	pop	{r4, pc}

000d7d60 <_ZN8particle11PromiseBaseIbNS_6detail13FutureContextEE11fromDataPtrEPv>:
        // TODO: Use custom reference counting object to avoid unnecessary memory allocation
        return new detail::FutureImplPtr<ResultT, ContextT>(p_);
    }

    // Unwraps promise from an object pointer created via dataPtr() method
    static Promise<ResultT, ContextT> fromDataPtr(void* data) {
   d7d60:	b573      	push	{r0, r1, r4, r5, r6, lr}
	__shared_ptr(const __shared_ptr<_Yp, _Lp>& __r,
		     element_type* __p) noexcept
	: _M_ptr(__p), _M_refcount(__r._M_refcount) // never throws
	{ }

      __shared_ptr(const __shared_ptr&) noexcept = default;
   d7d62:	460e      	mov	r6, r1
   d7d64:	4604      	mov	r4, r0
   d7d66:	f856 3b04 	ldr.w	r3, [r6], #4
   d7d6a:	9300      	str	r3, [sp, #0]
   d7d6c:	460d      	mov	r5, r1
   d7d6e:	a801      	add	r0, sp, #4
   d7d70:	4631      	mov	r1, r6
   d7d72:	f7ff fd4e 	bl	d7812 <_ZNSt14__shared_countILN9__gnu_cxx12_Lock_policyE0EEC1ERKS2_>
	_Sp_counted_base<_Lp>* __tmp = __r._M_pi;
   d7d76:	9a01      	ldr	r2, [sp, #4]
	__shared_ptr(const __shared_ptr<_Yp, _Lp>& __r) noexcept
	: _M_ptr(__r._M_ptr), _M_refcount(__r._M_refcount)
	{ }

      __shared_ptr(__shared_ptr&& __r) noexcept
      : _M_ptr(__r._M_ptr), _M_refcount()
   d7d78:	9b00      	ldr	r3, [sp, #0]
	_M_pi = __tmp;
   d7d7a:	6062      	str	r2, [r4, #4]
      : _M_ptr(__r._M_ptr), _M_refcount()
   d7d7c:	6023      	str	r3, [r4, #0]
      ~__shared_ptr() = default;
   d7d7e:	a801      	add	r0, sp, #4
	__r._M_pi = _M_pi;
   d7d80:	2300      	movs	r3, #0
   d7d82:	9301      	str	r3, [sp, #4]
      {
	_M_refcount._M_swap(__r._M_refcount);
	__r._M_ptr = 0;
   d7d84:	9300      	str	r3, [sp, #0]
      ~__shared_ptr() = default;
   d7d86:	f7ff fd4b 	bl	d7820 <_ZNSt14__shared_countILN9__gnu_cxx12_Lock_policyE0EED1Ev>
   d7d8a:	4630      	mov	r0, r6
   d7d8c:	f7ff fd48 	bl	d7820 <_ZNSt14__shared_countILN9__gnu_cxx12_Lock_policyE0EED1Ev>
        auto d = static_cast<detail::FutureImplPtr<ResultT, ContextT>*>(data);
        const Promise<ResultT, ContextT> p(*d);
        delete d;
   d7d90:	4628      	mov	r0, r5
   d7d92:	2108      	movs	r1, #8
   d7d94:	f000 fe79 	bl	d8a8a <_ZdlPvj>
        return p;
    }
   d7d98:	4620      	mov	r0, r4
   d7d9a:	b002      	add	sp, #8
   d7d9c:	bd70      	pop	{r4, r5, r6, pc}

000d7d9e <_ZNKSt8functionIFvRKN8particle5ErrorEEEclES3_>:
  template<typename _Res, typename... _ArgTypes>
    _Res
    function<_Res(_ArgTypes...)>::
    operator()(_ArgTypes... __args) const
    {
      if (_M_empty())
   d7d9e:	6882      	ldr	r2, [r0, #8]
    function<_Res(_ArgTypes...)>::
   d7da0:	b510      	push	{r4, lr}
      if (_M_empty())
   d7da2:	b90a      	cbnz	r2, d7da8 <_ZNKSt8functionIFvRKN8particle5ErrorEEEclES3_+0xa>
	__throw_bad_function_call();
   d7da4:	f000 fe77 	bl	d8a96 <_ZSt25__throw_bad_function_callv>
      return _M_invoker(_M_functor, std::forward<_ArgTypes>(__args)...);
    }
   d7da8:	e8bd 4010 	ldmia.w	sp!, {r4, lr}
      return _M_invoker(_M_functor, std::forward<_ArgTypes>(__args)...);
   d7dac:	68c3      	ldr	r3, [r0, #12]
   d7dae:	4718      	bx	r3

000d7db0 <_ZNSt17_Function_handlerIFvvESt5_BindIFSt8functionIFvRKN8particle5ErrorEEES4_EEE9_M_invokeERKSt9_Any_data>:
      _M_invoke(const _Any_data& __functor, _ArgTypes&&... __args)
   d7db0:	b508      	push	{r3, lr}
	    return __source._M_access<_Functor*>();
   d7db2:	6800      	ldr	r0, [r0, #0]
    { return static_cast<_Up&&>(__t); }

  template<typename _Res, typename _Fn, typename... _Args>
    constexpr _Res
    __invoke_impl(__invoke_other, _Fn&& __f, _Args&&... __args)
    { return std::forward<_Fn>(__f)(std::forward<_Args>(__args)...); }
   d7db4:	f100 0110 	add.w	r1, r0, #16
   d7db8:	f7ff fff1 	bl	d7d9e <_ZNKSt8functionIFvRKN8particle5ErrorEEEclES3_>
      }
   d7dbc:	bd08      	pop	{r3, pc}

000d7dbe <_ZNKSt8functionIFvRKbEEclES1_>:
      if (_M_empty())
   d7dbe:	6882      	ldr	r2, [r0, #8]
    function<_Res(_ArgTypes...)>::
   d7dc0:	b510      	push	{r4, lr}
      if (_M_empty())
   d7dc2:	b90a      	cbnz	r2, d7dc8 <_ZNKSt8functionIFvRKbEEclES1_+0xa>
	__throw_bad_function_call();
   d7dc4:	f000 fe67 	bl	d8a96 <_ZSt25__throw_bad_function_callv>
    }
   d7dc8:	e8bd 4010 	ldmia.w	sp!, {r4, lr}
      return _M_invoker(_M_functor, std::forward<_ArgTypes>(__args)...);
   d7dcc:	68c3      	ldr	r3, [r0, #12]
   d7dce:	4718      	bx	r3

000d7dd0 <_ZNSt17_Function_handlerIFvvESt5_BindIFSt8functionIFvRKbEEbEEE9_M_invokeERKSt9_Any_data>:
      _M_invoke(const _Any_data& __functor, _ArgTypes&&... __args)
   d7dd0:	b508      	push	{r3, lr}
	    return __source._M_access<_Functor*>();
   d7dd2:	6800      	ldr	r0, [r0, #0]
   d7dd4:	f100 0110 	add.w	r1, r0, #16
   d7dd8:	f7ff fff1 	bl	d7dbe <_ZNKSt8functionIFvRKbEEclES1_>
      }
   d7ddc:	bd08      	pop	{r3, pc}
	...

000d7de0 <_ZNSt14__shared_countILN9__gnu_cxx12_Lock_policyE0EEC1IPN8particle6detail10FutureImplIbNS5_13FutureContextEEEEET_>:
	__shared_count(_Ptr __p) : _M_pi(0)
   d7de0:	b538      	push	{r3, r4, r5, lr}
   d7de2:	2300      	movs	r3, #0
   d7de4:	4604      	mov	r4, r0
   d7de6:	6003      	str	r3, [r0, #0]
	      _M_pi = new _Sp_counted_ptr<_Ptr, _Lp>(__p);
   d7de8:	2010      	movs	r0, #16
	__shared_count(_Ptr __p) : _M_pi(0)
   d7dea:	460d      	mov	r5, r1
	      _M_pi = new _Sp_counted_ptr<_Ptr, _Lp>(__p);
   d7dec:	f7fc f953 	bl	d4096 <_Znwj>
   d7df0:	b128      	cbz	r0, d7dfe <_ZNSt14__shared_countILN9__gnu_cxx12_Lock_policyE0EEC1IPN8particle6detail10FutureImplIbNS5_13FutureContextEEEEET_+0x1e>
      : _M_use_count(1), _M_weak_count(1) { }
   d7df2:	2301      	movs	r3, #1
   d7df4:	e9c0 3301 	strd	r3, r3, [r0, #4]
      : _M_ptr(__p) { }
   d7df8:	4b02      	ldr	r3, [pc, #8]	; (d7e04 <_ZNSt14__shared_countILN9__gnu_cxx12_Lock_policyE0EEC1IPN8particle6detail10FutureImplIbNS5_13FutureContextEEEEET_+0x24>)
   d7dfa:	6003      	str	r3, [r0, #0]
   d7dfc:	60c5      	str	r5, [r0, #12]
	      _M_pi = new _Sp_counted_ptr<_Ptr, _Lp>(__p);
   d7dfe:	6020      	str	r0, [r4, #0]
	}
   d7e00:	4620      	mov	r0, r4
   d7e02:	bd38      	pop	{r3, r4, r5, pc}
   d7e04:	000da5b4 	.word	0x000da5b4

000d7e08 <_ZNSt8functionIFvRKN8particle5ErrorEEEC1ERKS5_>:
    function<_Res(_ArgTypes...)>::
   d7e08:	b538      	push	{r3, r4, r5, lr}
    _Function_base() : _M_manager(nullptr) { }
   d7e0a:	2300      	movs	r3, #0
   d7e0c:	6083      	str	r3, [r0, #8]
      { return !_M_empty(); }
   d7e0e:	688b      	ldr	r3, [r1, #8]
    function<_Res(_ArgTypes...)>::
   d7e10:	4604      	mov	r4, r0
   d7e12:	460d      	mov	r5, r1
      if (static_cast<bool>(__x))
   d7e14:	b12b      	cbz	r3, d7e22 <_ZNSt8functionIFvRKN8particle5ErrorEEEC1ERKS5_+0x1a>
	  __x._M_manager(_M_functor, __x._M_functor, __clone_functor);
   d7e16:	2202      	movs	r2, #2
   d7e18:	4798      	blx	r3
	  _M_invoker = __x._M_invoker;
   d7e1a:	68eb      	ldr	r3, [r5, #12]
   d7e1c:	60e3      	str	r3, [r4, #12]
	  _M_manager = __x._M_manager;
   d7e1e:	68ab      	ldr	r3, [r5, #8]
   d7e20:	60a3      	str	r3, [r4, #8]
    }
   d7e22:	4620      	mov	r0, r4
   d7e24:	bd38      	pop	{r3, r4, r5, pc}
	...

000d7e28 <_ZN8particle11PromiseBaseIbNS_6detail13FutureContextEE8setErrorENS_5ErrorE>:
    void setError(Error error) {
   d7e28:	b5f0      	push	{r4, r5, r6, r7, lr}
   d7e2a:	b089      	sub	sp, #36	; 0x24
      { return static_cast<const __shared_ptr<_Tp, _Lp>*>(this)->get(); }
   d7e2c:	6804      	ldr	r4, [r0, #0]
        p_->setError(std::move(error));
   d7e2e:	4668      	mov	r0, sp
   d7e30:	f7ff ff38 	bl	d7ca4 <_ZN8particle5ErrorC1EOS0_>

      bool
      compare_exchange_strong(_Tp& __e, _Tp __i, memory_order __s,
			      memory_order __f) noexcept
      {
	return __atomic_compare_exchange(std::__addressof(_M_i),
   d7e34:	f04f 0302 	mov.w	r3, #2
   d7e38:	e8d4 2f4f 	ldrexb	r2, [r4]
   d7e3c:	2a00      	cmp	r2, #0
   d7e3e:	d103      	bne.n	d7e48 <_ZN8particle11PromiseBaseIbNS_6detail13FutureContextEE8setErrorENS_5ErrorE+0x20>
   d7e40:	e8c4 3f41 	strexb	r1, r3, [r4]
   d7e44:	2900      	cmp	r1, #0
   d7e46:	d1f7      	bne.n	d7e38 <_ZN8particle11PromiseBaseIbNS_6detail13FutureContextEE8setErrorENS_5ErrorE+0x10>
        if (this->changeState(State::FAILED)) {
   d7e48:	d125      	bne.n	d7e96 <_ZN8particle11PromiseBaseIbNS_6detail13FutureContextEE8setErrorENS_5ErrorE+0x6e>
            new(&error_) Error(std::move(error));
   d7e4a:	f104 050c 	add.w	r5, r4, #12
   d7e4e:	4669      	mov	r1, sp
   d7e50:	4628      	mov	r0, r5
   d7e52:	f7ff ff27 	bl	d7ca4 <_ZN8particle5ErrorC1EOS0_>
	__atomic_store_n(&_M_i, __i, int(__m));
   d7e56:	f3bf 8f5b 	dmb	ish
   d7e5a:	2301      	movs	r3, #1
   d7e5c:	7063      	strb	r3, [r4, #1]

      _GLIBCXX_ALWAYS_INLINE __pointer_type
      exchange(__pointer_type __p,
	       memory_order __m = memory_order_seq_cst) noexcept
      {
	return __atomic_exchange_n(&_M_p, __p, int(__m));
   d7e5e:	2000      	movs	r0, #0
   d7e60:	f104 0308 	add.w	r3, r4, #8
   d7e64:	f3bf 8f5b 	dmb	ish
   d7e68:	e853 6f00 	ldrex	r6, [r3]
   d7e6c:	e843 0200 	strex	r2, r0, [r3]
   d7e70:	2a00      	cmp	r2, #0
   d7e72:	d1f9      	bne.n	d7e68 <_ZN8particle11PromiseBaseIbNS_6detail13FutureContextEE8setErrorENS_5ErrorE+0x40>
   d7e74:	f3bf 8f5b 	dmb	ish
        if (callbackPtr) {
   d7e78:	b16e      	cbz	r6, d7e96 <_ZN8particle11PromiseBaseIbNS_6detail13FutureContextEE8setErrorENS_5ErrorE+0x6e>
        return (application_thread_current(nullptr) != 0);
   d7e7a:	f7ff f879 	bl	d6f70 <application_thread_current>
        if (ContextT::isApplicationThreadCurrent()) {
   d7e7e:	b178      	cbz	r0, d7ea0 <_ZN8particle11PromiseBaseIbNS_6detail13FutureContextEE8setErrorENS_5ErrorE+0x78>
            callback(std::forward<ArgsT>(args)...); // Synchronous call
   d7e80:	4629      	mov	r1, r5
   d7e82:	4630      	mov	r0, r6
   d7e84:	f7ff ff8b 	bl	d7d9e <_ZNKSt8functionIFvRKN8particle5ErrorEEEclES3_>
    class function<_Res(_ArgTypes...)>
   d7e88:	4630      	mov	r0, r6
   d7e8a:	f7ff fe3c 	bl	d7b06 <_ZNSt14_Function_baseD1Ev>
            delete callbackPtr;
   d7e8e:	2110      	movs	r1, #16
   d7e90:	4630      	mov	r0, r6
   d7e92:	f000 fdfa 	bl	d8a8a <_ZdlPvj>
        p_->setError(std::move(error));
   d7e96:	4668      	mov	r0, sp
   d7e98:	f7ff ff11 	bl	d7cbe <_ZN8particle5ErrorD1Ev>
    }
   d7e9c:	b009      	add	sp, #36	; 0x24
   d7e9e:	bdf0      	pop	{r4, r5, r6, r7, pc}
	  typename __cv_quals<_Bound_args>::type...>;

     public:
      template<typename... _Args>
	explicit _Bind(const _Functor& __f, _Args&&... __args)
	: _M_f(__f), _M_bound_args(std::forward<_Args>(__args)...)
   d7ea0:	4631      	mov	r1, r6
   d7ea2:	a802      	add	r0, sp, #8
   d7ea4:	f7ff ffb0 	bl	d7e08 <_ZNSt8functionIFvRKN8particle5ErrorEEEC1ERKS5_>
        Error(error.type_, error.msg_) {
   d7ea8:	68e0      	ldr	r0, [r4, #12]
   d7eaa:	f9b4 5010 	ldrsh.w	r5, [r4, #16]
        msg_(msg ? (const char*)strdup(msg) : nullptr),
   d7eae:	b108      	cbz	r0, d7eb4 <_ZN8particle11PromiseBaseIbNS_6detail13FutureContextEE8setErrorENS_5ErrorE+0x8c>
   d7eb0:	f001 fc9c 	bl	d97ec <strdup>
        type_(type) {
   d7eb4:	9006      	str	r0, [sp, #24]
            auto callbackPtr = new std::function<void()>(std::bind(callback, std::forward<ArgsT>(args)...));
   d7eb6:	2010      	movs	r0, #16
   d7eb8:	f8ad 501c 	strh.w	r5, [sp, #28]
   d7ebc:	f7fc f8eb 	bl	d4096 <_Znwj>
   d7ec0:	4605      	mov	r5, r0
   d7ec2:	b1e8      	cbz	r0, d7f00 <_ZN8particle11PromiseBaseIbNS_6detail13FutureContextEE8setErrorENS_5ErrorE+0xd8>
    _Function_base() : _M_manager(nullptr) { }
   d7ec4:	2700      	movs	r7, #0
   d7ec6:	6087      	str	r7, [r0, #8]
	{ __functor._M_access<_Functor*>() = new _Functor(std::move(__f)); }
   d7ec8:	2018      	movs	r0, #24
   d7eca:	f7fc f8e4 	bl	d4096 <_Znwj>
   d7ece:	4604      	mov	r4, r0
   d7ed0:	b188      	cbz	r0, d7ef6 <_ZN8particle11PromiseBaseIbNS_6detail13FutureContextEE8setErrorENS_5ErrorE+0xce>
	std::swap(_M_functor, __x._M_functor);
   d7ed2:	4601      	mov	r1, r0
    _Function_base() : _M_manager(nullptr) { }
   d7ed4:	6087      	str	r7, [r0, #8]
	std::swap(_M_functor, __x._M_functor);
   d7ed6:	a802      	add	r0, sp, #8
   d7ed8:	f7ff fe24 	bl	d7b24 <_ZSt4swapISt9_Any_dataENSt9enable_ifIXsrSt6__and_IJSt6__not_ISt15__is_tuple_likeIT_EESt21is_move_constructibleIS5_ESt18is_move_assignableIS5_EEE5valueEvE4typeERS5_SF_>
      _Tp __tmp = _GLIBCXX_MOVE(__a);
   d7edc:	9b04      	ldr	r3, [sp, #16]
      __a = _GLIBCXX_MOVE(__b);
   d7ede:	68a2      	ldr	r2, [r4, #8]
      __b = _GLIBCXX_MOVE(__tmp);
   d7ee0:	60a3      	str	r3, [r4, #8]
      _Tp __tmp = _GLIBCXX_MOVE(__a);
   d7ee2:	9b05      	ldr	r3, [sp, #20]
      __a = _GLIBCXX_MOVE(__b);
   d7ee4:	9204      	str	r2, [sp, #16]
      constexpr _Head_base(const _Head_base&) = default;
      constexpr _Head_base(_Head_base&&) = default;

      template<typename _UHead>
        constexpr _Head_base(_UHead&& __h)
	: _M_head_impl(std::forward<_UHead>(__h)) { }
   d7ee6:	a906      	add	r1, sp, #24
   d7ee8:	68e2      	ldr	r2, [r4, #12]
      __b = _GLIBCXX_MOVE(__tmp);
   d7eea:	60e3      	str	r3, [r4, #12]
   d7eec:	f104 0010 	add.w	r0, r4, #16
      __a = _GLIBCXX_MOVE(__b);
   d7ef0:	9205      	str	r2, [sp, #20]
   d7ef2:	f7ff fed7 	bl	d7ca4 <_ZN8particle5ErrorC1EOS0_>
	    _M_invoker = &_My_handler::_M_invoke;
   d7ef6:	4b08      	ldr	r3, [pc, #32]	; (d7f18 <_ZN8particle11PromiseBaseIbNS_6detail13FutureContextEE8setErrorENS_5ErrorE+0xf0>)
   d7ef8:	60eb      	str	r3, [r5, #12]
	    _M_manager = &_My_handler::_M_manager;
   d7efa:	4b08      	ldr	r3, [pc, #32]	; (d7f1c <_ZN8particle11PromiseBaseIbNS_6detail13FutureContextEE8setErrorENS_5ErrorE+0xf4>)
	{ __functor._M_access<_Functor*>() = new _Functor(std::move(__f)); }
   d7efc:	602c      	str	r4, [r5, #0]
	    _M_manager = &_My_handler::_M_manager;
   d7efe:	60ab      	str	r3, [r5, #8]
    struct _Head_base<_Idx, _Head, false>
   d7f00:	a806      	add	r0, sp, #24
   d7f02:	f7ff fedc 	bl	d7cbe <_ZN8particle5ErrorD1Ev>
    class function<_Res(_ArgTypes...)>
   d7f06:	a802      	add	r0, sp, #8
   d7f08:	f7ff fdfd 	bl	d7b06 <_ZNSt14_Function_baseD1Ev>
        return (application_thread_invoke(callback, data, nullptr) == 0);
   d7f0c:	2200      	movs	r2, #0
   d7f0e:	4629      	mov	r1, r5
   d7f10:	4803      	ldr	r0, [pc, #12]	; (d7f20 <_ZN8particle11PromiseBaseIbNS_6detail13FutureContextEE8setErrorENS_5ErrorE+0xf8>)
   d7f12:	f7ff f835 	bl	d6f80 <application_thread_invoke>
   d7f16:	e7b7      	b.n	d7e88 <_ZN8particle11PromiseBaseIbNS_6detail13FutureContextEE8setErrorENS_5ErrorE+0x60>
   d7f18:	000d7db1 	.word	0x000d7db1
   d7f1c:	000d8049 	.word	0x000d8049
   d7f20:	000d85c9 	.word	0x000d85c9

000d7f24 <_ZN10CloudClass13publish_eventEPKcS1_iN8particle5FlagsI15PublishFlagTypehEE>:

Future<bool> CloudClass::publish_event(const char *eventName, const char *eventData, int ttl, PublishFlags flags) {
   d7f24:	e92d 47f0 	stmdb	sp!, {r4, r5, r6, r7, r8, r9, sl, lr}
   d7f28:	b08a      	sub	sp, #40	; 0x28
   d7f2a:	4605      	mov	r5, r0
   d7f2c:	f89d 9048 	ldrb.w	r9, [sp, #72]	; 0x48
   d7f30:	460c      	mov	r4, r1
   d7f32:	4617      	mov	r7, r2
   d7f34:	4698      	mov	r8, r3
    static void sleep(Spark_Sleep_TypeDef sleepMode, long seconds=0) __attribute__ ((deprecated("Please use System.sleep() instead.")))
    { SystemClass::sleep(sleepMode, seconds); }
    static void sleep(uint16_t wakeUpPin, InterruptMode edgeTriggerMode, long seconds=0) __attribute__ ((deprecated("Please use System.sleep() instead.")))
    { SystemClass::sleep(wakeUpPin, edgeTriggerMode, seconds); }

    static bool connected(void) { return spark_cloud_flag_connected(); }
   d7f36:	f7ff f8a9 	bl	d708c <spark_cloud_flag_connected>
   d7f3a:	ae07      	add	r6, sp, #28
    if (!connected()) {
   d7f3c:	4682      	mov	sl, r0
   d7f3e:	bb38      	cbnz	r0, d7f90 <_ZN10CloudClass13publish_eventEPKcS1_iN8particle5FlagsI15PublishFlagTypehEE+0x6c>
        type_(type) {
   d7f40:	f64f 732e 	movw	r3, #65326	; 0xff2e
   d7f44:	9005      	str	r0, [sp, #20]
    typedef typename detail::FutureImpl<ResultT, ContextT>::OnSuccessCallback OnSuccessCallback;
    typedef typename detail::FutureImpl<ResultT, ContextT>::OnErrorCallback OnErrorCallback;

    // Construct failed future
    explicit FutureBase(Error error) :
            p_(new detail::FutureImpl<ResultT, ContextT>(std::move(error))) {
   d7f46:	a905      	add	r1, sp, #20
   d7f48:	4630      	mov	r0, r6
   d7f4a:	f8ad 3018 	strh.w	r3, [sp, #24]
   d7f4e:	f7ff fea9 	bl	d7ca4 <_ZN8particle5ErrorC1EOS0_>
   d7f52:	2014      	movs	r0, #20
   d7f54:	f7fc f89f 	bl	d4096 <_Znwj>
   d7f58:	4604      	mov	r4, r0
   d7f5a:	b148      	cbz	r0, d7f70 <_ZN10CloudClass13publish_eventEPKcS1_iN8particle5FlagsI15PublishFlagTypehEE+0x4c>
      constexpr atomic(_Tp __i) noexcept : _M_i(__i) { }
   d7f5c:	2302      	movs	r3, #2
   d7f5e:	7003      	strb	r3, [r0, #0]
      constexpr __atomic_base(__int_type __i) noexcept : _M_i (__i) { }
   d7f60:	2301      	movs	r3, #1
      constexpr __atomic_base(__pointer_type __p) noexcept : _M_p (__p) { }
   d7f62:	e9c0 aa01 	strd	sl, sl, [r0, #4]
      constexpr __atomic_base(__int_type __i) noexcept : _M_i (__i) { }
   d7f66:	7043      	strb	r3, [r0, #1]
            error_(std::move(error)) {
   d7f68:	4631      	mov	r1, r6
   d7f6a:	300c      	adds	r0, #12
   d7f6c:	f7ff fe9a 	bl	d7ca4 <_ZN8particle5ErrorC1EOS0_>
	: _M_ptr(__p), _M_refcount(__p, typename is_array<_Tp>::type())
   d7f70:	4628      	mov	r0, r5
	: __shared_count(__p)
   d7f72:	4621      	mov	r1, r4
	: _M_ptr(__p), _M_refcount(__p, typename is_array<_Tp>::type())
   d7f74:	f840 4b04 	str.w	r4, [r0], #4
	: __shared_count(__p)
   d7f78:	f7ff ff32 	bl	d7de0 <_ZNSt14__shared_countILN9__gnu_cxx12_Lock_policyE0EEC1IPN8particle6detail10FutureImplIbNS5_13FutureContextEEEEET_>
            p_(new detail::FutureImpl<ResultT, ContextT>(std::move(error))) {
   d7f7c:	4630      	mov	r0, r6
   d7f7e:	f7ff fe9e 	bl	d7cbe <_ZN8particle5ErrorD1Ev>
    }

    explicit FutureBase(Error::Type error) :
            FutureBase(Error(error)) {
   d7f82:	a805      	add	r0, sp, #20
   d7f84:	f7ff fe9b 	bl	d7cbe <_ZN8particle5ErrorD1Ev>
        p.setError(Error::UNKNOWN);
        p.fromDataPtr(d.handler_data); // Free wrapper object
    }

    return p.future();
}
   d7f88:	4628      	mov	r0, r5
   d7f8a:	b00a      	add	sp, #40	; 0x28
   d7f8c:	e8bd 87f0 	ldmia.w	sp!, {r4, r5, r6, r7, r8, r9, sl, pc}
    spark_send_event_data d = { sizeof(spark_send_event_data) };
   d7f90:	230c      	movs	r3, #12
   d7f92:	f04f 0a00 	mov.w	sl, #0
            p_(new detail::FutureImpl<ResultT, ContextT>(State::RUNNING)) {
   d7f96:	2014      	movs	r0, #20
   d7f98:	e9cd aa08 	strd	sl, sl, [sp, #32]
   d7f9c:	9307      	str	r3, [sp, #28]
   d7f9e:	f7fc f87a 	bl	d4096 <_Znwj>
   d7fa2:	4601      	mov	r1, r0
   d7fa4:	b128      	cbz	r0, d7fb2 <_ZN10CloudClass13publish_eventEPKcS1_iN8particle5FlagsI15PublishFlagTypehEE+0x8e>
      constexpr __atomic_base(__pointer_type __p) noexcept : _M_p (__p) { }
   d7fa6:	e9c0 aa01 	strd	sl, sl, [r0, #4]
   d7faa:	f880 a000 	strb.w	sl, [r0]
      constexpr __atomic_base(__int_type __i) noexcept : _M_i (__i) { }
   d7fae:	f880 a001 	strb.w	sl, [r0, #1]
   d7fb2:	a804      	add	r0, sp, #16
	: _M_ptr(__p), _M_refcount(__p, typename is_array<_Tp>::type())
   d7fb4:	9103      	str	r1, [sp, #12]
	: __shared_count(__p)
   d7fb6:	f7ff ff13 	bl	d7de0 <_ZNSt14__shared_countILN9__gnu_cxx12_Lock_policyE0EEC1IPN8particle6detail10FutureImplIbNS5_13FutureContextEEEEET_>
    d.handler_callback = publishCompletionCallback;
   d7fba:	4b22      	ldr	r3, [pc, #136]	; (d8044 <_ZN10CloudClass13publish_eventEPKcS1_iN8particle5FlagsI15PublishFlagTypehEE+0x120>)
   d7fbc:	9308      	str	r3, [sp, #32]
        return new detail::FutureImplPtr<ResultT, ContextT>(p_);
   d7fbe:	2008      	movs	r0, #8
   d7fc0:	f7fc f869 	bl	d4096 <_Znwj>
   d7fc4:	4682      	mov	sl, r0
   d7fc6:	b128      	cbz	r0, d7fd4 <_ZN10CloudClass13publish_eventEPKcS1_iN8particle5FlagsI15PublishFlagTypehEE+0xb0>
      __shared_ptr(const __shared_ptr&) noexcept = default;
   d7fc8:	9b03      	ldr	r3, [sp, #12]
   d7fca:	f840 3b04 	str.w	r3, [r0], #4
   d7fce:	a904      	add	r1, sp, #16
   d7fd0:	f7ff fc1f 	bl	d7812 <_ZNSt14__shared_countILN9__gnu_cxx12_Lock_policyE0EEC1ERKS2_>
    if (!spark_send_event(eventName, eventData, ttl, flags.value(), &d) && !p.isDone()) {
   d7fd4:	9600      	str	r6, [sp, #0]
   d7fd6:	fa5f f389 	uxtb.w	r3, r9
   d7fda:	4642      	mov	r2, r8
   d7fdc:	4639      	mov	r1, r7
   d7fde:	4620      	mov	r0, r4
    d.handler_data = p.dataPtr();
   d7fe0:	f8cd a024 	str.w	sl, [sp, #36]	; 0x24
    if (!spark_send_event(eventName, eventData, ttl, flags.value(), &d) && !p.isDone()) {
   d7fe4:	f7ff f85a 	bl	d709c <spark_send_event>
   d7fe8:	b9b8      	cbnz	r0, d801a <_ZN10CloudClass13publish_eventEPKcS1_iN8particle5FlagsI15PublishFlagTypehEE+0xf6>
	return __atomic_load_n(&_M_i, int(__m));
   d7fea:	9b03      	ldr	r3, [sp, #12]
   d7fec:	785b      	ldrb	r3, [r3, #1]
   d7fee:	f003 02ff 	and.w	r2, r3, #255	; 0xff
   d7ff2:	b993      	cbnz	r3, d801a <_ZN10CloudClass13publish_eventEPKcS1_iN8particle5FlagsI15PublishFlagTypehEE+0xf6>
   d7ff4:	f64f 739c 	movw	r3, #65436	; 0xff9c
        p.setError(Error::UNKNOWN);
   d7ff8:	a905      	add	r1, sp, #20
   d7ffa:	a803      	add	r0, sp, #12
   d7ffc:	9205      	str	r2, [sp, #20]
   d7ffe:	f8ad 3018 	strh.w	r3, [sp, #24]
   d8002:	f7ff ff11 	bl	d7e28 <_ZN8particle11PromiseBaseIbNS_6detail13FutureContextEE8setErrorENS_5ErrorE>
   d8006:	a805      	add	r0, sp, #20
   d8008:	f7ff fe59 	bl	d7cbe <_ZN8particle5ErrorD1Ev>
        p.fromDataPtr(d.handler_data); // Free wrapper object
   d800c:	a805      	add	r0, sp, #20
   d800e:	9909      	ldr	r1, [sp, #36]	; 0x24
   d8010:	f7ff fea6 	bl	d7d60 <_ZN8particle11PromiseBaseIbNS_6detail13FutureContextEE11fromDataPtrEPv>
      ~__shared_ptr() = default;
   d8014:	a806      	add	r0, sp, #24
   d8016:	f7ff fc03 	bl	d7820 <_ZNSt14__shared_countILN9__gnu_cxx12_Lock_policyE0EED1Ev>
      __shared_ptr(const __shared_ptr&) noexcept = default;
   d801a:	9b03      	ldr	r3, [sp, #12]
   d801c:	9305      	str	r3, [sp, #20]
   d801e:	a904      	add	r1, sp, #16
   d8020:	a806      	add	r0, sp, #24
   d8022:	f7ff fbf6 	bl	d7812 <_ZNSt14__shared_countILN9__gnu_cxx12_Lock_policyE0EEC1ERKS2_>
      : _M_ptr(__r._M_ptr), _M_refcount()
   d8026:	9b05      	ldr	r3, [sp, #20]
	_Sp_counted_base<_Lp>* __tmp = __r._M_pi;
   d8028:	9a06      	ldr	r2, [sp, #24]
      : _M_ptr(__r._M_ptr), _M_refcount()
   d802a:	602b      	str	r3, [r5, #0]
	_M_pi = __tmp;
   d802c:	606a      	str	r2, [r5, #4]
	__r._M_pi = _M_pi;
   d802e:	2300      	movs	r3, #0
      ~__shared_ptr() = default;
   d8030:	a806      	add	r0, sp, #24
	__r._M_pi = _M_pi;
   d8032:	9306      	str	r3, [sp, #24]
	__r._M_ptr = 0;
   d8034:	9305      	str	r3, [sp, #20]
      ~__shared_ptr() = default;
   d8036:	f7ff fbf3 	bl	d7820 <_ZNSt14__shared_countILN9__gnu_cxx12_Lock_policyE0EED1Ev>
   d803a:	a804      	add	r0, sp, #16
   d803c:	f7ff fbf0 	bl	d7820 <_ZNSt14__shared_countILN9__gnu_cxx12_Lock_policyE0EED1Ev>
class Promise: public PromiseBase<ResultT, ContextT> {
   d8040:	e7a2      	b.n	d7f88 <_ZN10CloudClass13publish_eventEPKcS1_iN8particle5FlagsI15PublishFlagTypehEE+0x64>
   d8042:	bf00      	nop
   d8044:	000d810d 	.word	0x000d810d

000d8048 <_ZNSt14_Function_base13_Base_managerISt5_BindIFSt8functionIFvRKN8particle5ErrorEEES4_EEE10_M_managerERSt9_Any_dataRKSC_St18_Manager_operation>:
	  switch (__op)
   d8048:	2a02      	cmp	r2, #2
	_M_manager(_Any_data& __dest, const _Any_data& __source,
   d804a:	b5f8      	push	{r3, r4, r5, r6, r7, lr}
   d804c:	4605      	mov	r5, r0
	  switch (__op)
   d804e:	d007      	beq.n	d8060 <_ZNSt14_Function_base13_Base_managerISt5_BindIFSt8functionIFvRKN8particle5ErrorEEES4_EEE10_M_managerERSt9_Any_dataRKSC_St18_Manager_operation+0x18>
   d8050:	2a03      	cmp	r2, #3
   d8052:	d018      	beq.n	d8086 <_ZNSt14_Function_base13_Base_managerISt5_BindIFSt8functionIFvRKN8particle5ErrorEEES4_EEE10_M_managerERSt9_Any_dataRKSC_St18_Manager_operation+0x3e>
   d8054:	2a01      	cmp	r2, #1
   d8056:	d101      	bne.n	d805c <_ZNSt14_Function_base13_Base_managerISt5_BindIFSt8functionIFvRKN8particle5ErrorEEES4_EEE10_M_managerERSt9_Any_dataRKSC_St18_Manager_operation+0x14>
	    return __source._M_access<_Functor*>();
   d8058:	680b      	ldr	r3, [r1, #0]
	      __dest._M_access<_Functor*>() = _M_get_pointer(__source);
   d805a:	6003      	str	r3, [r0, #0]
	}
   d805c:	2000      	movs	r0, #0
   d805e:	bdf8      	pop	{r3, r4, r5, r6, r7, pc}
	    new _Functor(*__source._M_access<const _Functor*>());
   d8060:	2018      	movs	r0, #24
	  __dest._M_access<_Functor*>() =
   d8062:	680e      	ldr	r6, [r1, #0]
	    new _Functor(*__source._M_access<const _Functor*>());
   d8064:	f7fc f817 	bl	d4096 <_Znwj>
   d8068:	4604      	mov	r4, r0
   d806a:	b150      	cbz	r0, d8082 <_ZNSt14_Function_base13_Base_managerISt5_BindIFSt8functionIFvRKN8particle5ErrorEEES4_EEE10_M_managerERSt9_Any_dataRKSC_St18_Manager_operation+0x3a>
      template<typename... _Args>
	explicit _Bind(_Functor&& __f, _Args&&... __args)
	: _M_f(std::move(__f)), _M_bound_args(std::forward<_Args>(__args)...)
	{ }

      _Bind(const _Bind&) = default;
   d806c:	4631      	mov	r1, r6
   d806e:	f7ff fecb 	bl	d7e08 <_ZNSt8functionIFvRKN8particle5ErrorEEEC1ERKS5_>
        Error(error.type_, error.msg_) {
   d8072:	6930      	ldr	r0, [r6, #16]
   d8074:	f9b6 7014 	ldrsh.w	r7, [r6, #20]
        msg_(msg ? (const char*)strdup(msg) : nullptr),
   d8078:	b108      	cbz	r0, d807e <_ZNSt14_Function_base13_Base_managerISt5_BindIFSt8functionIFvRKN8particle5ErrorEEES4_EEE10_M_managerERSt9_Any_dataRKSC_St18_Manager_operation+0x36>
   d807a:	f001 fbb7 	bl	d97ec <strdup>
        type_(type) {
   d807e:	6120      	str	r0, [r4, #16]
   d8080:	82a7      	strh	r7, [r4, #20]
	  __dest._M_access<_Functor*>() =
   d8082:	602c      	str	r4, [r5, #0]
	}
   d8084:	e7ea      	b.n	d805c <_ZNSt14_Function_base13_Base_managerISt5_BindIFSt8functionIFvRKN8particle5ErrorEEES4_EEE10_M_managerERSt9_Any_dataRKSC_St18_Manager_operation+0x14>
	  delete __victim._M_access<_Functor*>();
   d8086:	6804      	ldr	r4, [r0, #0]
   d8088:	2c00      	cmp	r4, #0
   d808a:	d0e7      	beq.n	d805c <_ZNSt14_Function_base13_Base_managerISt5_BindIFSt8functionIFvRKN8particle5ErrorEEES4_EEE10_M_managerERSt9_Any_dataRKSC_St18_Manager_operation+0x14>
   d808c:	f104 0010 	add.w	r0, r4, #16
   d8090:	f7ff fe15 	bl	d7cbe <_ZN8particle5ErrorD1Ev>
    class function<_Res(_ArgTypes...)>
   d8094:	4620      	mov	r0, r4
   d8096:	f7ff fd36 	bl	d7b06 <_ZNSt14_Function_baseD1Ev>
	  delete __victim._M_access<_Functor*>();
   d809a:	2118      	movs	r1, #24
   d809c:	4620      	mov	r0, r4
   d809e:	f000 fcf4 	bl	d8a8a <_ZdlPvj>
   d80a2:	e7db      	b.n	d805c <_ZNSt14_Function_base13_Base_managerISt5_BindIFSt8functionIFvRKN8particle5ErrorEEES4_EEE10_M_managerERSt9_Any_dataRKSC_St18_Manager_operation+0x14>

000d80a4 <_ZNSt8functionIFvRKbEEC1ERKS3_>:
    function<_Res(_ArgTypes...)>::
   d80a4:	b538      	push	{r3, r4, r5, lr}
    _Function_base() : _M_manager(nullptr) { }
   d80a6:	2300      	movs	r3, #0
   d80a8:	6083      	str	r3, [r0, #8]
      { return !_M_empty(); }
   d80aa:	688b      	ldr	r3, [r1, #8]
    function<_Res(_ArgTypes...)>::
   d80ac:	4604      	mov	r4, r0
   d80ae:	460d      	mov	r5, r1
      if (static_cast<bool>(__x))
   d80b0:	b12b      	cbz	r3, d80be <_ZNSt8functionIFvRKbEEC1ERKS3_+0x1a>
	  __x._M_manager(_M_functor, __x._M_functor, __clone_functor);
   d80b2:	2202      	movs	r2, #2
   d80b4:	4798      	blx	r3
	  _M_invoker = __x._M_invoker;
   d80b6:	68eb      	ldr	r3, [r5, #12]
   d80b8:	60e3      	str	r3, [r4, #12]
	  _M_manager = __x._M_manager;
   d80ba:	68ab      	ldr	r3, [r5, #8]
   d80bc:	60a3      	str	r3, [r4, #8]
    }
   d80be:	4620      	mov	r0, r4
   d80c0:	bd38      	pop	{r3, r4, r5, pc}

000d80c2 <_ZNSt14_Function_base13_Base_managerISt5_BindIFSt8functionIFvRKbEEbEEE10_M_managerERSt9_Any_dataRKSA_St18_Manager_operation>:
	  switch (__op)
   d80c2:	2a02      	cmp	r2, #2
	_M_manager(_Any_data& __dest, const _Any_data& __source,
   d80c4:	b570      	push	{r4, r5, r6, lr}
   d80c6:	4604      	mov	r4, r0
	  switch (__op)
   d80c8:	d007      	beq.n	d80da <_ZNSt14_Function_base13_Base_managerISt5_BindIFSt8functionIFvRKbEEbEEE10_M_managerERSt9_Any_dataRKSA_St18_Manager_operation+0x18>
   d80ca:	2a03      	cmp	r2, #3
   d80cc:	d012      	beq.n	d80f4 <_ZNSt14_Function_base13_Base_managerISt5_BindIFSt8functionIFvRKbEEbEEE10_M_managerERSt9_Any_dataRKSA_St18_Manager_operation+0x32>
   d80ce:	2a01      	cmp	r2, #1
   d80d0:	d101      	bne.n	d80d6 <_ZNSt14_Function_base13_Base_managerISt5_BindIFSt8functionIFvRKbEEbEEE10_M_managerERSt9_Any_dataRKSA_St18_Manager_operation+0x14>
	    return __source._M_access<_Functor*>();
   d80d2:	680b      	ldr	r3, [r1, #0]
	      __dest._M_access<_Functor*>() = _M_get_pointer(__source);
   d80d4:	6003      	str	r3, [r0, #0]
	}
   d80d6:	2000      	movs	r0, #0
   d80d8:	bd70      	pop	{r4, r5, r6, pc}
	    new _Functor(*__source._M_access<const _Functor*>());
   d80da:	2014      	movs	r0, #20
	  __dest._M_access<_Functor*>() =
   d80dc:	680e      	ldr	r6, [r1, #0]
	    new _Functor(*__source._M_access<const _Functor*>());
   d80de:	f7fb ffda 	bl	d4096 <_Znwj>
   d80e2:	4605      	mov	r5, r0
   d80e4:	b120      	cbz	r0, d80f0 <_ZNSt14_Function_base13_Base_managerISt5_BindIFSt8functionIFvRKbEEbEEE10_M_managerERSt9_Any_dataRKSA_St18_Manager_operation+0x2e>
   d80e6:	4631      	mov	r1, r6
   d80e8:	f7ff ffdc 	bl	d80a4 <_ZNSt8functionIFvRKbEEC1ERKS3_>
   d80ec:	7c33      	ldrb	r3, [r6, #16]
   d80ee:	742b      	strb	r3, [r5, #16]
	  __dest._M_access<_Functor*>() =
   d80f0:	6025      	str	r5, [r4, #0]
	}
   d80f2:	e7f0      	b.n	d80d6 <_ZNSt14_Function_base13_Base_managerISt5_BindIFSt8functionIFvRKbEEbEEE10_M_managerERSt9_Any_dataRKSA_St18_Manager_operation+0x14>
	  delete __victim._M_access<_Functor*>();
   d80f4:	6804      	ldr	r4, [r0, #0]
   d80f6:	2c00      	cmp	r4, #0
   d80f8:	d0ed      	beq.n	d80d6 <_ZNSt14_Function_base13_Base_managerISt5_BindIFSt8functionIFvRKbEEbEEE10_M_managerERSt9_Any_dataRKSA_St18_Manager_operation+0x14>
    class function<_Res(_ArgTypes...)>
   d80fa:	4620      	mov	r0, r4
   d80fc:	f7ff fd03 	bl	d7b06 <_ZNSt14_Function_baseD1Ev>
	  delete __victim._M_access<_Functor*>();
   d8100:	2114      	movs	r1, #20
   d8102:	4620      	mov	r0, r4
   d8104:	f000 fcc1 	bl	d8a8a <_ZdlPvj>
   d8108:	e7e5      	b.n	d80d6 <_ZNSt14_Function_base13_Base_managerISt5_BindIFSt8functionIFvRKbEEbEEE10_M_managerERSt9_Any_dataRKSA_St18_Manager_operation+0x14>
	...

000d810c <_ZN12_GLOBAL__N_125publishCompletionCallbackEiPKvPvS2_>:
void publishCompletionCallback(int error, const void* data, void* callbackData, void* reserved) {
   d810c:	b5f0      	push	{r4, r5, r6, r7, lr}
   d810e:	b089      	sub	sp, #36	; 0x24
   d8110:	4604      	mov	r4, r0
   d8112:	460d      	mov	r5, r1
    auto p = Promise<bool>::fromDataPtr(callbackData);
   d8114:	a801      	add	r0, sp, #4
   d8116:	4611      	mov	r1, r2
   d8118:	f7ff fe22 	bl	d7d60 <_ZN8particle11PromiseBaseIbNS_6detail13FutureContextEE11fromDataPtrEPv>
    if (error != Error::NONE) {
   d811c:	b1a4      	cbz	r4, d8148 <_ZN12_GLOBAL__N_125publishCompletionCallbackEiPKvPvS2_+0x3c>
        p.setError(Error((Error::Type)error, (const char*)data));
   d811e:	b224      	sxth	r4, r4
        msg_(msg ? (const char*)strdup(msg) : nullptr),
   d8120:	b11d      	cbz	r5, d812a <_ZN12_GLOBAL__N_125publishCompletionCallbackEiPKvPvS2_+0x1e>
   d8122:	4628      	mov	r0, r5
   d8124:	f001 fb62 	bl	d97ec <strdup>
   d8128:	4605      	mov	r5, r0
   d812a:	a801      	add	r0, sp, #4
   d812c:	a903      	add	r1, sp, #12
        type_(type) {
   d812e:	9503      	str	r5, [sp, #12]
   d8130:	f8ad 4010 	strh.w	r4, [sp, #16]
   d8134:	f7ff fe78 	bl	d7e28 <_ZN8particle11PromiseBaseIbNS_6detail13FutureContextEE8setErrorENS_5ErrorE>
   d8138:	a803      	add	r0, sp, #12
   d813a:	f7ff fdc0 	bl	d7cbe <_ZN8particle5ErrorD1Ev>
   d813e:	a802      	add	r0, sp, #8
   d8140:	f7ff fb6e 	bl	d7820 <_ZNSt14__shared_countILN9__gnu_cxx12_Lock_policyE0EED1Ev>
}
   d8144:	b009      	add	sp, #36	; 0x24
   d8146:	bdf0      	pop	{r4, r5, r6, r7, pc}
      { return static_cast<const __shared_ptr<_Tp, _Lp>*>(this)->get(); }
   d8148:	9d01      	ldr	r5, [sp, #4]
	return __atomic_compare_exchange(std::__addressof(_M_i),
   d814a:	2301      	movs	r3, #1
   d814c:	e8d5 2f4f 	ldrexb	r2, [r5]
   d8150:	2a00      	cmp	r2, #0
   d8152:	d103      	bne.n	d815c <_ZN12_GLOBAL__N_125publishCompletionCallbackEiPKvPvS2_+0x50>
   d8154:	e8c5 3f41 	strexb	r1, r3, [r5]
   d8158:	2900      	cmp	r1, #0
   d815a:	d1f7      	bne.n	d814c <_ZN12_GLOBAL__N_125publishCompletionCallbackEiPKvPvS2_+0x40>
        if (this->changeState(State::SUCCEEDED)) {
   d815c:	d1ef      	bne.n	d813e <_ZN12_GLOBAL__N_125publishCompletionCallbackEiPKvPvS2_+0x32>
            new(&result_) ResultT(std::move(result));
   d815e:	732b      	strb	r3, [r5, #12]
	__atomic_store_n(&_M_i, __i, int(__m));
   d8160:	f3bf 8f5b 	dmb	ish
   d8164:	706b      	strb	r3, [r5, #1]
	return __atomic_exchange_n(&_M_p, __p, int(__m));
   d8166:	1d2b      	adds	r3, r5, #4
   d8168:	f3bf 8f5b 	dmb	ish
   d816c:	e853 6f00 	ldrex	r6, [r3]
   d8170:	e843 4200 	strex	r2, r4, [r3]
   d8174:	2a00      	cmp	r2, #0
   d8176:	d1f9      	bne.n	d816c <_ZN12_GLOBAL__N_125publishCompletionCallbackEiPKvPvS2_+0x60>
   d8178:	f3bf 8f5b 	dmb	ish
        if (callbackPtr) {
   d817c:	2e00      	cmp	r6, #0
   d817e:	d0de      	beq.n	d813e <_ZN12_GLOBAL__N_125publishCompletionCallbackEiPKvPvS2_+0x32>
        return (application_thread_current(nullptr) != 0);
   d8180:	4620      	mov	r0, r4
   d8182:	f7fe fef5 	bl	d6f70 <application_thread_current>
        if (ContextT::isApplicationThreadCurrent()) {
   d8186:	4607      	mov	r7, r0
   d8188:	b160      	cbz	r0, d81a4 <_ZN12_GLOBAL__N_125publishCompletionCallbackEiPKvPvS2_+0x98>
            callback(std::forward<ArgsT>(args)...); // Synchronous call
   d818a:	f105 010c 	add.w	r1, r5, #12
   d818e:	4630      	mov	r0, r6
   d8190:	f7ff fe15 	bl	d7dbe <_ZNKSt8functionIFvRKbEEclES1_>
    class function<_Res(_ArgTypes...)>
   d8194:	4630      	mov	r0, r6
   d8196:	f7ff fcb6 	bl	d7b06 <_ZNSt14_Function_baseD1Ev>
            delete callbackPtr;
   d819a:	2110      	movs	r1, #16
   d819c:	4630      	mov	r0, r6
   d819e:	f000 fc74 	bl	d8a8a <_ZdlPvj>
   d81a2:	e7cc      	b.n	d813e <_ZN12_GLOBAL__N_125publishCompletionCallbackEiPKvPvS2_+0x32>
	: _M_f(__f), _M_bound_args(std::forward<_Args>(__args)...)
   d81a4:	4631      	mov	r1, r6
   d81a6:	a803      	add	r0, sp, #12
   d81a8:	f7ff ff7c 	bl	d80a4 <_ZNSt8functionIFvRKbEEC1ERKS3_>
	: _M_head_impl(std::forward<_UHead>(__h)) { }
   d81ac:	7b2b      	ldrb	r3, [r5, #12]
   d81ae:	f88d 301c 	strb.w	r3, [sp, #28]
            auto callbackPtr = new std::function<void()>(std::bind(callback, std::forward<ArgsT>(args)...));
   d81b2:	2010      	movs	r0, #16
   d81b4:	f7fb ff6f 	bl	d4096 <_Znwj>
   d81b8:	4605      	mov	r5, r0
   d81ba:	b1d0      	cbz	r0, d81f2 <_ZN12_GLOBAL__N_125publishCompletionCallbackEiPKvPvS2_+0xe6>
    _Function_base() : _M_manager(nullptr) { }
   d81bc:	6087      	str	r7, [r0, #8]
	{ __functor._M_access<_Functor*>() = new _Functor(std::move(__f)); }
   d81be:	2014      	movs	r0, #20
   d81c0:	f7fb ff69 	bl	d4096 <_Znwj>
   d81c4:	4604      	mov	r4, r0
   d81c6:	b178      	cbz	r0, d81e8 <_ZN12_GLOBAL__N_125publishCompletionCallbackEiPKvPvS2_+0xdc>
    _Function_base() : _M_manager(nullptr) { }
   d81c8:	6087      	str	r7, [r0, #8]
	std::swap(_M_functor, __x._M_functor);
   d81ca:	4601      	mov	r1, r0
   d81cc:	a803      	add	r0, sp, #12
   d81ce:	f7ff fca9 	bl	d7b24 <_ZSt4swapISt9_Any_dataENSt9enable_ifIXsrSt6__and_IJSt6__not_ISt15__is_tuple_likeIT_EESt21is_move_constructibleIS5_ESt18is_move_assignableIS5_EEE5valueEvE4typeERS5_SF_>
      _Tp __tmp = _GLIBCXX_MOVE(__a);
   d81d2:	9b05      	ldr	r3, [sp, #20]
      __a = _GLIBCXX_MOVE(__b);
   d81d4:	68a2      	ldr	r2, [r4, #8]
      __b = _GLIBCXX_MOVE(__tmp);
   d81d6:	60a3      	str	r3, [r4, #8]
      _Tp __tmp = _GLIBCXX_MOVE(__a);
   d81d8:	9b06      	ldr	r3, [sp, #24]
      __a = _GLIBCXX_MOVE(__b);
   d81da:	9205      	str	r2, [sp, #20]
   d81dc:	68e2      	ldr	r2, [r4, #12]
      __b = _GLIBCXX_MOVE(__tmp);
   d81de:	60e3      	str	r3, [r4, #12]
   d81e0:	f89d 301c 	ldrb.w	r3, [sp, #28]
      __a = _GLIBCXX_MOVE(__b);
   d81e4:	9206      	str	r2, [sp, #24]
   d81e6:	7423      	strb	r3, [r4, #16]
	    _M_invoker = &_My_handler::_M_invoke;
   d81e8:	4b06      	ldr	r3, [pc, #24]	; (d8204 <_ZN12_GLOBAL__N_125publishCompletionCallbackEiPKvPvS2_+0xf8>)
   d81ea:	60eb      	str	r3, [r5, #12]
	    _M_manager = &_My_handler::_M_manager;
   d81ec:	4b06      	ldr	r3, [pc, #24]	; (d8208 <_ZN12_GLOBAL__N_125publishCompletionCallbackEiPKvPvS2_+0xfc>)
	{ __functor._M_access<_Functor*>() = new _Functor(std::move(__f)); }
   d81ee:	602c      	str	r4, [r5, #0]
	    _M_manager = &_My_handler::_M_manager;
   d81f0:	60ab      	str	r3, [r5, #8]
    class function<_Res(_ArgTypes...)>
   d81f2:	a803      	add	r0, sp, #12
   d81f4:	f7ff fc87 	bl	d7b06 <_ZNSt14_Function_baseD1Ev>
        return (application_thread_invoke(callback, data, nullptr) == 0);
   d81f8:	2200      	movs	r2, #0
   d81fa:	4629      	mov	r1, r5
   d81fc:	4803      	ldr	r0, [pc, #12]	; (d820c <_ZN12_GLOBAL__N_125publishCompletionCallbackEiPKvPvS2_+0x100>)
   d81fe:	f7fe febf 	bl	d6f80 <application_thread_invoke>
   d8202:	e7c7      	b.n	d8194 <_ZN12_GLOBAL__N_125publishCompletionCallbackEiPKvPvS2_+0x88>
   d8204:	000d7dd1 	.word	0x000d7dd1
   d8208:	000d80c3 	.word	0x000d80c3
   d820c:	000d85c9 	.word	0x000d85c9

000d8210 <_ZN9IPAddressD1Ev>:
    IPAddress(uint8_t first_octet, uint8_t second_octet, uint8_t third_octet, uint8_t fourth_octet);
    IPAddress(uint32_t address);
    IPAddress(const uint8_t* address);
    IPAddress(const HAL_IPAddress& address);

    virtual ~IPAddress() {}
   d8210:	4770      	bx	lr

000d8212 <_ZN9IPAddressD0Ev>:
   d8212:	b510      	push	{r4, lr}
   d8214:	2118      	movs	r1, #24
   d8216:	4604      	mov	r4, r0
   d8218:	f000 fc37 	bl	d8a8a <_ZdlPvj>
   d821c:	4620      	mov	r0, r4
   d821e:	bd10      	pop	{r4, pc}

000d8220 <_ZNK9IPAddress7printToER5Print>:
#endif // Wiring_IPv6
	return address.ipv4==that.address.ipv4;
}

size_t IPAddress::printTo(Print& p) const
{
   d8220:	b5f0      	push	{r4, r5, r6, r7, lr}
#if Wiring_IPv6
#if HAL_USE_INET_HAL_POSIX
	if (address.v==6) {
   d8222:	7d03      	ldrb	r3, [r0, #20]
   d8224:	2b06      	cmp	r3, #6
{
   d8226:	b08d      	sub	sp, #52	; 0x34
   d8228:	460e      	mov	r6, r1
   d822a:	f100 0704 	add.w	r7, r0, #4
   d822e:	f04f 0400 	mov.w	r4, #0
	if (address.v==6) {
   d8232:	d012      	beq.n	d825a <_ZNK9IPAddress7printToER5Print+0x3a>
   d8234:	f100 0508 	add.w	r5, r0, #8
        return printNumber(val, base) + t;
   d8238:	f815 1d01 	ldrb.w	r1, [r5, #-1]!
   d823c:	220a      	movs	r2, #10
   d823e:	4630      	mov	r0, r6
   d8240:	f7ff fb59 	bl	d78f6 <_ZN5Print11printNumberEmh>
#else
#pragma message "HAL_USE_INET_HAL_POSIX is required for IPv6 support in IPAddress::printTo()"
#endif // HAL_USE_INET_HAL_POSIX
#endif // Wiring_IPv6
    size_t n = 0;
    for (int i = 0; i < 4; i++)
   d8244:	42af      	cmp	r7, r5
    {
        if (n)
            n += p.print('.');
        n += p.print((*this)[i], DEC);
   d8246:	4404      	add	r4, r0
    for (int i = 0; i < 4; i++)
   d8248:	d019      	beq.n	d827e <_ZNK9IPAddress7printToER5Print+0x5e>
        if (n)
   d824a:	2c00      	cmp	r4, #0
   d824c:	d0f4      	beq.n	d8238 <_ZNK9IPAddress7printToER5Print+0x18>
            n += p.print('.');
   d824e:	212e      	movs	r1, #46	; 0x2e
   d8250:	4630      	mov	r0, r6
   d8252:	f7ff fb31 	bl	d78b8 <_ZN5Print5printEc>
   d8256:	4404      	add	r4, r0
   d8258:	e7ee      	b.n	d8238 <_ZNK9IPAddress7printToER5Print+0x18>
		inet_inet_ntop(AF_INET6, address.ipv6, buf, sizeof(buf));
   d825a:	232f      	movs	r3, #47	; 0x2f
   d825c:	466a      	mov	r2, sp
   d825e:	4639      	mov	r1, r7
   d8260:	200a      	movs	r0, #10
		buf[0] = 0;
   d8262:	f88d 4000 	strb.w	r4, [sp]
		inet_inet_ntop(AF_INET6, address.ipv6, buf, sizeof(buf));
   d8266:	f7fe fd6b 	bl	d6d40 <inet_inet_ntop>
      return write((const uint8_t *)str, strlen(str));
   d826a:	4668      	mov	r0, sp
   d826c:	f001 fadb 	bl	d9826 <strlen>
   d8270:	6833      	ldr	r3, [r6, #0]
   d8272:	4602      	mov	r2, r0
   d8274:	68db      	ldr	r3, [r3, #12]
   d8276:	4669      	mov	r1, sp
   d8278:	4630      	mov	r0, r6
   d827a:	4798      	blx	r3
   d827c:	4604      	mov	r4, r0
    }
    return n;
}
   d827e:	4620      	mov	r0, r4
   d8280:	b00d      	add	sp, #52	; 0x34
   d8282:	bdf0      	pop	{r4, r5, r6, r7, pc}

000d8284 <_ZN9IPAddressC1Ev>:
IPAddress::IPAddress()
   d8284:	b510      	push	{r4, lr}
   d8286:	4b05      	ldr	r3, [pc, #20]	; (d829c <_ZN9IPAddressC1Ev+0x18>)
   d8288:	4604      	mov	r4, r0
        return address;
    }

    virtual size_t printTo(Print& p) const;

    void clear() { memset(&address, 0, sizeof (address)); }
   d828a:	2211      	movs	r2, #17
   d828c:	f840 3b04 	str.w	r3, [r0], #4
   d8290:	2100      	movs	r1, #0
   d8292:	f001 fa6d 	bl	d9770 <memset>
}
   d8296:	4620      	mov	r0, r4
   d8298:	bd10      	pop	{r4, pc}
   d829a:	bf00      	nop
   d829c:	000da5d0 	.word	0x000da5d0

000d82a0 <_ZN9IPAddressC1ERK16_HAL_IPAddress_t>:
IPAddress::IPAddress(const HAL_IPAddress& address)
   d82a0:	4603      	mov	r3, r0
   d82a2:	4a07      	ldr	r2, [pc, #28]	; (d82c0 <_ZN9IPAddressC1ERK16_HAL_IPAddress_t+0x20>)
   d82a4:	b510      	push	{r4, lr}
   d82a6:	f843 2b04 	str.w	r2, [r3], #4
    memcpy(&this->address, &address, sizeof(address));
   d82aa:	f101 0210 	add.w	r2, r1, #16
   d82ae:	f851 4b04 	ldr.w	r4, [r1], #4
   d82b2:	f843 4b04 	str.w	r4, [r3], #4
   d82b6:	4291      	cmp	r1, r2
   d82b8:	d1f9      	bne.n	d82ae <_ZN9IPAddressC1ERK16_HAL_IPAddress_t+0xe>
   d82ba:	780a      	ldrb	r2, [r1, #0]
   d82bc:	701a      	strb	r2, [r3, #0]
}
   d82be:	bd10      	pop	{r4, pc}
   d82c0:	000da5d0 	.word	0x000da5d0

000d82c4 <_ZN9IPAddress8set_ipv4Ehhhh>:
{
   d82c4:	b510      	push	{r4, lr}
    address.ipv4 = b0<<24 | b1 << 16 | b2 << 8 | b3;
   d82c6:	f89d 4008 	ldrb.w	r4, [sp, #8]
   d82ca:	ea44 2303 	orr.w	r3, r4, r3, lsl #8
   d82ce:	ea43 4202 	orr.w	r2, r3, r2, lsl #16
   d82d2:	ea42 6101 	orr.w	r1, r2, r1, lsl #24
        address.v = version;
   d82d6:	2304      	movs	r3, #4
   d82d8:	6041      	str	r1, [r0, #4]
   d82da:	7503      	strb	r3, [r0, #20]
}
   d82dc:	bd10      	pop	{r4, pc}

000d82de <_ZN9IPAddressaSEPKh>:
{
   d82de:	b513      	push	{r0, r1, r4, lr}
    set_ipv4(address[0], address[1], address[2], address[3]);
   d82e0:	78cb      	ldrb	r3, [r1, #3]
   d82e2:	9300      	str	r3, [sp, #0]
   d82e4:	788b      	ldrb	r3, [r1, #2]
   d82e6:	784a      	ldrb	r2, [r1, #1]
   d82e8:	7809      	ldrb	r1, [r1, #0]
   d82ea:	f7ff ffeb 	bl	d82c4 <_ZN9IPAddress8set_ipv4Ehhhh>
}
   d82ee:	b002      	add	sp, #8
   d82f0:	bd10      	pop	{r4, pc}

000d82f2 <_ZN9USBSerial14blockOnOverrunEb>:
  HAL_USB_USART_Flush_Data(_serial);
}

void USBSerial::blockOnOverrun(bool block)
{
  _blocking = block;
   d82f2:	7441      	strb	r1, [r0, #17]
}
   d82f4:	4770      	bx	lr

000d82f6 <_ZN9USBSerialD1Ev>:
#include "usb_hal.h"
#include "system_task.h"
#include "spark_wiring_startup.h"
#include "concurrent_hal.h"

class USBSerial : public Stream
   d82f6:	4770      	bx	lr

000d82f8 <_ZN9USBSerial4readEv>:
{
   d82f8:	b508      	push	{r3, lr}
	return std::max(-1, (int)HAL_USB_USART_Receive_Data(_serial, false));
   d82fa:	2100      	movs	r1, #0
   d82fc:	7c00      	ldrb	r0, [r0, #16]
   d82fe:	f7fe fdff 	bl	d6f00 <HAL_USB_USART_Receive_Data>
}
   d8302:	ea40 70e0 	orr.w	r0, r0, r0, asr #31
   d8306:	bd08      	pop	{r3, pc}

000d8308 <_ZN9USBSerial4peekEv>:

int USBSerial::peek()
{
   d8308:	b508      	push	{r3, lr}
	return std::max(-1, (int)HAL_USB_USART_Receive_Data(_serial, true));
   d830a:	2101      	movs	r1, #1
   d830c:	7c00      	ldrb	r0, [r0, #16]
   d830e:	f7fe fdf7 	bl	d6f00 <HAL_USB_USART_Receive_Data>
}
   d8312:	ea40 70e0 	orr.w	r0, r0, r0, asr #31
   d8316:	bd08      	pop	{r3, pc}

000d8318 <_ZN9USBSerial17availableForWriteEv>:
{
   d8318:	b508      	push	{r3, lr}
  return std::max(0, (int)HAL_USB_USART_Available_Data_For_Write(_serial));
   d831a:	7c00      	ldrb	r0, [r0, #16]
   d831c:	f7fe fde8 	bl	d6ef0 <HAL_USB_USART_Available_Data_For_Write>
}
   d8320:	ea20 70e0 	bic.w	r0, r0, r0, asr #31
   d8324:	bd08      	pop	{r3, pc}

000d8326 <_ZN9USBSerial9availableEv>:
{
   d8326:	b508      	push	{r3, lr}
	return std::max(0, (int)HAL_USB_USART_Available_Data(_serial));
   d8328:	7c00      	ldrb	r0, [r0, #16]
   d832a:	f7fe fdd9 	bl	d6ee0 <HAL_USB_USART_Available_Data>
}
   d832e:	ea20 70e0 	bic.w	r0, r0, r0, asr #31
   d8332:	bd08      	pop	{r3, pc}

000d8334 <_ZN9USBSerial5writeEh>:
{
   d8334:	b513      	push	{r0, r1, r4, lr}
   d8336:	4604      	mov	r4, r0
  if (HAL_USB_USART_Available_Data_For_Write(_serial) > 0 || _blocking) {
   d8338:	7c00      	ldrb	r0, [r0, #16]
{
   d833a:	9101      	str	r1, [sp, #4]
  if (HAL_USB_USART_Available_Data_For_Write(_serial) > 0 || _blocking) {
   d833c:	f7fe fdd8 	bl	d6ef0 <HAL_USB_USART_Available_Data_For_Write>
   d8340:	2800      	cmp	r0, #0
   d8342:	9901      	ldr	r1, [sp, #4]
   d8344:	dc01      	bgt.n	d834a <_ZN9USBSerial5writeEh+0x16>
   d8346:	7c60      	ldrb	r0, [r4, #17]
   d8348:	b120      	cbz	r0, d8354 <_ZN9USBSerial5writeEh+0x20>
    return std::max(0, (int)HAL_USB_USART_Send_Data(_serial, byte));
   d834a:	7c20      	ldrb	r0, [r4, #16]
   d834c:	f7fe fde0 	bl	d6f10 <HAL_USB_USART_Send_Data>
   d8350:	ea20 70e0 	bic.w	r0, r0, r0, asr #31
}
   d8354:	b002      	add	sp, #8
   d8356:	bd10      	pop	{r4, pc}

000d8358 <_ZN9USBSerial5flushEv>:
  HAL_USB_USART_Flush_Data(_serial);
   d8358:	7c00      	ldrb	r0, [r0, #16]
   d835a:	f7fe bde1 	b.w	d6f20 <HAL_USB_USART_Flush_Data>

000d835e <_ZN9USBSerialD0Ev>:
   d835e:	b510      	push	{r4, lr}
   d8360:	2114      	movs	r1, #20
   d8362:	4604      	mov	r4, r0
   d8364:	f000 fb91 	bl	d8a8a <_ZdlPvj>
   d8368:	4620      	mov	r0, r4
   d836a:	bd10      	pop	{r4, pc}

000d836c <_ZN9USBSerialC1E20HAL_USB_USART_SerialRK20HAL_USB_USART_Config>:
USBSerial::USBSerial(HAL_USB_USART_Serial serial, const HAL_USB_USART_Config& conf)
   d836c:	b510      	push	{r4, lr}
    virtual int available() = 0;
    virtual int read() = 0;
    virtual int peek() = 0;
    virtual void flush() = 0;

    Stream() {_timeout=1000;}
   d836e:	f44f 737a 	mov.w	r3, #1000	; 0x3e8
   d8372:	4604      	mov	r4, r0
   d8374:	4608      	mov	r0, r1
   d8376:	2100      	movs	r1, #0
   d8378:	e9c4 1301 	strd	r1, r3, [r4, #4]
   d837c:	4b04      	ldr	r3, [pc, #16]	; (d8390 <_ZN9USBSerialC1E20HAL_USB_USART_SerialRK20HAL_USB_USART_Config+0x24>)
   d837e:	6023      	str	r3, [r4, #0]
  _blocking = true;
   d8380:	2301      	movs	r3, #1
  _serial = serial;
   d8382:	7420      	strb	r0, [r4, #16]
  _blocking = true;
   d8384:	7463      	strb	r3, [r4, #17]
  HAL_USB_USART_Init(_serial, &conf);
   d8386:	4611      	mov	r1, r2
   d8388:	f7fe fd9a 	bl	d6ec0 <HAL_USB_USART_Init>
}
   d838c:	4620      	mov	r0, r4
   d838e:	bd10      	pop	{r4, pc}
   d8390:	000da5e4 	.word	0x000da5e4

000d8394 <_ZN9USBSerial5beginEl>:
    HAL_USB_USART_Begin(_serial, speed, NULL);
   d8394:	7c00      	ldrb	r0, [r0, #16]
   d8396:	2200      	movs	r2, #0
   d8398:	f7fe bd9a 	b.w	d6ed0 <HAL_USB_USART_Begin>

000d839c <_Z19acquireSerialBufferv>:

// Preinstantiate Objects //////////////////////////////////////////////////////
#ifdef SPARK_USB_SERIAL

HAL_USB_USART_Config __attribute__((weak)) acquireSerialBuffer()
{
   d839c:	b510      	push	{r4, lr}
  HAL_USB_USART_Config conf = {0};
   d839e:	2214      	movs	r2, #20
{
   d83a0:	4604      	mov	r4, r0
  HAL_USB_USART_Config conf = {0};
   d83a2:	2100      	movs	r1, #0
   d83a4:	f001 f9e4 	bl	d9770 <memset>
  conf.rx_buffer_size = USB_RX_BUFFER_SIZE;
  conf.tx_buffer_size = USB_TX_BUFFER_SIZE;
#endif

  return conf;
}
   d83a8:	4620      	mov	r0, r4
   d83aa:	bd10      	pop	{r4, pc}

000d83ac <_Z16_fetch_usbserialv>:

USBSerial& _fetch_usbserial()
{
   d83ac:	b510      	push	{r4, lr}
  HAL_USB_USART_Config conf = acquireSerialBuffer();
	static USBSerial _usbserial(HAL_USB_USART_SERIAL, conf);
   d83ae:	4c10      	ldr	r4, [pc, #64]	; (d83f0 <_Z16_fetch_usbserialv+0x44>)
{
   d83b0:	b088      	sub	sp, #32
  HAL_USB_USART_Config conf = acquireSerialBuffer();
   d83b2:	a803      	add	r0, sp, #12
   d83b4:	f7ff fff2 	bl	d839c <_Z19acquireSerialBufferv>
	static USBSerial _usbserial(HAL_USB_USART_SERIAL, conf);
   d83b8:	7821      	ldrb	r1, [r4, #0]
   d83ba:	f3bf 8f5b 	dmb	ish
   d83be:	f011 0101 	ands.w	r1, r1, #1
   d83c2:	d111      	bne.n	d83e8 <_Z16_fetch_usbserialv+0x3c>
   d83c4:	4620      	mov	r0, r4
   d83c6:	9101      	str	r1, [sp, #4]
   d83c8:	f7fb fe6b 	bl	d40a2 <__cxa_guard_acquire>
   d83cc:	9901      	ldr	r1, [sp, #4]
   d83ce:	b158      	cbz	r0, d83e8 <_Z16_fetch_usbserialv+0x3c>
   d83d0:	aa03      	add	r2, sp, #12
   d83d2:	4808      	ldr	r0, [pc, #32]	; (d83f4 <_Z16_fetch_usbserialv+0x48>)
   d83d4:	f7ff ffca 	bl	d836c <_ZN9USBSerialC1E20HAL_USB_USART_SerialRK20HAL_USB_USART_Config>
   d83d8:	4620      	mov	r0, r4
   d83da:	f7fb fe67 	bl	d40ac <__cxa_guard_release>
   d83de:	4a06      	ldr	r2, [pc, #24]	; (d83f8 <_Z16_fetch_usbserialv+0x4c>)
   d83e0:	4906      	ldr	r1, [pc, #24]	; (d83fc <_Z16_fetch_usbserialv+0x50>)
   d83e2:	4804      	ldr	r0, [pc, #16]	; (d83f4 <_Z16_fetch_usbserialv+0x48>)
   d83e4:	f000 fb4c 	bl	d8a80 <__aeabi_atexit>
	return _usbserial;
}
   d83e8:	4802      	ldr	r0, [pc, #8]	; (d83f4 <_Z16_fetch_usbserialv+0x48>)
   d83ea:	b008      	add	sp, #32
   d83ec:	bd10      	pop	{r4, pc}
   d83ee:	bf00      	nop
   d83f0:	2003e740 	.word	0x2003e740
   d83f4:	2003e744 	.word	0x2003e744
   d83f8:	2003e134 	.word	0x2003e134
   d83fc:	000d82f7 	.word	0x000d82f7

000d8400 <_ZN5spark13CellularClass5readyEv>:
        return network_listening(*this, 0, NULL);
    }

    bool ready()
    {
        return network_ready(*this, 0,  NULL);
   d8400:	2200      	movs	r2, #0
   d8402:	6840      	ldr	r0, [r0, #4]
   d8404:	4611      	mov	r1, r2
   d8406:	f7fe bdf9 	b.w	d6ffc <network_ready>

000d840a <_ZN5spark13CellularClass9listeningEv>:
        return network_listening(*this, 0, NULL);
   d840a:	2200      	movs	r2, #0
   d840c:	6840      	ldr	r0, [r0, #4]
   d840e:	4611      	mov	r1, r2
   d8410:	f7fe be14 	b.w	d703c <network_listening>

000d8414 <_ZN5spark13CellularClass16getListenTimeoutEv>:
        return network_get_listen_timeout(*this, 0, NULL);
   d8414:	2200      	movs	r2, #0
   d8416:	6840      	ldr	r0, [r0, #4]
   d8418:	4611      	mov	r1, r2
   d841a:	f7fe be1f 	b.w	d705c <network_get_listen_timeout>

000d841e <_ZN5spark13CellularClass16setListenTimeoutEt>:
        network_set_listen_timeout(*this, timeout, NULL);
   d841e:	6840      	ldr	r0, [r0, #4]
   d8420:	2200      	movs	r2, #0
   d8422:	f7fe be13 	b.w	d704c <network_set_listen_timeout>

000d8426 <_ZN5spark13CellularClass6listenEb>:
        network_listen(*this, begin ? 0 : 1, NULL);
   d8426:	6840      	ldr	r0, [r0, #4]
   d8428:	2200      	movs	r2, #0
   d842a:	f081 0101 	eor.w	r1, r1, #1
   d842e:	f7fe bdfd 	b.w	d702c <network_listen>

000d8432 <_ZN5spark13CellularClass3offEv>:
        network_off(*this, 0, 0, NULL);
   d8432:	2300      	movs	r3, #0
   d8434:	6840      	ldr	r0, [r0, #4]
   d8436:	461a      	mov	r2, r3
   d8438:	4619      	mov	r1, r3
   d843a:	f7fe bdef 	b.w	d701c <network_off>

000d843e <_ZN5spark13CellularClass2onEv>:
        network_on(*this, 0, 0, NULL);
   d843e:	2300      	movs	r3, #0
   d8440:	6840      	ldr	r0, [r0, #4]
   d8442:	461a      	mov	r2, r3
   d8444:	4619      	mov	r1, r3
   d8446:	f7fe bde1 	b.w	d700c <network_on>

000d844a <_ZN5spark13CellularClass10connectingEv>:
        return network_connecting(*this, 0, NULL);
   d844a:	2200      	movs	r2, #0
   d844c:	6840      	ldr	r0, [r0, #4]
   d844e:	4611      	mov	r1, r2
   d8450:	f7fe bdc4 	b.w	d6fdc <network_connecting>

000d8454 <_ZN5spark13CellularClass10disconnectEv>:
        network_disconnect(*this, NETWORK_DISCONNECT_REASON_USER, NULL);
   d8454:	6840      	ldr	r0, [r0, #4]
   d8456:	2200      	movs	r2, #0
   d8458:	2102      	movs	r1, #2
   d845a:	f7fe bdc7 	b.w	d6fec <network_disconnect>

000d845e <_ZN5spark13CellularClass7connectEj>:
        network_connect(*this, flags, 0, NULL);
   d845e:	2300      	movs	r3, #0
   d8460:	6840      	ldr	r0, [r0, #4]
   d8462:	461a      	mov	r2, r3
   d8464:	f7fe bdb2 	b.w	d6fcc <network_connect>

000d8468 <_GLOBAL__sub_I__ZN5spark13CellularClass4RSSIEv>:
    int tx_total;
    int rx_total;

    CellularDataHal()
    {
        memset(this, 0, sizeof(*this));
   d8468:	4b08      	ldr	r3, [pc, #32]	; (d848c <_GLOBAL__sub_I__ZN5spark13CellularClass4RSSIEv+0x24>)
        return (band_get.ok = true);
    }

    CellularClass Cellular;
    // NetworkClass& Network = Cellular;
}
   d846a:	b510      	push	{r4, lr}
   d846c:	2428      	movs	r4, #40	; 0x28
   d846e:	4622      	mov	r2, r4
   d8470:	4618      	mov	r0, r3
   d8472:	2100      	movs	r1, #0
   d8474:	f001 f97c 	bl	d9770 <memset>
   d8478:	4b05      	ldr	r3, [pc, #20]	; (d8490 <_GLOBAL__sub_I__ZN5spark13CellularClass4RSSIEv+0x28>)
        cid = -1;
        size = sizeof(*this);
   d847a:	8004      	strh	r4, [r0, #0]
        cid = -1;
   d847c:	f04f 32ff 	mov.w	r2, #4294967295
   d8480:	6042      	str	r2, [r0, #4]
   d8482:	2204      	movs	r2, #4
   d8484:	605a      	str	r2, [r3, #4]
            NetworkClass(NETWORK_INTERFACE_CELLULAR) {
   d8486:	4a03      	ldr	r2, [pc, #12]	; (d8494 <_GLOBAL__sub_I__ZN5spark13CellularClass4RSSIEv+0x2c>)
   d8488:	601a      	str	r2, [r3, #0]
   d848a:	bd10      	pop	{r4, pc}
   d848c:	2003e760 	.word	0x2003e760
   d8490:	2003e758 	.word	0x2003e758
   d8494:	000da614 	.word	0x000da614

000d8498 <_ZN11USARTSerialD1Ev>:
private:
  hal_usart_interface_t _serial;
  bool _blocking;
public:
  USARTSerial(hal_usart_interface_t serial, hal_usart_ring_buffer_t *rx_buffer, hal_usart_ring_buffer_t *tx_buffer);
  virtual ~USARTSerial() {};
   d8498:	4770      	bx	lr

000d849a <_ZN11USARTSerial14blockOnOverrunEb>:
    hal_usart_half_duplex(_serial, Enable);
}

void USARTSerial::blockOnOverrun(bool block)
{
  _blocking = block;
   d849a:	7441      	strb	r1, [r0, #17]
}
   d849c:	4770      	bx	lr

000d849e <_ZN11USARTSerial17availableForWriteEv>:


int USARTSerial::availableForWrite(void)
{
   d849e:	b508      	push	{r3, lr}
  return std::max(0, (int)hal_usart_available_data_for_write(_serial));
   d84a0:	7c00      	ldrb	r0, [r0, #16]
   d84a2:	f7fe fc8d 	bl	d6dc0 <hal_usart_available_data_for_write>
}
   d84a6:	ea20 70e0 	bic.w	r0, r0, r0, asr #31
   d84aa:	bd08      	pop	{r3, pc}

000d84ac <_ZN11USARTSerial9availableEv>:

int USARTSerial::available(void)
{
   d84ac:	b508      	push	{r3, lr}
  return std::max(0, (int)hal_usart_available(_serial));
   d84ae:	7c00      	ldrb	r0, [r0, #16]
   d84b0:	f7fe fc5e 	bl	d6d70 <hal_usart_available>
}
   d84b4:	ea20 70e0 	bic.w	r0, r0, r0, asr #31
   d84b8:	bd08      	pop	{r3, pc}

000d84ba <_ZN11USARTSerial4peekEv>:

int USARTSerial::peek(void)
{
   d84ba:	b508      	push	{r3, lr}
  return std::max(-1, (int)hal_usart_peek(_serial));
   d84bc:	7c00      	ldrb	r0, [r0, #16]
   d84be:	f7fe fc67 	bl	d6d90 <hal_usart_peek>
}
   d84c2:	ea40 70e0 	orr.w	r0, r0, r0, asr #31
   d84c6:	bd08      	pop	{r3, pc}

000d84c8 <_ZN11USARTSerial4readEv>:

int USARTSerial::read(void)
{
   d84c8:	b508      	push	{r3, lr}
  return std::max(-1, (int)hal_usart_read(_serial));
   d84ca:	7c00      	ldrb	r0, [r0, #16]
   d84cc:	f7fe fc58 	bl	d6d80 <hal_usart_read>
}
   d84d0:	ea40 70e0 	orr.w	r0, r0, r0, asr #31
   d84d4:	bd08      	pop	{r3, pc}

000d84d6 <_ZN11USARTSerial5flushEv>:

void USARTSerial::flush()
{
  hal_usart_flush(_serial);
   d84d6:	7c00      	ldrb	r0, [r0, #16]
   d84d8:	f7fe bc62 	b.w	d6da0 <hal_usart_flush>

000d84dc <_ZN11USARTSerial5writeEh>:
}

size_t USARTSerial::write(uint8_t c)
{
   d84dc:	b537      	push	{r0, r1, r2, r4, r5, lr}
  // attempt a write if blocking, or for non-blocking if there is room.
  if (_blocking || hal_usart_available_data_for_write(_serial) > 0) {
   d84de:	7c45      	ldrb	r5, [r0, #17]
{
   d84e0:	4604      	mov	r4, r0
  if (_blocking || hal_usart_available_data_for_write(_serial) > 0) {
   d84e2:	b12d      	cbz	r5, d84f0 <_ZN11USARTSerial5writeEh+0x14>
    // the HAL always blocks.
	  return hal_usart_write(_serial, c);
   d84e4:	7c20      	ldrb	r0, [r4, #16]
  }
  return 0;
}
   d84e6:	b003      	add	sp, #12
   d84e8:	e8bd 4030 	ldmia.w	sp!, {r4, r5, lr}
	  return hal_usart_write(_serial, c);
   d84ec:	f7fe bc38 	b.w	d6d60 <hal_usart_write>
  if (_blocking || hal_usart_available_data_for_write(_serial) > 0) {
   d84f0:	7c00      	ldrb	r0, [r0, #16]
   d84f2:	9101      	str	r1, [sp, #4]
   d84f4:	f7fe fc64 	bl	d6dc0 <hal_usart_available_data_for_write>
   d84f8:	2800      	cmp	r0, #0
   d84fa:	9901      	ldr	r1, [sp, #4]
   d84fc:	dcf2      	bgt.n	d84e4 <_ZN11USARTSerial5writeEh+0x8>
}
   d84fe:	4628      	mov	r0, r5
   d8500:	b003      	add	sp, #12
   d8502:	bd30      	pop	{r4, r5, pc}

000d8504 <_ZN11USARTSerialD0Ev>:
   d8504:	b510      	push	{r4, lr}
   d8506:	2114      	movs	r1, #20
   d8508:	4604      	mov	r4, r0
   d850a:	f000 fabe 	bl	d8a8a <_ZdlPvj>
   d850e:	4620      	mov	r0, r4
   d8510:	bd10      	pop	{r4, pc}
	...

000d8514 <_ZN11USARTSerialC1E21hal_usart_interface_tP23hal_usart_ring_buffer_tS2_>:
USARTSerial::USARTSerial(hal_usart_interface_t serial, hal_usart_ring_buffer_t *rx_buffer, hal_usart_ring_buffer_t *tx_buffer)
   d8514:	b510      	push	{r4, lr}
   d8516:	f04f 0c00 	mov.w	ip, #0
   d851a:	4604      	mov	r4, r0
   d851c:	4608      	mov	r0, r1
   d851e:	4611      	mov	r1, r2
   d8520:	f44f 727a 	mov.w	r2, #1000	; 0x3e8
   d8524:	e9c4 c201 	strd	ip, r2, [r4, #4]
   d8528:	4a04      	ldr	r2, [pc, #16]	; (d853c <_ZN11USARTSerialC1E21hal_usart_interface_tP23hal_usart_ring_buffer_tS2_+0x28>)
   d852a:	6022      	str	r2, [r4, #0]
  _blocking = true;
   d852c:	2201      	movs	r2, #1
  _serial = serial;
   d852e:	7420      	strb	r0, [r4, #16]
  _blocking = true;
   d8530:	7462      	strb	r2, [r4, #17]
  hal_usart_init(serial, rx_buffer, tx_buffer);
   d8532:	461a      	mov	r2, r3
   d8534:	f7fe fc0c 	bl	d6d50 <hal_usart_init>
}
   d8538:	4620      	mov	r0, r4
   d853a:	bd10      	pop	{r4, pc}
   d853c:	000da648 	.word	0x000da648

000d8540 <_Z22__fetch_global_Serial1v>:
static hal_usart_ring_buffer_t* serial1_rx_buffer = nullptr;
static hal_usart_ring_buffer_t* serial1_tx_buffer = nullptr;
#endif

USARTSerial& __fetch_global_Serial1()
{
   d8540:	b5f7      	push	{r0, r1, r2, r4, r5, r6, r7, lr}
#if ((MODULE_FUNCTION == MOD_FUNC_USER_PART) || (MODULE_FUNCTION == MOD_FUNC_MONO_FIRMWARE))
	static USARTSerial serial1(HAL_USART_SERIAL1, &serial1_rx_buffer, &serial1_tx_buffer);
#else
  if (!serial1_rx_buffer) {
   d8542:	4c1b      	ldr	r4, [pc, #108]	; (d85b0 <_Z22__fetch_global_Serial1v+0x70>)
   d8544:	6826      	ldr	r6, [r4, #0]
   d8546:	b94e      	cbnz	r6, d855c <_Z22__fetch_global_Serial1v+0x1c>
    serial1_rx_buffer = new hal_usart_ring_buffer_t();
   d8548:	2084      	movs	r0, #132	; 0x84
   d854a:	f7fb fda4 	bl	d4096 <_Znwj>
   d854e:	4605      	mov	r5, r0
   d8550:	b118      	cbz	r0, d855a <_Z22__fetch_global_Serial1v+0x1a>
   d8552:	2284      	movs	r2, #132	; 0x84
   d8554:	4631      	mov	r1, r6
   d8556:	f001 f90b 	bl	d9770 <memset>
   d855a:	6025      	str	r5, [r4, #0]
  }
  if (!serial1_tx_buffer) {
   d855c:	4d15      	ldr	r5, [pc, #84]	; (d85b4 <_Z22__fetch_global_Serial1v+0x74>)
   d855e:	682f      	ldr	r7, [r5, #0]
   d8560:	b94f      	cbnz	r7, d8576 <_Z22__fetch_global_Serial1v+0x36>
    serial1_tx_buffer = new hal_usart_ring_buffer_t();
   d8562:	2084      	movs	r0, #132	; 0x84
   d8564:	f7fb fd97 	bl	d4096 <_Znwj>
   d8568:	4606      	mov	r6, r0
   d856a:	b118      	cbz	r0, d8574 <_Z22__fetch_global_Serial1v+0x34>
   d856c:	2284      	movs	r2, #132	; 0x84
   d856e:	4639      	mov	r1, r7
   d8570:	f001 f8fe 	bl	d9770 <memset>
   d8574:	602e      	str	r6, [r5, #0]
  }
  static USARTSerial serial1(HAL_USART_SERIAL1, serial1_rx_buffer, serial1_tx_buffer);
   d8576:	4e10      	ldr	r6, [pc, #64]	; (d85b8 <_Z22__fetch_global_Serial1v+0x78>)
   d8578:	7831      	ldrb	r1, [r6, #0]
   d857a:	f3bf 8f5b 	dmb	ish
   d857e:	f011 0101 	ands.w	r1, r1, #1
   d8582:	d112      	bne.n	d85aa <_Z22__fetch_global_Serial1v+0x6a>
   d8584:	4630      	mov	r0, r6
   d8586:	9101      	str	r1, [sp, #4]
   d8588:	f7fb fd8b 	bl	d40a2 <__cxa_guard_acquire>
   d858c:	9901      	ldr	r1, [sp, #4]
   d858e:	b160      	cbz	r0, d85aa <_Z22__fetch_global_Serial1v+0x6a>
   d8590:	6822      	ldr	r2, [r4, #0]
   d8592:	682b      	ldr	r3, [r5, #0]
   d8594:	4809      	ldr	r0, [pc, #36]	; (d85bc <_Z22__fetch_global_Serial1v+0x7c>)
   d8596:	f7ff ffbd 	bl	d8514 <_ZN11USARTSerialC1E21hal_usart_interface_tP23hal_usart_ring_buffer_tS2_>
   d859a:	4630      	mov	r0, r6
   d859c:	f7fb fd86 	bl	d40ac <__cxa_guard_release>
   d85a0:	4a07      	ldr	r2, [pc, #28]	; (d85c0 <_Z22__fetch_global_Serial1v+0x80>)
   d85a2:	4908      	ldr	r1, [pc, #32]	; (d85c4 <_Z22__fetch_global_Serial1v+0x84>)
   d85a4:	4805      	ldr	r0, [pc, #20]	; (d85bc <_Z22__fetch_global_Serial1v+0x7c>)
   d85a6:	f000 fa6b 	bl	d8a80 <__aeabi_atexit>
#endif
	return serial1;
}
   d85aa:	4804      	ldr	r0, [pc, #16]	; (d85bc <_Z22__fetch_global_Serial1v+0x7c>)
   d85ac:	b003      	add	sp, #12
   d85ae:	bdf0      	pop	{r4, r5, r6, r7, pc}
   d85b0:	2003e78c 	.word	0x2003e78c
   d85b4:	2003e790 	.word	0x2003e790
   d85b8:	2003e788 	.word	0x2003e788
   d85bc:	2003e794 	.word	0x2003e794
   d85c0:	2003e134 	.word	0x2003e134
   d85c4:	000d8499 	.word	0x000d8499

000d85c8 <_ZN8particle6detail21futureCallbackWrapperEPv>:
 * License along with this library; if not, see <http://www.gnu.org/licenses/>.
 */

#include "spark_wiring_async.h"

void particle::detail::futureCallbackWrapper(void* data) {
   d85c8:	b510      	push	{r4, lr}
      if (_M_empty())
   d85ca:	6883      	ldr	r3, [r0, #8]
   d85cc:	4604      	mov	r4, r0
   d85ce:	b90b      	cbnz	r3, d85d4 <_ZN8particle6detail21futureCallbackWrapperEPv+0xc>
	__throw_bad_function_call();
   d85d0:	f000 fa61 	bl	d8a96 <_ZSt25__throw_bad_function_callv>
      return _M_invoker(_M_functor, std::forward<_ArgTypes>(__args)...);
   d85d4:	68c3      	ldr	r3, [r0, #12]
   d85d6:	4798      	blx	r3
      if (_M_manager)
   d85d8:	68a3      	ldr	r3, [r4, #8]
   d85da:	b11b      	cbz	r3, d85e4 <_ZN8particle6detail21futureCallbackWrapperEPv+0x1c>
	_M_manager(_M_functor, _M_functor, __destroy_functor);
   d85dc:	2203      	movs	r2, #3
   d85de:	4621      	mov	r1, r4
   d85e0:	4620      	mov	r0, r4
   d85e2:	4798      	blx	r3
    auto callbackPtr = static_cast<const std::function<void()>*>(data);
    (*callbackPtr)();
    delete callbackPtr;
   d85e4:	4620      	mov	r0, r4
   d85e6:	2110      	movs	r1, #16
}
   d85e8:	e8bd 4010 	ldmia.w	sp!, {r4, lr}
    delete callbackPtr;
   d85ec:	f000 ba4d 	b.w	d8a8a <_ZdlPvj>

000d85f0 <_ZN7TwoWireD1Ev>:
private:
  hal_i2c_interface_t _i2c;

public:
  TwoWire(hal_i2c_interface_t i2c, const hal_i2c_config_t& config);
  virtual ~TwoWire() {};
   d85f0:	4770      	bx	lr

000d85f2 <_ZN7TwoWire5writeEPKhj>:

// must be called in:
// slave tx event callback
// or after beginTransmission(address)
size_t TwoWire::write(const uint8_t *data, size_t quantity)
{
   d85f2:	b5f8      	push	{r3, r4, r5, r6, r7, lr}
   d85f4:	4606      	mov	r6, r0
   d85f6:	4615      	mov	r5, r2
   d85f8:	460c      	mov	r4, r1
   d85fa:	188f      	adds	r7, r1, r2
  // in master/slave transmitter mode
  for(size_t i = 0; i < quantity; ++i)
   d85fc:	42bc      	cmp	r4, r7
   d85fe:	d006      	beq.n	d860e <_ZN7TwoWire5writeEPKhj+0x1c>
  {
    write(data[i]);
   d8600:	6833      	ldr	r3, [r6, #0]
   d8602:	f814 1b01 	ldrb.w	r1, [r4], #1
   d8606:	689b      	ldr	r3, [r3, #8]
   d8608:	4630      	mov	r0, r6
   d860a:	4798      	blx	r3
  for(size_t i = 0; i < quantity; ++i)
   d860c:	e7f6      	b.n	d85fc <_ZN7TwoWire5writeEPKhj+0xa>
  }

  return quantity;
}
   d860e:	4628      	mov	r0, r5
   d8610:	bdf8      	pop	{r3, r4, r5, r6, r7, pc}

000d8612 <_ZN7TwoWire5writeEh>:
  return hal_i2c_write(_i2c, data, NULL);
   d8612:	7c00      	ldrb	r0, [r0, #16]
   d8614:	2200      	movs	r2, #0
   d8616:	f7fe bbf3 	b.w	d6e00 <hal_i2c_write>

000d861a <_ZN7TwoWire9availableEv>:
// must be called in:
// slave rx event callback
// or after requestFrom(address, numBytes)
int TwoWire::available(void)
{
  return hal_i2c_available(_i2c, NULL);
   d861a:	7c00      	ldrb	r0, [r0, #16]
   d861c:	2100      	movs	r1, #0
   d861e:	f7fe bbf7 	b.w	d6e10 <hal_i2c_available>

000d8622 <_ZN7TwoWire4readEv>:
// must be called in:
// slave rx event callback
// or after requestFrom(address, numBytes)
int TwoWire::read(void)
{
  return hal_i2c_read(_i2c, NULL);
   d8622:	7c00      	ldrb	r0, [r0, #16]
   d8624:	2100      	movs	r1, #0
   d8626:	f7fe bbfb 	b.w	d6e20 <hal_i2c_read>

000d862a <_ZN7TwoWire4peekEv>:
// must be called in:
// slave rx event callback
// or after requestFrom(address, numBytes)
int TwoWire::peek(void)
{
  return hal_i2c_peek(_i2c, NULL);
   d862a:	7c00      	ldrb	r0, [r0, #16]
   d862c:	2100      	movs	r1, #0
   d862e:	f7fe bbff 	b.w	d6e30 <hal_i2c_peek>

000d8632 <_ZN7TwoWire5flushEv>:
}

void TwoWire::flush(void)
{
  hal_i2c_flush(_i2c, NULL);
   d8632:	7c00      	ldrb	r0, [r0, #16]
   d8634:	2100      	movs	r1, #0
   d8636:	f7fe bc03 	b.w	d6e40 <hal_i2c_flush>

000d863a <_ZN7TwoWireD0Ev>:
   d863a:	b510      	push	{r4, lr}
   d863c:	2114      	movs	r1, #20
   d863e:	4604      	mov	r4, r0
   d8640:	f000 fa23 	bl	d8a8a <_ZdlPvj>
   d8644:	4620      	mov	r0, r4
   d8646:	bd10      	pop	{r4, pc}

000d8648 <_ZN7TwoWireC1E19hal_i2c_interface_tRK16hal_i2c_config_t>:
TwoWire::TwoWire(hal_i2c_interface_t i2c, const hal_i2c_config_t& conf)
   d8648:	b510      	push	{r4, lr}
   d864a:	f44f 737a 	mov.w	r3, #1000	; 0x3e8
   d864e:	4604      	mov	r4, r0
   d8650:	4608      	mov	r0, r1
   d8652:	2100      	movs	r1, #0
   d8654:	e9c4 1301 	strd	r1, r3, [r4, #4]
   d8658:	4b03      	ldr	r3, [pc, #12]	; (d8668 <_ZN7TwoWireC1E19hal_i2c_interface_tRK16hal_i2c_config_t+0x20>)
   d865a:	6023      	str	r3, [r4, #0]
  _i2c = i2c;
   d865c:	7420      	strb	r0, [r4, #16]
  hal_i2c_init(_i2c, &conf);
   d865e:	4611      	mov	r1, r2
   d8660:	f7fe fbfe 	bl	d6e60 <hal_i2c_init>
}
   d8664:	4620      	mov	r0, r4
   d8666:	bd10      	pop	{r4, pc}
   d8668:	000da678 	.word	0x000da678

000d866c <_ZN7TwoWire5beginEv>:
	hal_i2c_begin(_i2c, I2C_MODE_MASTER, 0x00, NULL);
   d866c:	2300      	movs	r3, #0
   d866e:	7c00      	ldrb	r0, [r0, #16]
   d8670:	461a      	mov	r2, r3
   d8672:	4619      	mov	r1, r3
   d8674:	f7fe bbac 	b.w	d6dd0 <hal_i2c_begin>

000d8678 <_ZN7TwoWire11requestFromERK16WireTransmission>:
size_t TwoWire::requestFrom(const WireTransmission& transfer) {
   d8678:	b57f      	push	{r0, r1, r2, r3, r4, r5, r6, lr}
    hal_i2c_transmission_config_t conf = {
   d867a:	2200      	movs	r2, #0
   d867c:	2314      	movs	r3, #20
   d867e:	e9cd 2201 	strd	r2, r2, [sp, #4]
   d8682:	f8ad 3004 	strh.w	r3, [sp, #4]
    };
   d8686:	780b      	ldrb	r3, [r1, #0]
   d8688:	f88d 3008 	strb.w	r3, [sp, #8]
   d868c:	684b      	ldr	r3, [r1, #4]
   d868e:	9303      	str	r3, [sp, #12]
   d8690:	68cb      	ldr	r3, [r1, #12]
   d8692:	9304      	str	r3, [sp, #16]
  return hal_i2c_request_ex(_i2c, &conf, nullptr);
   d8694:	7c00      	ldrb	r0, [r0, #16]
      .flags = (uint32_t)(stop_ ? HAL_I2C_TRANSMISSION_FLAG_STOP : 0)
   d8696:	7a0b      	ldrb	r3, [r1, #8]
   d8698:	9305      	str	r3, [sp, #20]
   d869a:	a901      	add	r1, sp, #4
   d869c:	f7fe fbf8 	bl	d6e90 <hal_i2c_request_ex>
}
   d86a0:	b007      	add	sp, #28
   d86a2:	f85d fb04 	ldr.w	pc, [sp], #4

000d86a6 <_ZN7TwoWire11requestFromEhjh>:
{
   d86a6:	b51f      	push	{r0, r1, r2, r3, r4, lr}
  return requestFrom(WireTransmission(address).quantity(quantity).stop(sendStop));
   d86a8:	3b00      	subs	r3, #0
        timeout_{HAL_I2C_DEFAULT_TIMEOUT_MS} {
   d86aa:	f88d 1000 	strb.w	r1, [sp]
   d86ae:	f04f 0164 	mov.w	r1, #100	; 0x64
   d86b2:	9103      	str	r1, [sp, #12]
   d86b4:	bf18      	it	ne
   d86b6:	2301      	movne	r3, #1
   d86b8:	4669      	mov	r1, sp
    size_ = size;
   d86ba:	9201      	str	r2, [sp, #4]
   d86bc:	f88d 3008 	strb.w	r3, [sp, #8]
   d86c0:	f7ff ffda 	bl	d8678 <_ZN7TwoWire11requestFromERK16WireTransmission>
}
   d86c4:	b005      	add	sp, #20
   d86c6:	f85d fb04 	ldr.w	pc, [sp], #4

000d86ca <_ZN7TwoWire11requestFromEhj>:
  return requestFrom(address, quantity, (uint8_t)true);
   d86ca:	2301      	movs	r3, #1
   d86cc:	f7ff bfeb 	b.w	d86a6 <_ZN7TwoWire11requestFromEhjh>

000d86d0 <_ZN7TwoWire17beginTransmissionEh>:
	hal_i2c_begin_transmission(_i2c, address, NULL);
   d86d0:	7c00      	ldrb	r0, [r0, #16]
   d86d2:	2200      	movs	r2, #0
   d86d4:	f7fe bb84 	b.w	d6de0 <hal_i2c_begin_transmission>

000d86d8 <_ZN7TwoWire17beginTransmissionERK16WireTransmission>:
void TwoWire::beginTransmission(const WireTransmission& transfer) {
   d86d8:	b57f      	push	{r0, r1, r2, r3, r4, r5, r6, lr}
    hal_i2c_transmission_config_t conf = {
   d86da:	2300      	movs	r3, #0
   d86dc:	e9cd 3301 	strd	r3, r3, [sp, #4]
    };
   d86e0:	684a      	ldr	r2, [r1, #4]
   d86e2:	9203      	str	r2, [sp, #12]
    hal_i2c_transmission_config_t conf = {
   d86e4:	2314      	movs	r3, #20
    };
   d86e6:	68ca      	ldr	r2, [r1, #12]
    hal_i2c_transmission_config_t conf = {
   d86e8:	f8ad 3004 	strh.w	r3, [sp, #4]
      .address = address_,
   d86ec:	780b      	ldrb	r3, [r1, #0]
    };
   d86ee:	9204      	str	r2, [sp, #16]
      .flags = (uint32_t)(stop_ ? HAL_I2C_TRANSMISSION_FLAG_STOP : 0)
   d86f0:	7a0a      	ldrb	r2, [r1, #8]
   d86f2:	9205      	str	r2, [sp, #20]
  hal_i2c_begin_transmission(_i2c, conf.address, &conf);
   d86f4:	7c00      	ldrb	r0, [r0, #16]
    };
   d86f6:	f88d 3008 	strb.w	r3, [sp, #8]
   d86fa:	aa01      	add	r2, sp, #4
   d86fc:	4619      	mov	r1, r3
   d86fe:	f7fe fb6f 	bl	d6de0 <hal_i2c_begin_transmission>
}
   d8702:	b007      	add	sp, #28
   d8704:	f85d fb04 	ldr.w	pc, [sp], #4

000d8708 <_ZN7TwoWire15endTransmissionEh>:
	return hal_i2c_end_transmission(_i2c, sendStop, NULL);
   d8708:	7c00      	ldrb	r0, [r0, #16]
   d870a:	2200      	movs	r2, #0
   d870c:	f7fe bb70 	b.w	d6df0 <hal_i2c_end_transmission>

000d8710 <_ZN7TwoWire15endTransmissionEv>:
  return endTransmission(true);
   d8710:	2101      	movs	r1, #1
   d8712:	f7ff bff9 	b.w	d8708 <_ZN7TwoWire15endTransmissionEh>

000d8716 <_ZN7TwoWire4lockEv>:
{
  hal_i2c_reset(_i2c, 0, NULL);
}

bool TwoWire::lock()
{
   d8716:	b508      	push	{r3, lr}
  return hal_i2c_lock(_i2c, NULL) == 0;
   d8718:	2100      	movs	r1, #0
   d871a:	7c00      	ldrb	r0, [r0, #16]
   d871c:	f7fe fba8 	bl	d6e70 <hal_i2c_lock>
}
   d8720:	fab0 f080 	clz	r0, r0
   d8724:	0940      	lsrs	r0, r0, #5
   d8726:	bd08      	pop	{r3, pc}

000d8728 <_ZN7TwoWire6unlockEv>:

bool TwoWire::unlock()
{
   d8728:	b508      	push	{r3, lr}
  return hal_i2c_unlock(_i2c, NULL) == 0;
   d872a:	2100      	movs	r1, #0
   d872c:	7c00      	ldrb	r0, [r0, #16]
   d872e:	f7fe fba7 	bl	d6e80 <hal_i2c_unlock>
}
   d8732:	fab0 f080 	clz	r0, r0
   d8736:	0940      	lsrs	r0, r0, #5
   d8738:	bd08      	pop	{r3, pc}

000d873a <_ZN5spark12NetworkClass7connectEj>:
        return Network;
    }
}

void NetworkClass::connect(unsigned flags) {
    network_connect(*this, flags, 0, nullptr);
   d873a:	2300      	movs	r3, #0
   d873c:	6840      	ldr	r0, [r0, #4]
   d873e:	461a      	mov	r2, r3
   d8740:	f7fe bc44 	b.w	d6fcc <network_connect>

000d8744 <_ZN5spark12NetworkClass10disconnectEv>:
}

void NetworkClass::disconnect() {
    network_disconnect(*this, NETWORK_DISCONNECT_REASON_USER, nullptr);
   d8744:	6840      	ldr	r0, [r0, #4]
   d8746:	2200      	movs	r2, #0
   d8748:	2102      	movs	r1, #2
   d874a:	f7fe bc4f 	b.w	d6fec <network_disconnect>

000d874e <_ZN5spark12NetworkClass10connectingEv>:
}

bool NetworkClass::connecting() {
    return network_connecting(*this, 0, nullptr);
   d874e:	2200      	movs	r2, #0
   d8750:	6840      	ldr	r0, [r0, #4]
   d8752:	4611      	mov	r1, r2
   d8754:	f7fe bc42 	b.w	d6fdc <network_connecting>

000d8758 <_ZN5spark12NetworkClass5readyEv>:
}

bool NetworkClass::ready() {
    return network_ready(*this, 0, nullptr);
   d8758:	2200      	movs	r2, #0
   d875a:	6840      	ldr	r0, [r0, #4]
   d875c:	4611      	mov	r1, r2
   d875e:	f7fe bc4d 	b.w	d6ffc <network_ready>

000d8762 <_ZN5spark12NetworkClass2onEv>:
}

void NetworkClass::on() {
    network_on(*this, 0, 0, nullptr);
   d8762:	2300      	movs	r3, #0
   d8764:	6840      	ldr	r0, [r0, #4]
   d8766:	461a      	mov	r2, r3
   d8768:	4619      	mov	r1, r3
   d876a:	f7fe bc4f 	b.w	d700c <network_on>

000d876e <_ZN5spark12NetworkClass3offEv>:
}

void NetworkClass::off() {
    network_off(*this, 0, 0, nullptr);
   d876e:	2300      	movs	r3, #0
   d8770:	6840      	ldr	r0, [r0, #4]
   d8772:	461a      	mov	r2, r3
   d8774:	4619      	mov	r1, r3
   d8776:	f7fe bc51 	b.w	d701c <network_off>

000d877a <_ZN5spark12NetworkClass6listenEb>:
}

void NetworkClass::listen(bool begin) {
    network_listen(*this, begin ? 0 : 1, nullptr);
   d877a:	6840      	ldr	r0, [r0, #4]
   d877c:	2200      	movs	r2, #0
   d877e:	f081 0101 	eor.w	r1, r1, #1
   d8782:	f7fe bc53 	b.w	d702c <network_listen>

000d8786 <_ZN5spark12NetworkClass16setListenTimeoutEt>:
}

void NetworkClass::setListenTimeout(uint16_t timeout) {
    network_set_listen_timeout(*this, timeout, nullptr);
   d8786:	6840      	ldr	r0, [r0, #4]
   d8788:	2200      	movs	r2, #0
   d878a:	f7fe bc5f 	b.w	d704c <network_set_listen_timeout>

000d878e <_ZN5spark12NetworkClass16getListenTimeoutEv>:
}

uint16_t NetworkClass::getListenTimeout() {
    return network_get_listen_timeout(*this, 0, nullptr);
   d878e:	2200      	movs	r2, #0
   d8790:	6840      	ldr	r0, [r0, #4]
   d8792:	4611      	mov	r1, r2
   d8794:	f7fe bc62 	b.w	d705c <network_get_listen_timeout>

000d8798 <_ZN5spark12NetworkClass9listeningEv>:
}

bool NetworkClass::listening() {
    return network_listening(*this, 0, nullptr);
   d8798:	2200      	movs	r2, #0
   d879a:	6840      	ldr	r0, [r0, #4]
   d879c:	4611      	mov	r1, r2
   d879e:	f7fe bc4d 	b.w	d703c <network_listening>

000d87a2 <_ZN5spark12NetworkClass7resolveEPKc>:
}

IPAddress NetworkClass::resolve(const char* name) {
   d87a2:	e92d 43f0 	stmdb	sp!, {r4, r5, r6, r7, r8, r9, lr}
    IPAddress addr;
#if HAL_USE_INET_HAL_POSIX
    struct addrinfo *ai = nullptr;
   d87a6:	2400      	movs	r4, #0
IPAddress NetworkClass::resolve(const char* name) {
   d87a8:	b095      	sub	sp, #84	; 0x54
   d87aa:	4616      	mov	r6, r2
   d87ac:	460d      	mov	r5, r1
   d87ae:	4607      	mov	r7, r0
    IPAddress addr;
   d87b0:	f7ff fd68 	bl	d8284 <_ZN9IPAddressC1Ev>
    struct addrinfo hints = {};
   d87b4:	4621      	mov	r1, r4
   d87b6:	2218      	movs	r2, #24
   d87b8:	a80e      	add	r0, sp, #56	; 0x38
    struct addrinfo *ai = nullptr;
   d87ba:	9400      	str	r4, [sp, #0]
    struct addrinfo hints = {};
   d87bc:	f000 ffd8 	bl	d9770 <memset>
    hints.ai_flags = AI_ADDRCONFIG;
   d87c0:	2340      	movs	r3, #64	; 0x40
    hints.ai_family = AF_UNSPEC;
   d87c2:	e9cd 340c 	strd	r3, r4, [sp, #48]	; 0x30
    const int r = getaddrinfo(name, nullptr, &hints, &ai);
   d87c6:	4621      	mov	r1, r4
   d87c8:	466b      	mov	r3, sp
   d87ca:	aa0c      	add	r2, sp, #48	; 0x30
   d87cc:	4630      	mov	r0, r6
   d87ce:	f7fe fa67 	bl	d6ca0 <netdb_getaddrinfo>
    if (!r) {
   d87d2:	4604      	mov	r4, r0
   d87d4:	2800      	cmp	r0, #0
   d87d6:	d146      	bne.n	d8866 <_ZN5spark12NetworkClass7resolveEPKc+0xc4>
        bool ok = false;
        // This is not really needed if AI_ADDRCONFIG is properly supported
        bool ipv4 = network_ready(*this, NETWORK_READY_TYPE_IPV4, nullptr);
   d87d8:	4602      	mov	r2, r0
   d87da:	2101      	movs	r1, #1
   d87dc:	6868      	ldr	r0, [r5, #4]
   d87de:	f7fe fc0d 	bl	d6ffc <network_ready>
        bool ipv6 = network_ready(*this, NETWORK_READY_TYPE_IPV6, nullptr);
   d87e2:	2102      	movs	r1, #2
        bool ipv4 = network_ready(*this, NETWORK_READY_TYPE_IPV4, nullptr);
   d87e4:	4680      	mov	r8, r0
        bool ipv6 = network_ready(*this, NETWORK_READY_TYPE_IPV6, nullptr);
   d87e6:	4622      	mov	r2, r4
   d87e8:	6868      	ldr	r0, [r5, #4]
   d87ea:	f7fe fc07 	bl	d6ffc <network_ready>
        for (auto cur = ai; cur != nullptr && !ok; cur = cur->ai_next) {
   d87ee:	9e00      	ldr	r6, [sp, #0]
        bool ipv6 = network_ready(*this, NETWORK_READY_TYPE_IPV6, nullptr);
   d87f0:	4681      	mov	r9, r0
        bool ok = false;
   d87f2:	4621      	mov	r1, r4
        for (auto cur = ai; cur != nullptr && !ok; cur = cur->ai_next) {
   d87f4:	2e00      	cmp	r6, #0
   d87f6:	d036      	beq.n	d8866 <_ZN5spark12NetworkClass7resolveEPKc+0xc4>
   d87f8:	2900      	cmp	r1, #0
   d87fa:	d134      	bne.n	d8866 <_ZN5spark12NetworkClass7resolveEPKc+0xc4>
            // NOTE: using only the first entry that matches the current state of IPv4/IPv6 connectivity
            switch (cur->ai_family) {
   d87fc:	6873      	ldr	r3, [r6, #4]
   d87fe:	2b02      	cmp	r3, #2
   d8800:	d003      	beq.n	d880a <_ZN5spark12NetworkClass7resolveEPKc+0x68>
   d8802:	2b0a      	cmp	r3, #10
   d8804:	d00b      	beq.n	d881e <_ZN5spark12NetworkClass7resolveEPKc+0x7c>
        for (auto cur = ai; cur != nullptr && !ok; cur = cur->ai_next) {
   d8806:	69f6      	ldr	r6, [r6, #28]
   d8808:	e7f4      	b.n	d87f4 <_ZN5spark12NetworkClass7resolveEPKc+0x52>
                case AF_INET: {
                    if (!ipv4) {
   d880a:	f1b8 0f00 	cmp.w	r8, #0
   d880e:	d004      	beq.n	d881a <_ZN5spark12NetworkClass7resolveEPKc+0x78>
                        continue;
                    }
                    // NOTE: HAL_IPAddress is little-endian
                    auto in = (struct sockaddr_in*)cur->ai_addr;
                    addr = (const uint8_t*)(&in->sin_addr.s_addr);
   d8810:	6971      	ldr	r1, [r6, #20]
   d8812:	4638      	mov	r0, r7
   d8814:	3104      	adds	r1, #4
   d8816:	f7ff fd62 	bl	d82de <_ZN9IPAddressaSEPKh>
                    ok = true;
                    break;
   d881a:	4641      	mov	r1, r8
   d881c:	e7f3      	b.n	d8806 <_ZN5spark12NetworkClass7resolveEPKc+0x64>
                }
                case AF_INET6: {
                    if (!ipv6) {
   d881e:	f1b9 0f00 	cmp.w	r9, #0
   d8822:	d101      	bne.n	d8828 <_ZN5spark12NetworkClass7resolveEPKc+0x86>
                    auto in6 = (struct sockaddr_in6*)cur->ai_addr;
                    HAL_IPAddress a = {};
                    a.v = 6;
                    memcpy(a.ipv6, in6->sin6_addr.s6_addr, sizeof(a.ipv6));
                    addr = IPAddress(a);
                    ok = true;
   d8824:	4649      	mov	r1, r9
   d8826:	e7ee      	b.n	d8806 <_ZN5spark12NetworkClass7resolveEPKc+0x64>
                    auto in6 = (struct sockaddr_in6*)cur->ai_addr;
   d8828:	6974      	ldr	r4, [r6, #20]
                    HAL_IPAddress a = {};
   d882a:	2210      	movs	r2, #16
   d882c:	a801      	add	r0, sp, #4
   d882e:	f000 ff9f 	bl	d9770 <memset>
                    a.v = 6;
   d8832:	2306      	movs	r3, #6
   d8834:	f88d 3014 	strb.w	r3, [sp, #20]
                    memcpy(a.ipv6, in6->sin6_addr.s6_addr, sizeof(a.ipv6));
   d8838:	ad01      	add	r5, sp, #4
   d883a:	f104 0308 	add.w	r3, r4, #8
   d883e:	3418      	adds	r4, #24
   d8840:	6818      	ldr	r0, [r3, #0]
   d8842:	6859      	ldr	r1, [r3, #4]
   d8844:	462a      	mov	r2, r5
   d8846:	c203      	stmia	r2!, {r0, r1}
   d8848:	3308      	adds	r3, #8
   d884a:	42a3      	cmp	r3, r4
   d884c:	4615      	mov	r5, r2
   d884e:	d1f7      	bne.n	d8840 <_ZN5spark12NetworkClass7resolveEPKc+0x9e>
                    addr = IPAddress(a);
   d8850:	a901      	add	r1, sp, #4
   d8852:	a806      	add	r0, sp, #24
class IPAddress : public Printable {
   d8854:	ad07      	add	r5, sp, #28
   d8856:	f7ff fd23 	bl	d82a0 <_ZN9IPAddressC1ERK16_HAL_IPAddress_t>
   d885a:	cd0f      	ldmia	r5!, {r0, r1, r2, r3}
   d885c:	1d3c      	adds	r4, r7, #4
   d885e:	c40f      	stmia	r4!, {r0, r1, r2, r3}
   d8860:	682b      	ldr	r3, [r5, #0]
   d8862:	7023      	strb	r3, [r4, #0]
   d8864:	e7de      	b.n	d8824 <_ZN5spark12NetworkClass7resolveEPKc+0x82>
                    break;
                }
            }
        }
    }
    freeaddrinfo(ai);
   d8866:	9800      	ldr	r0, [sp, #0]
   d8868:	f7fe fa12 	bl	d6c90 <netdb_freeaddrinfo>
    return Cellular.resolve(name);
#endif // Wiring_Cellular

#endif // HAL_USE_INET_HAL_POSIX
    return addr;
}
   d886c:	4638      	mov	r0, r7
   d886e:	b015      	add	sp, #84	; 0x54
   d8870:	e8bd 83f0 	ldmia.w	sp!, {r4, r5, r6, r7, r8, r9, pc}

000d8874 <_GLOBAL__sub_I__ZN5spark7NetworkE>:
   d8874:	4b02      	ldr	r3, [pc, #8]	; (d8880 <_GLOBAL__sub_I__ZN5spark7NetworkE+0xc>)
   d8876:	4a03      	ldr	r2, [pc, #12]	; (d8884 <_GLOBAL__sub_I__ZN5spark7NetworkE+0x10>)
   d8878:	601a      	str	r2, [r3, #0]
   d887a:	2200      	movs	r2, #0
   d887c:	605a      	str	r2, [r3, #4]

} // spark
   d887e:	4770      	bx	lr
   d8880:	2003e7a8 	.word	0x2003e7a8
   d8884:	000da6a0 	.word	0x000da6a0

000d8888 <pinAvailable>:
/*
 * @brief Perform safety check on desired pin to see if it's already
 * being used.  Return 0 if used, otherwise return 1 if available.
 */
bool pinAvailable(uint16_t pin) {
  if (pin >= TOTAL_PINS) {
   d8888:	2823      	cmp	r0, #35	; 0x23
bool pinAvailable(uint16_t pin) {
   d888a:	b513      	push	{r0, r1, r4, lr}
  if (pin >= TOTAL_PINS) {
   d888c:	d902      	bls.n	d8894 <pinAvailable+0xc>
    return false;
   d888e:	2000      	movs	r0, #0
    return false; // 'pin' is used
  }
#endif

  return true; // 'pin' is available
}
   d8890:	b002      	add	sp, #8
   d8892:	bd10      	pop	{r4, pc}
  if((pin == SCK || pin == MOSI || pin == MISO) && hal_spi_is_enabled(SPI.interface()) == true)
   d8894:	f1a0 030b 	sub.w	r3, r0, #11
   d8898:	2b02      	cmp	r3, #2
   d889a:	d81a      	bhi.n	d88d2 <pinAvailable+0x4a>

template <hal_spi_interface_t Interface>
class SpiProxy {
public:
    static SPIClass& instance() {
        static SPIClass instance(Interface);
   d889c:	4c17      	ldr	r4, [pc, #92]	; (d88fc <pinAvailable+0x74>)
   d889e:	7821      	ldrb	r1, [r4, #0]
   d88a0:	f3bf 8f5b 	dmb	ish
   d88a4:	f011 0101 	ands.w	r1, r1, #1
   d88a8:	d10b      	bne.n	d88c2 <pinAvailable+0x3a>
   d88aa:	4620      	mov	r0, r4
   d88ac:	9101      	str	r1, [sp, #4]
   d88ae:	f7fb fbf8 	bl	d40a2 <__cxa_guard_acquire>
   d88b2:	9901      	ldr	r1, [sp, #4]
   d88b4:	b128      	cbz	r0, d88c2 <pinAvailable+0x3a>
   d88b6:	4812      	ldr	r0, [pc, #72]	; (d8900 <pinAvailable+0x78>)
   d88b8:	f7fe fd06 	bl	d72c8 <_ZN8SPIClassC1E19hal_spi_interface_t>
   d88bc:	4620      	mov	r0, r4
   d88be:	f7fb fbf5 	bl	d40ac <__cxa_guard_release>
   d88c2:	4b0f      	ldr	r3, [pc, #60]	; (d8900 <pinAvailable+0x78>)
   d88c4:	7818      	ldrb	r0, [r3, #0]
   d88c6:	f7fe faf3 	bl	d6eb0 <hal_spi_is_enabled>
   d88ca:	2800      	cmp	r0, #0
   d88cc:	d1df      	bne.n	d888e <pinAvailable+0x6>
  return true; // 'pin' is available
   d88ce:	2001      	movs	r0, #1
   d88d0:	e7de      	b.n	d8890 <pinAvailable+0x8>
  if((pin == SCL || pin == SDA) && hal_i2c_is_enabled(Wire.interface(), nullptr) == true)
   d88d2:	2801      	cmp	r0, #1
   d88d4:	d809      	bhi.n	d88ea <pinAvailable+0x62>
   d88d6:	f000 f883 	bl	d89e0 <_Z19__fetch_global_Wirev>
   d88da:	2100      	movs	r1, #0
   d88dc:	7c00      	ldrb	r0, [r0, #16]
   d88de:	f7fe fab7 	bl	d6e50 <hal_i2c_is_enabled>
  if((pin == RX || pin == TX) && hal_usart_is_enabled(Serial1.interface()) == true)
   d88e2:	f080 0001 	eor.w	r0, r0, #1
   d88e6:	b2c0      	uxtb	r0, r0
   d88e8:	e7d2      	b.n	d8890 <pinAvailable+0x8>
   d88ea:	3809      	subs	r0, #9
   d88ec:	2801      	cmp	r0, #1
   d88ee:	d8ee      	bhi.n	d88ce <pinAvailable+0x46>
   d88f0:	f7ff fe26 	bl	d8540 <_Z22__fetch_global_Serial1v>
   d88f4:	7c00      	ldrb	r0, [r0, #16]
   d88f6:	f7fe fa5b 	bl	d6db0 <hal_usart_is_enabled>
   d88fa:	e7f2      	b.n	d88e2 <pinAvailable+0x5a>
   d88fc:	2003e7b0 	.word	0x2003e7b0
   d8900:	2003e7b4 	.word	0x2003e7b4

000d8904 <pinMode>:
  if(pin >= TOTAL_PINS || setMode == PIN_MODE_NONE )
   d8904:	2823      	cmp	r0, #35	; 0x23
{
   d8906:	b538      	push	{r3, r4, r5, lr}
   d8908:	4604      	mov	r4, r0
   d890a:	460d      	mov	r5, r1
  if(pin >= TOTAL_PINS || setMode == PIN_MODE_NONE )
   d890c:	d80a      	bhi.n	d8924 <pinMode+0x20>
   d890e:	29ff      	cmp	r1, #255	; 0xff
   d8910:	d008      	beq.n	d8924 <pinMode+0x20>
  if( !pinAvailable(pin) ) {
   d8912:	f7ff ffb9 	bl	d8888 <pinAvailable>
   d8916:	b128      	cbz	r0, d8924 <pinMode+0x20>
  HAL_Pin_Mode(pin, setMode);
   d8918:	4629      	mov	r1, r5
   d891a:	4620      	mov	r0, r4
}
   d891c:	e8bd 4038 	ldmia.w	sp!, {r3, r4, r5, lr}
  HAL_Pin_Mode(pin, setMode);
   d8920:	f7fe b9c6 	b.w	d6cb0 <HAL_Pin_Mode>
}
   d8924:	bd38      	pop	{r3, r4, r5, pc}

000d8926 <digitalWrite>:

/*
 * @brief Sets a GPIO pin to HIGH or LOW.
 */
void digitalWrite(pin_t pin, uint8_t value)
{
   d8926:	b538      	push	{r3, r4, r5, lr}
   d8928:	4604      	mov	r4, r0
   d892a:	460d      	mov	r5, r1
    PinMode mode = HAL_Get_Pin_Mode(pin);
   d892c:	f7fe f9c8 	bl	d6cc0 <HAL_Get_Pin_Mode>
    if (mode==PIN_MODE_NONE || is_input_mode(mode))
   d8930:	28ff      	cmp	r0, #255	; 0xff
   d8932:	d010      	beq.n	d8956 <digitalWrite+0x30>
            mode == INPUT_PULLDOWN ||
   d8934:	2806      	cmp	r0, #6
   d8936:	d804      	bhi.n	d8942 <digitalWrite+0x1c>
   d8938:	234d      	movs	r3, #77	; 0x4d
   d893a:	fa23 f000 	lsr.w	r0, r3, r0
   d893e:	07c3      	lsls	r3, r0, #31
   d8940:	d409      	bmi.n	d8956 <digitalWrite+0x30>
        return;
  // Safety check
  if( !pinAvailable(pin) ) {
   d8942:	4620      	mov	r0, r4
   d8944:	f7ff ffa0 	bl	d8888 <pinAvailable>
   d8948:	b128      	cbz	r0, d8956 <digitalWrite+0x30>
    return;
  }

  HAL_GPIO_Write(pin, value);
   d894a:	4629      	mov	r1, r5
   d894c:	4620      	mov	r0, r4
}
   d894e:	e8bd 4038 	ldmia.w	sp!, {r3, r4, r5, lr}
  HAL_GPIO_Write(pin, value);
   d8952:	f7fe b9bd 	b.w	d6cd0 <HAL_GPIO_Write>
}
   d8956:	bd38      	pop	{r3, r4, r5, pc}

000d8958 <digitalRead>:

/*
 * @brief Reads the value of a GPIO pin. Should return either 1 (HIGH) or 0 (LOW).
 */
int32_t digitalRead(pin_t pin)
{
   d8958:	b510      	push	{r4, lr}
   d895a:	4604      	mov	r4, r0
    PinMode mode = HAL_Get_Pin_Mode(pin);
   d895c:	f7fe f9b0 	bl	d6cc0 <HAL_Get_Pin_Mode>
    return mode == AF_OUTPUT_PUSHPULL ||
   d8960:	1f03      	subs	r3, r0, #4
    if (is_af_output_mode(mode))
   d8962:	b2db      	uxtb	r3, r3
   d8964:	2b01      	cmp	r3, #1
   d8966:	d908      	bls.n	d897a <digitalRead+0x22>
        return LOW;

    // Safety check
    if( !pinAvailable(pin) ) {
   d8968:	4620      	mov	r0, r4
   d896a:	f7ff ff8d 	bl	d8888 <pinAvailable>
   d896e:	b120      	cbz	r0, d897a <digitalRead+0x22>
      return LOW;
    }

    return HAL_GPIO_Read(pin);
   d8970:	4620      	mov	r0, r4
}
   d8972:	e8bd 4010 	ldmia.w	sp!, {r4, lr}
    return HAL_GPIO_Read(pin);
   d8976:	f7fe b9b3 	b.w	d6ce0 <HAL_GPIO_Read>
}
   d897a:	2000      	movs	r0, #0
   d897c:	bd10      	pop	{r4, pc}
	...

000d8980 <_Z17acquireWireBufferv>:
}

} // anonymous

hal_i2c_config_t __attribute__((weak)) acquireWireBuffer()
{
   d8980:	b538      	push	{r3, r4, r5, lr}
	hal_i2c_config_t config = {
   d8982:	2300      	movs	r3, #0
   d8984:	2520      	movs	r5, #32
   d8986:	8043      	strh	r3, [r0, #2]
   d8988:	2314      	movs	r3, #20
{
   d898a:	4604      	mov	r4, r0
	hal_i2c_config_t config = {
   d898c:	8003      	strh	r3, [r0, #0]
   d898e:	6085      	str	r5, [r0, #8]
   d8990:	6105      	str	r5, [r0, #16]
		.rx_buffer = new (std::nothrow) uint8_t[I2C_BUFFER_LENGTH],
   d8992:	4906      	ldr	r1, [pc, #24]	; (d89ac <_Z17acquireWireBufferv+0x2c>)
   d8994:	4628      	mov	r0, r5
   d8996:	f000 f87c 	bl	d8a92 <_ZnajRKSt9nothrow_t>
		.tx_buffer = new (std::nothrow) uint8_t[I2C_BUFFER_LENGTH],
   d899a:	4904      	ldr	r1, [pc, #16]	; (d89ac <_Z17acquireWireBufferv+0x2c>)
	};
   d899c:	6060      	str	r0, [r4, #4]
		.tx_buffer = new (std::nothrow) uint8_t[I2C_BUFFER_LENGTH],
   d899e:	4628      	mov	r0, r5
   d89a0:	f000 f877 	bl	d8a92 <_ZnajRKSt9nothrow_t>
	};
   d89a4:	60e0      	str	r0, [r4, #12]
	return defaultWireConfig();
}
   d89a6:	4620      	mov	r0, r4
   d89a8:	bd38      	pop	{r3, r4, r5, pc}
   d89aa:	bf00      	nop
   d89ac:	000da6cc 	.word	0x000da6cc

000d89b0 <_Z18acquireWire1Bufferv>:
   d89b0:	b538      	push	{r3, r4, r5, lr}
   d89b2:	2300      	movs	r3, #0
   d89b4:	2520      	movs	r5, #32
   d89b6:	8043      	strh	r3, [r0, #2]
   d89b8:	2314      	movs	r3, #20
   d89ba:	4604      	mov	r4, r0
   d89bc:	8003      	strh	r3, [r0, #0]
   d89be:	6085      	str	r5, [r0, #8]
   d89c0:	6105      	str	r5, [r0, #16]
   d89c2:	4906      	ldr	r1, [pc, #24]	; (d89dc <_Z18acquireWire1Bufferv+0x2c>)
   d89c4:	4628      	mov	r0, r5
   d89c6:	f000 f864 	bl	d8a92 <_ZnajRKSt9nothrow_t>
   d89ca:	4904      	ldr	r1, [pc, #16]	; (d89dc <_Z18acquireWire1Bufferv+0x2c>)
   d89cc:	6060      	str	r0, [r4, #4]
   d89ce:	4628      	mov	r0, r5
   d89d0:	f000 f85f 	bl	d8a92 <_ZnajRKSt9nothrow_t>
   d89d4:	60e0      	str	r0, [r4, #12]
   d89d6:	4620      	mov	r0, r4
   d89d8:	bd38      	pop	{r3, r4, r5, pc}
   d89da:	bf00      	nop
   d89dc:	000da6cc 	.word	0x000da6cc

000d89e0 <_Z19__fetch_global_Wirev>:
	return defaultWireConfig();
}
#endif

TwoWire& __fetch_global_Wire()
{
   d89e0:	b530      	push	{r4, r5, lr}
	static TwoWire wire(HAL_I2C_INTERFACE1, acquireWireBuffer());
   d89e2:	4d0f      	ldr	r5, [pc, #60]	; (d8a20 <_Z19__fetch_global_Wirev+0x40>)
   d89e4:	7829      	ldrb	r1, [r5, #0]
   d89e6:	f3bf 8f5b 	dmb	ish
   d89ea:	f011 0401 	ands.w	r4, r1, #1
{
   d89ee:	b087      	sub	sp, #28
	static TwoWire wire(HAL_I2C_INTERFACE1, acquireWireBuffer());
   d89f0:	d113      	bne.n	d8a1a <_Z19__fetch_global_Wirev+0x3a>
   d89f2:	4628      	mov	r0, r5
   d89f4:	f7fb fb55 	bl	d40a2 <__cxa_guard_acquire>
   d89f8:	b178      	cbz	r0, d8a1a <_Z19__fetch_global_Wirev+0x3a>
   d89fa:	a801      	add	r0, sp, #4
   d89fc:	f7ff ffc0 	bl	d8980 <_Z17acquireWireBufferv>
   d8a00:	aa01      	add	r2, sp, #4
   d8a02:	4621      	mov	r1, r4
   d8a04:	4807      	ldr	r0, [pc, #28]	; (d8a24 <_Z19__fetch_global_Wirev+0x44>)
   d8a06:	f7ff fe1f 	bl	d8648 <_ZN7TwoWireC1E19hal_i2c_interface_tRK16hal_i2c_config_t>
   d8a0a:	4628      	mov	r0, r5
   d8a0c:	f7fb fb4e 	bl	d40ac <__cxa_guard_release>
   d8a10:	4a05      	ldr	r2, [pc, #20]	; (d8a28 <_Z19__fetch_global_Wirev+0x48>)
   d8a12:	4906      	ldr	r1, [pc, #24]	; (d8a2c <_Z19__fetch_global_Wirev+0x4c>)
   d8a14:	4803      	ldr	r0, [pc, #12]	; (d8a24 <_Z19__fetch_global_Wirev+0x44>)
   d8a16:	f000 f833 	bl	d8a80 <__aeabi_atexit>
	return wire;
}
   d8a1a:	4802      	ldr	r0, [pc, #8]	; (d8a24 <_Z19__fetch_global_Wirev+0x44>)
   d8a1c:	b007      	add	sp, #28
   d8a1e:	bd30      	pop	{r4, r5, pc}
   d8a20:	2003e7c0 	.word	0x2003e7c0
   d8a24:	2003e7c8 	.word	0x2003e7c8
   d8a28:	2003e134 	.word	0x2003e134
   d8a2c:	000d85f1 	.word	0x000d85f1

000d8a30 <_Z20__fetch_global_Wire1v>:

#if Wiring_Wire1
TwoWire& __fetch_global_Wire1()
{
   d8a30:	b510      	push	{r4, lr}
	static TwoWire wire(HAL_I2C_INTERFACE2, acquireWire1Buffer());
   d8a32:	4c0f      	ldr	r4, [pc, #60]	; (d8a70 <_Z20__fetch_global_Wire1v+0x40>)
   d8a34:	7823      	ldrb	r3, [r4, #0]
   d8a36:	f3bf 8f5b 	dmb	ish
   d8a3a:	07db      	lsls	r3, r3, #31
{
   d8a3c:	b086      	sub	sp, #24
	static TwoWire wire(HAL_I2C_INTERFACE2, acquireWire1Buffer());
   d8a3e:	d413      	bmi.n	d8a68 <_Z20__fetch_global_Wire1v+0x38>
   d8a40:	4620      	mov	r0, r4
   d8a42:	f7fb fb2e 	bl	d40a2 <__cxa_guard_acquire>
   d8a46:	b178      	cbz	r0, d8a68 <_Z20__fetch_global_Wire1v+0x38>
   d8a48:	a801      	add	r0, sp, #4
   d8a4a:	f7ff ffb1 	bl	d89b0 <_Z18acquireWire1Bufferv>
   d8a4e:	aa01      	add	r2, sp, #4
   d8a50:	2101      	movs	r1, #1
   d8a52:	4808      	ldr	r0, [pc, #32]	; (d8a74 <_Z20__fetch_global_Wire1v+0x44>)
   d8a54:	f7ff fdf8 	bl	d8648 <_ZN7TwoWireC1E19hal_i2c_interface_tRK16hal_i2c_config_t>
   d8a58:	4620      	mov	r0, r4
   d8a5a:	f7fb fb27 	bl	d40ac <__cxa_guard_release>
   d8a5e:	4a06      	ldr	r2, [pc, #24]	; (d8a78 <_Z20__fetch_global_Wire1v+0x48>)
   d8a60:	4906      	ldr	r1, [pc, #24]	; (d8a7c <_Z20__fetch_global_Wire1v+0x4c>)
   d8a62:	4804      	ldr	r0, [pc, #16]	; (d8a74 <_Z20__fetch_global_Wire1v+0x44>)
   d8a64:	f000 f80c 	bl	d8a80 <__aeabi_atexit>
	return wire;
}
   d8a68:	4802      	ldr	r0, [pc, #8]	; (d8a74 <_Z20__fetch_global_Wire1v+0x44>)
   d8a6a:	b006      	add	sp, #24
   d8a6c:	bd10      	pop	{r4, pc}
   d8a6e:	bf00      	nop
   d8a70:	2003e7c4 	.word	0x2003e7c4
   d8a74:	2003e7dc 	.word	0x2003e7dc
   d8a78:	2003e134 	.word	0x2003e134
   d8a7c:	000d85f1 	.word	0x000d85f1

000d8a80 <__aeabi_atexit>:
   d8a80:	460b      	mov	r3, r1
   d8a82:	4601      	mov	r1, r0
   d8a84:	4618      	mov	r0, r3
   d8a86:	f000 be57 	b.w	d9738 <__cxa_atexit>

000d8a8a <_ZdlPvj>:
   d8a8a:	f7fb bb08 	b.w	d409e <_ZdlPv>

000d8a8e <_ZnwjRKSt9nothrow_t>:
   d8a8e:	f7fb bb02 	b.w	d4096 <_Znwj>

000d8a92 <_ZnajRKSt9nothrow_t>:
   d8a92:	f7fb bb02 	b.w	d409a <_Znaj>

000d8a96 <_ZSt25__throw_bad_function_callv>:
   d8a96:	b508      	push	{r3, lr}
   d8a98:	f7fe fb28 	bl	d70ec <abort>

000d8a9c <__aeabi_drsub>:
   d8a9c:	f081 4100 	eor.w	r1, r1, #2147483648	; 0x80000000
   d8aa0:	e002      	b.n	d8aa8 <__adddf3>
   d8aa2:	bf00      	nop

000d8aa4 <__aeabi_dsub>:
   d8aa4:	f083 4300 	eor.w	r3, r3, #2147483648	; 0x80000000

000d8aa8 <__adddf3>:
   d8aa8:	b530      	push	{r4, r5, lr}
   d8aaa:	ea4f 0441 	mov.w	r4, r1, lsl #1
   d8aae:	ea4f 0543 	mov.w	r5, r3, lsl #1
   d8ab2:	ea94 0f05 	teq	r4, r5
   d8ab6:	bf08      	it	eq
   d8ab8:	ea90 0f02 	teqeq	r0, r2
   d8abc:	bf1f      	itttt	ne
   d8abe:	ea54 0c00 	orrsne.w	ip, r4, r0
   d8ac2:	ea55 0c02 	orrsne.w	ip, r5, r2
   d8ac6:	ea7f 5c64 	mvnsne.w	ip, r4, asr #21
   d8aca:	ea7f 5c65 	mvnsne.w	ip, r5, asr #21
   d8ace:	f000 80e2 	beq.w	d8c96 <__adddf3+0x1ee>
   d8ad2:	ea4f 5454 	mov.w	r4, r4, lsr #21
   d8ad6:	ebd4 5555 	rsbs	r5, r4, r5, lsr #21
   d8ada:	bfb8      	it	lt
   d8adc:	426d      	neglt	r5, r5
   d8ade:	dd0c      	ble.n	d8afa <__adddf3+0x52>
   d8ae0:	442c      	add	r4, r5
   d8ae2:	ea80 0202 	eor.w	r2, r0, r2
   d8ae6:	ea81 0303 	eor.w	r3, r1, r3
   d8aea:	ea82 0000 	eor.w	r0, r2, r0
   d8aee:	ea83 0101 	eor.w	r1, r3, r1
   d8af2:	ea80 0202 	eor.w	r2, r0, r2
   d8af6:	ea81 0303 	eor.w	r3, r1, r3
   d8afa:	2d36      	cmp	r5, #54	; 0x36
   d8afc:	bf88      	it	hi
   d8afe:	bd30      	pophi	{r4, r5, pc}
   d8b00:	f011 4f00 	tst.w	r1, #2147483648	; 0x80000000
   d8b04:	ea4f 3101 	mov.w	r1, r1, lsl #12
   d8b08:	f44f 1c80 	mov.w	ip, #1048576	; 0x100000
   d8b0c:	ea4c 3111 	orr.w	r1, ip, r1, lsr #12
   d8b10:	d002      	beq.n	d8b18 <__adddf3+0x70>
   d8b12:	4240      	negs	r0, r0
   d8b14:	eb61 0141 	sbc.w	r1, r1, r1, lsl #1
   d8b18:	f013 4f00 	tst.w	r3, #2147483648	; 0x80000000
   d8b1c:	ea4f 3303 	mov.w	r3, r3, lsl #12
   d8b20:	ea4c 3313 	orr.w	r3, ip, r3, lsr #12
   d8b24:	d002      	beq.n	d8b2c <__adddf3+0x84>
   d8b26:	4252      	negs	r2, r2
   d8b28:	eb63 0343 	sbc.w	r3, r3, r3, lsl #1
   d8b2c:	ea94 0f05 	teq	r4, r5
   d8b30:	f000 80a7 	beq.w	d8c82 <__adddf3+0x1da>
   d8b34:	f1a4 0401 	sub.w	r4, r4, #1
   d8b38:	f1d5 0e20 	rsbs	lr, r5, #32
   d8b3c:	db0d      	blt.n	d8b5a <__adddf3+0xb2>
   d8b3e:	fa02 fc0e 	lsl.w	ip, r2, lr
   d8b42:	fa22 f205 	lsr.w	r2, r2, r5
   d8b46:	1880      	adds	r0, r0, r2
   d8b48:	f141 0100 	adc.w	r1, r1, #0
   d8b4c:	fa03 f20e 	lsl.w	r2, r3, lr
   d8b50:	1880      	adds	r0, r0, r2
   d8b52:	fa43 f305 	asr.w	r3, r3, r5
   d8b56:	4159      	adcs	r1, r3
   d8b58:	e00e      	b.n	d8b78 <__adddf3+0xd0>
   d8b5a:	f1a5 0520 	sub.w	r5, r5, #32
   d8b5e:	f10e 0e20 	add.w	lr, lr, #32
   d8b62:	2a01      	cmp	r2, #1
   d8b64:	fa03 fc0e 	lsl.w	ip, r3, lr
   d8b68:	bf28      	it	cs
   d8b6a:	f04c 0c02 	orrcs.w	ip, ip, #2
   d8b6e:	fa43 f305 	asr.w	r3, r3, r5
   d8b72:	18c0      	adds	r0, r0, r3
   d8b74:	eb51 71e3 	adcs.w	r1, r1, r3, asr #31
   d8b78:	f001 4500 	and.w	r5, r1, #2147483648	; 0x80000000
   d8b7c:	d507      	bpl.n	d8b8e <__adddf3+0xe6>
   d8b7e:	f04f 0e00 	mov.w	lr, #0
   d8b82:	f1dc 0c00 	rsbs	ip, ip, #0
   d8b86:	eb7e 0000 	sbcs.w	r0, lr, r0
   d8b8a:	eb6e 0101 	sbc.w	r1, lr, r1
   d8b8e:	f5b1 1f80 	cmp.w	r1, #1048576	; 0x100000
   d8b92:	d31b      	bcc.n	d8bcc <__adddf3+0x124>
   d8b94:	f5b1 1f00 	cmp.w	r1, #2097152	; 0x200000
   d8b98:	d30c      	bcc.n	d8bb4 <__adddf3+0x10c>
   d8b9a:	0849      	lsrs	r1, r1, #1
   d8b9c:	ea5f 0030 	movs.w	r0, r0, rrx
   d8ba0:	ea4f 0c3c 	mov.w	ip, ip, rrx
   d8ba4:	f104 0401 	add.w	r4, r4, #1
   d8ba8:	ea4f 5244 	mov.w	r2, r4, lsl #21
   d8bac:	f512 0f80 	cmn.w	r2, #4194304	; 0x400000
   d8bb0:	f080 809a 	bcs.w	d8ce8 <__adddf3+0x240>
   d8bb4:	f1bc 4f00 	cmp.w	ip, #2147483648	; 0x80000000
   d8bb8:	bf08      	it	eq
   d8bba:	ea5f 0c50 	movseq.w	ip, r0, lsr #1
   d8bbe:	f150 0000 	adcs.w	r0, r0, #0
   d8bc2:	eb41 5104 	adc.w	r1, r1, r4, lsl #20
   d8bc6:	ea41 0105 	orr.w	r1, r1, r5
   d8bca:	bd30      	pop	{r4, r5, pc}
   d8bcc:	ea5f 0c4c 	movs.w	ip, ip, lsl #1
   d8bd0:	4140      	adcs	r0, r0
   d8bd2:	eb41 0101 	adc.w	r1, r1, r1
   d8bd6:	3c01      	subs	r4, #1
   d8bd8:	bf28      	it	cs
   d8bda:	f5b1 1f80 	cmpcs.w	r1, #1048576	; 0x100000
   d8bde:	d2e9      	bcs.n	d8bb4 <__adddf3+0x10c>
   d8be0:	f091 0f00 	teq	r1, #0
   d8be4:	bf04      	itt	eq
   d8be6:	4601      	moveq	r1, r0
   d8be8:	2000      	moveq	r0, #0
   d8bea:	fab1 f381 	clz	r3, r1
   d8bee:	bf08      	it	eq
   d8bf0:	3320      	addeq	r3, #32
   d8bf2:	f1a3 030b 	sub.w	r3, r3, #11
   d8bf6:	f1b3 0220 	subs.w	r2, r3, #32
   d8bfa:	da0c      	bge.n	d8c16 <__adddf3+0x16e>
   d8bfc:	320c      	adds	r2, #12
   d8bfe:	dd08      	ble.n	d8c12 <__adddf3+0x16a>
   d8c00:	f102 0c14 	add.w	ip, r2, #20
   d8c04:	f1c2 020c 	rsb	r2, r2, #12
   d8c08:	fa01 f00c 	lsl.w	r0, r1, ip
   d8c0c:	fa21 f102 	lsr.w	r1, r1, r2
   d8c10:	e00c      	b.n	d8c2c <__adddf3+0x184>
   d8c12:	f102 0214 	add.w	r2, r2, #20
   d8c16:	bfd8      	it	le
   d8c18:	f1c2 0c20 	rsble	ip, r2, #32
   d8c1c:	fa01 f102 	lsl.w	r1, r1, r2
   d8c20:	fa20 fc0c 	lsr.w	ip, r0, ip
   d8c24:	bfdc      	itt	le
   d8c26:	ea41 010c 	orrle.w	r1, r1, ip
   d8c2a:	4090      	lslle	r0, r2
   d8c2c:	1ae4      	subs	r4, r4, r3
   d8c2e:	bfa2      	ittt	ge
   d8c30:	eb01 5104 	addge.w	r1, r1, r4, lsl #20
   d8c34:	4329      	orrge	r1, r5
   d8c36:	bd30      	popge	{r4, r5, pc}
   d8c38:	ea6f 0404 	mvn.w	r4, r4
   d8c3c:	3c1f      	subs	r4, #31
   d8c3e:	da1c      	bge.n	d8c7a <__adddf3+0x1d2>
   d8c40:	340c      	adds	r4, #12
   d8c42:	dc0e      	bgt.n	d8c62 <__adddf3+0x1ba>
   d8c44:	f104 0414 	add.w	r4, r4, #20
   d8c48:	f1c4 0220 	rsb	r2, r4, #32
   d8c4c:	fa20 f004 	lsr.w	r0, r0, r4
   d8c50:	fa01 f302 	lsl.w	r3, r1, r2
   d8c54:	ea40 0003 	orr.w	r0, r0, r3
   d8c58:	fa21 f304 	lsr.w	r3, r1, r4
   d8c5c:	ea45 0103 	orr.w	r1, r5, r3
   d8c60:	bd30      	pop	{r4, r5, pc}
   d8c62:	f1c4 040c 	rsb	r4, r4, #12
   d8c66:	f1c4 0220 	rsb	r2, r4, #32
   d8c6a:	fa20 f002 	lsr.w	r0, r0, r2
   d8c6e:	fa01 f304 	lsl.w	r3, r1, r4
   d8c72:	ea40 0003 	orr.w	r0, r0, r3
   d8c76:	4629      	mov	r1, r5
   d8c78:	bd30      	pop	{r4, r5, pc}
   d8c7a:	fa21 f004 	lsr.w	r0, r1, r4
   d8c7e:	4629      	mov	r1, r5
   d8c80:	bd30      	pop	{r4, r5, pc}
   d8c82:	f094 0f00 	teq	r4, #0
   d8c86:	f483 1380 	eor.w	r3, r3, #1048576	; 0x100000
   d8c8a:	bf06      	itte	eq
   d8c8c:	f481 1180 	eoreq.w	r1, r1, #1048576	; 0x100000
   d8c90:	3401      	addeq	r4, #1
   d8c92:	3d01      	subne	r5, #1
   d8c94:	e74e      	b.n	d8b34 <__adddf3+0x8c>
   d8c96:	ea7f 5c64 	mvns.w	ip, r4, asr #21
   d8c9a:	bf18      	it	ne
   d8c9c:	ea7f 5c65 	mvnsne.w	ip, r5, asr #21
   d8ca0:	d029      	beq.n	d8cf6 <__adddf3+0x24e>
   d8ca2:	ea94 0f05 	teq	r4, r5
   d8ca6:	bf08      	it	eq
   d8ca8:	ea90 0f02 	teqeq	r0, r2
   d8cac:	d005      	beq.n	d8cba <__adddf3+0x212>
   d8cae:	ea54 0c00 	orrs.w	ip, r4, r0
   d8cb2:	bf04      	itt	eq
   d8cb4:	4619      	moveq	r1, r3
   d8cb6:	4610      	moveq	r0, r2
   d8cb8:	bd30      	pop	{r4, r5, pc}
   d8cba:	ea91 0f03 	teq	r1, r3
   d8cbe:	bf1e      	ittt	ne
   d8cc0:	2100      	movne	r1, #0
   d8cc2:	2000      	movne	r0, #0
   d8cc4:	bd30      	popne	{r4, r5, pc}
   d8cc6:	ea5f 5c54 	movs.w	ip, r4, lsr #21
   d8cca:	d105      	bne.n	d8cd8 <__adddf3+0x230>
   d8ccc:	0040      	lsls	r0, r0, #1
   d8cce:	4149      	adcs	r1, r1
   d8cd0:	bf28      	it	cs
   d8cd2:	f041 4100 	orrcs.w	r1, r1, #2147483648	; 0x80000000
   d8cd6:	bd30      	pop	{r4, r5, pc}
   d8cd8:	f514 0480 	adds.w	r4, r4, #4194304	; 0x400000
   d8cdc:	bf3c      	itt	cc
   d8cde:	f501 1180 	addcc.w	r1, r1, #1048576	; 0x100000
   d8ce2:	bd30      	popcc	{r4, r5, pc}
   d8ce4:	f001 4500 	and.w	r5, r1, #2147483648	; 0x80000000
   d8ce8:	f045 41fe 	orr.w	r1, r5, #2130706432	; 0x7f000000
   d8cec:	f441 0170 	orr.w	r1, r1, #15728640	; 0xf00000
   d8cf0:	f04f 0000 	mov.w	r0, #0
   d8cf4:	bd30      	pop	{r4, r5, pc}
   d8cf6:	ea7f 5c64 	mvns.w	ip, r4, asr #21
   d8cfa:	bf1a      	itte	ne
   d8cfc:	4619      	movne	r1, r3
   d8cfe:	4610      	movne	r0, r2
   d8d00:	ea7f 5c65 	mvnseq.w	ip, r5, asr #21
   d8d04:	bf1c      	itt	ne
   d8d06:	460b      	movne	r3, r1
   d8d08:	4602      	movne	r2, r0
   d8d0a:	ea50 3401 	orrs.w	r4, r0, r1, lsl #12
   d8d0e:	bf06      	itte	eq
   d8d10:	ea52 3503 	orrseq.w	r5, r2, r3, lsl #12
   d8d14:	ea91 0f03 	teqeq	r1, r3
   d8d18:	f441 2100 	orrne.w	r1, r1, #524288	; 0x80000
   d8d1c:	bd30      	pop	{r4, r5, pc}
   d8d1e:	bf00      	nop

000d8d20 <__aeabi_ui2d>:
   d8d20:	f090 0f00 	teq	r0, #0
   d8d24:	bf04      	itt	eq
   d8d26:	2100      	moveq	r1, #0
   d8d28:	4770      	bxeq	lr
   d8d2a:	b530      	push	{r4, r5, lr}
   d8d2c:	f44f 6480 	mov.w	r4, #1024	; 0x400
   d8d30:	f104 0432 	add.w	r4, r4, #50	; 0x32
   d8d34:	f04f 0500 	mov.w	r5, #0
   d8d38:	f04f 0100 	mov.w	r1, #0
   d8d3c:	e750      	b.n	d8be0 <__adddf3+0x138>
   d8d3e:	bf00      	nop

000d8d40 <__aeabi_i2d>:
   d8d40:	f090 0f00 	teq	r0, #0
   d8d44:	bf04      	itt	eq
   d8d46:	2100      	moveq	r1, #0
   d8d48:	4770      	bxeq	lr
   d8d4a:	b530      	push	{r4, r5, lr}
   d8d4c:	f44f 6480 	mov.w	r4, #1024	; 0x400
   d8d50:	f104 0432 	add.w	r4, r4, #50	; 0x32
   d8d54:	f010 4500 	ands.w	r5, r0, #2147483648	; 0x80000000
   d8d58:	bf48      	it	mi
   d8d5a:	4240      	negmi	r0, r0
   d8d5c:	f04f 0100 	mov.w	r1, #0
   d8d60:	e73e      	b.n	d8be0 <__adddf3+0x138>
   d8d62:	bf00      	nop

000d8d64 <__aeabi_f2d>:
   d8d64:	0042      	lsls	r2, r0, #1
   d8d66:	ea4f 01e2 	mov.w	r1, r2, asr #3
   d8d6a:	ea4f 0131 	mov.w	r1, r1, rrx
   d8d6e:	ea4f 7002 	mov.w	r0, r2, lsl #28
   d8d72:	bf1f      	itttt	ne
   d8d74:	f012 437f 	andsne.w	r3, r2, #4278190080	; 0xff000000
   d8d78:	f093 4f7f 	teqne	r3, #4278190080	; 0xff000000
   d8d7c:	f081 5160 	eorne.w	r1, r1, #939524096	; 0x38000000
   d8d80:	4770      	bxne	lr
   d8d82:	f032 427f 	bics.w	r2, r2, #4278190080	; 0xff000000
   d8d86:	bf08      	it	eq
   d8d88:	4770      	bxeq	lr
   d8d8a:	f093 4f7f 	teq	r3, #4278190080	; 0xff000000
   d8d8e:	bf04      	itt	eq
   d8d90:	f441 2100 	orreq.w	r1, r1, #524288	; 0x80000
   d8d94:	4770      	bxeq	lr
   d8d96:	b530      	push	{r4, r5, lr}
   d8d98:	f44f 7460 	mov.w	r4, #896	; 0x380
   d8d9c:	f001 4500 	and.w	r5, r1, #2147483648	; 0x80000000
   d8da0:	f021 4100 	bic.w	r1, r1, #2147483648	; 0x80000000
   d8da4:	e71c      	b.n	d8be0 <__adddf3+0x138>
   d8da6:	bf00      	nop

000d8da8 <__aeabi_ul2d>:
   d8da8:	ea50 0201 	orrs.w	r2, r0, r1
   d8dac:	bf08      	it	eq
   d8dae:	4770      	bxeq	lr
   d8db0:	b530      	push	{r4, r5, lr}
   d8db2:	f04f 0500 	mov.w	r5, #0
   d8db6:	e00a      	b.n	d8dce <__aeabi_l2d+0x16>

000d8db8 <__aeabi_l2d>:
   d8db8:	ea50 0201 	orrs.w	r2, r0, r1
   d8dbc:	bf08      	it	eq
   d8dbe:	4770      	bxeq	lr
   d8dc0:	b530      	push	{r4, r5, lr}
   d8dc2:	f011 4500 	ands.w	r5, r1, #2147483648	; 0x80000000
   d8dc6:	d502      	bpl.n	d8dce <__aeabi_l2d+0x16>
   d8dc8:	4240      	negs	r0, r0
   d8dca:	eb61 0141 	sbc.w	r1, r1, r1, lsl #1
   d8dce:	f44f 6480 	mov.w	r4, #1024	; 0x400
   d8dd2:	f104 0432 	add.w	r4, r4, #50	; 0x32
   d8dd6:	ea5f 5c91 	movs.w	ip, r1, lsr #22
   d8dda:	f43f aed8 	beq.w	d8b8e <__adddf3+0xe6>
   d8dde:	f04f 0203 	mov.w	r2, #3
   d8de2:	ea5f 0cdc 	movs.w	ip, ip, lsr #3
   d8de6:	bf18      	it	ne
   d8de8:	3203      	addne	r2, #3
   d8dea:	ea5f 0cdc 	movs.w	ip, ip, lsr #3
   d8dee:	bf18      	it	ne
   d8df0:	3203      	addne	r2, #3
   d8df2:	eb02 02dc 	add.w	r2, r2, ip, lsr #3
   d8df6:	f1c2 0320 	rsb	r3, r2, #32
   d8dfa:	fa00 fc03 	lsl.w	ip, r0, r3
   d8dfe:	fa20 f002 	lsr.w	r0, r0, r2
   d8e02:	fa01 fe03 	lsl.w	lr, r1, r3
   d8e06:	ea40 000e 	orr.w	r0, r0, lr
   d8e0a:	fa21 f102 	lsr.w	r1, r1, r2
   d8e0e:	4414      	add	r4, r2
   d8e10:	e6bd      	b.n	d8b8e <__adddf3+0xe6>
   d8e12:	bf00      	nop

000d8e14 <__aeabi_dmul>:
   d8e14:	b570      	push	{r4, r5, r6, lr}
   d8e16:	f04f 0cff 	mov.w	ip, #255	; 0xff
   d8e1a:	f44c 6ce0 	orr.w	ip, ip, #1792	; 0x700
   d8e1e:	ea1c 5411 	ands.w	r4, ip, r1, lsr #20
   d8e22:	bf1d      	ittte	ne
   d8e24:	ea1c 5513 	andsne.w	r5, ip, r3, lsr #20
   d8e28:	ea94 0f0c 	teqne	r4, ip
   d8e2c:	ea95 0f0c 	teqne	r5, ip
   d8e30:	f000 f8de 	bleq	d8ff0 <__aeabi_dmul+0x1dc>
   d8e34:	442c      	add	r4, r5
   d8e36:	ea81 0603 	eor.w	r6, r1, r3
   d8e3a:	ea21 514c 	bic.w	r1, r1, ip, lsl #21
   d8e3e:	ea23 534c 	bic.w	r3, r3, ip, lsl #21
   d8e42:	ea50 3501 	orrs.w	r5, r0, r1, lsl #12
   d8e46:	bf18      	it	ne
   d8e48:	ea52 3503 	orrsne.w	r5, r2, r3, lsl #12
   d8e4c:	f441 1180 	orr.w	r1, r1, #1048576	; 0x100000
   d8e50:	f443 1380 	orr.w	r3, r3, #1048576	; 0x100000
   d8e54:	d038      	beq.n	d8ec8 <__aeabi_dmul+0xb4>
   d8e56:	fba0 ce02 	umull	ip, lr, r0, r2
   d8e5a:	f04f 0500 	mov.w	r5, #0
   d8e5e:	fbe1 e502 	umlal	lr, r5, r1, r2
   d8e62:	f006 4200 	and.w	r2, r6, #2147483648	; 0x80000000
   d8e66:	fbe0 e503 	umlal	lr, r5, r0, r3
   d8e6a:	f04f 0600 	mov.w	r6, #0
   d8e6e:	fbe1 5603 	umlal	r5, r6, r1, r3
   d8e72:	f09c 0f00 	teq	ip, #0
   d8e76:	bf18      	it	ne
   d8e78:	f04e 0e01 	orrne.w	lr, lr, #1
   d8e7c:	f1a4 04ff 	sub.w	r4, r4, #255	; 0xff
   d8e80:	f5b6 7f00 	cmp.w	r6, #512	; 0x200
   d8e84:	f564 7440 	sbc.w	r4, r4, #768	; 0x300
   d8e88:	d204      	bcs.n	d8e94 <__aeabi_dmul+0x80>
   d8e8a:	ea5f 0e4e 	movs.w	lr, lr, lsl #1
   d8e8e:	416d      	adcs	r5, r5
   d8e90:	eb46 0606 	adc.w	r6, r6, r6
   d8e94:	ea42 21c6 	orr.w	r1, r2, r6, lsl #11
   d8e98:	ea41 5155 	orr.w	r1, r1, r5, lsr #21
   d8e9c:	ea4f 20c5 	mov.w	r0, r5, lsl #11
   d8ea0:	ea40 505e 	orr.w	r0, r0, lr, lsr #21
   d8ea4:	ea4f 2ece 	mov.w	lr, lr, lsl #11
   d8ea8:	f1b4 0cfd 	subs.w	ip, r4, #253	; 0xfd
   d8eac:	bf88      	it	hi
   d8eae:	f5bc 6fe0 	cmphi.w	ip, #1792	; 0x700
   d8eb2:	d81e      	bhi.n	d8ef2 <__aeabi_dmul+0xde>
   d8eb4:	f1be 4f00 	cmp.w	lr, #2147483648	; 0x80000000
   d8eb8:	bf08      	it	eq
   d8eba:	ea5f 0e50 	movseq.w	lr, r0, lsr #1
   d8ebe:	f150 0000 	adcs.w	r0, r0, #0
   d8ec2:	eb41 5104 	adc.w	r1, r1, r4, lsl #20
   d8ec6:	bd70      	pop	{r4, r5, r6, pc}
   d8ec8:	f006 4600 	and.w	r6, r6, #2147483648	; 0x80000000
   d8ecc:	ea46 0101 	orr.w	r1, r6, r1
   d8ed0:	ea40 0002 	orr.w	r0, r0, r2
   d8ed4:	ea81 0103 	eor.w	r1, r1, r3
   d8ed8:	ebb4 045c 	subs.w	r4, r4, ip, lsr #1
   d8edc:	bfc2      	ittt	gt
   d8ede:	ebd4 050c 	rsbsgt	r5, r4, ip
   d8ee2:	ea41 5104 	orrgt.w	r1, r1, r4, lsl #20
   d8ee6:	bd70      	popgt	{r4, r5, r6, pc}
   d8ee8:	f441 1180 	orr.w	r1, r1, #1048576	; 0x100000
   d8eec:	f04f 0e00 	mov.w	lr, #0
   d8ef0:	3c01      	subs	r4, #1
   d8ef2:	f300 80ab 	bgt.w	d904c <__aeabi_dmul+0x238>
   d8ef6:	f114 0f36 	cmn.w	r4, #54	; 0x36
   d8efa:	bfde      	ittt	le
   d8efc:	2000      	movle	r0, #0
   d8efe:	f001 4100 	andle.w	r1, r1, #2147483648	; 0x80000000
   d8f02:	bd70      	pople	{r4, r5, r6, pc}
   d8f04:	f1c4 0400 	rsb	r4, r4, #0
   d8f08:	3c20      	subs	r4, #32
   d8f0a:	da35      	bge.n	d8f78 <__aeabi_dmul+0x164>
   d8f0c:	340c      	adds	r4, #12
   d8f0e:	dc1b      	bgt.n	d8f48 <__aeabi_dmul+0x134>
   d8f10:	f104 0414 	add.w	r4, r4, #20
   d8f14:	f1c4 0520 	rsb	r5, r4, #32
   d8f18:	fa00 f305 	lsl.w	r3, r0, r5
   d8f1c:	fa20 f004 	lsr.w	r0, r0, r4
   d8f20:	fa01 f205 	lsl.w	r2, r1, r5
   d8f24:	ea40 0002 	orr.w	r0, r0, r2
   d8f28:	f001 4200 	and.w	r2, r1, #2147483648	; 0x80000000
   d8f2c:	f021 4100 	bic.w	r1, r1, #2147483648	; 0x80000000
   d8f30:	eb10 70d3 	adds.w	r0, r0, r3, lsr #31
   d8f34:	fa21 f604 	lsr.w	r6, r1, r4
   d8f38:	eb42 0106 	adc.w	r1, r2, r6
   d8f3c:	ea5e 0e43 	orrs.w	lr, lr, r3, lsl #1
   d8f40:	bf08      	it	eq
   d8f42:	ea20 70d3 	biceq.w	r0, r0, r3, lsr #31
   d8f46:	bd70      	pop	{r4, r5, r6, pc}
   d8f48:	f1c4 040c 	rsb	r4, r4, #12
   d8f4c:	f1c4 0520 	rsb	r5, r4, #32
   d8f50:	fa00 f304 	lsl.w	r3, r0, r4
   d8f54:	fa20 f005 	lsr.w	r0, r0, r5
   d8f58:	fa01 f204 	lsl.w	r2, r1, r4
   d8f5c:	ea40 0002 	orr.w	r0, r0, r2
   d8f60:	f001 4100 	and.w	r1, r1, #2147483648	; 0x80000000
   d8f64:	eb10 70d3 	adds.w	r0, r0, r3, lsr #31
   d8f68:	f141 0100 	adc.w	r1, r1, #0
   d8f6c:	ea5e 0e43 	orrs.w	lr, lr, r3, lsl #1
   d8f70:	bf08      	it	eq
   d8f72:	ea20 70d3 	biceq.w	r0, r0, r3, lsr #31
   d8f76:	bd70      	pop	{r4, r5, r6, pc}
   d8f78:	f1c4 0520 	rsb	r5, r4, #32
   d8f7c:	fa00 f205 	lsl.w	r2, r0, r5
   d8f80:	ea4e 0e02 	orr.w	lr, lr, r2
   d8f84:	fa20 f304 	lsr.w	r3, r0, r4
   d8f88:	fa01 f205 	lsl.w	r2, r1, r5
   d8f8c:	ea43 0302 	orr.w	r3, r3, r2
   d8f90:	fa21 f004 	lsr.w	r0, r1, r4
   d8f94:	f001 4100 	and.w	r1, r1, #2147483648	; 0x80000000
   d8f98:	fa21 f204 	lsr.w	r2, r1, r4
   d8f9c:	ea20 0002 	bic.w	r0, r0, r2
   d8fa0:	eb00 70d3 	add.w	r0, r0, r3, lsr #31
   d8fa4:	ea5e 0e43 	orrs.w	lr, lr, r3, lsl #1
   d8fa8:	bf08      	it	eq
   d8faa:	ea20 70d3 	biceq.w	r0, r0, r3, lsr #31
   d8fae:	bd70      	pop	{r4, r5, r6, pc}
   d8fb0:	f094 0f00 	teq	r4, #0
   d8fb4:	d10f      	bne.n	d8fd6 <__aeabi_dmul+0x1c2>
   d8fb6:	f001 4600 	and.w	r6, r1, #2147483648	; 0x80000000
   d8fba:	0040      	lsls	r0, r0, #1
   d8fbc:	eb41 0101 	adc.w	r1, r1, r1
   d8fc0:	f411 1f80 	tst.w	r1, #1048576	; 0x100000
   d8fc4:	bf08      	it	eq
   d8fc6:	3c01      	subeq	r4, #1
   d8fc8:	d0f7      	beq.n	d8fba <__aeabi_dmul+0x1a6>
   d8fca:	ea41 0106 	orr.w	r1, r1, r6
   d8fce:	f095 0f00 	teq	r5, #0
   d8fd2:	bf18      	it	ne
   d8fd4:	4770      	bxne	lr
   d8fd6:	f003 4600 	and.w	r6, r3, #2147483648	; 0x80000000
   d8fda:	0052      	lsls	r2, r2, #1
   d8fdc:	eb43 0303 	adc.w	r3, r3, r3
   d8fe0:	f413 1f80 	tst.w	r3, #1048576	; 0x100000
   d8fe4:	bf08      	it	eq
   d8fe6:	3d01      	subeq	r5, #1
   d8fe8:	d0f7      	beq.n	d8fda <__aeabi_dmul+0x1c6>
   d8fea:	ea43 0306 	orr.w	r3, r3, r6
   d8fee:	4770      	bx	lr
   d8ff0:	ea94 0f0c 	teq	r4, ip
   d8ff4:	ea0c 5513 	and.w	r5, ip, r3, lsr #20
   d8ff8:	bf18      	it	ne
   d8ffa:	ea95 0f0c 	teqne	r5, ip
   d8ffe:	d00c      	beq.n	d901a <__aeabi_dmul+0x206>
   d9000:	ea50 0641 	orrs.w	r6, r0, r1, lsl #1
   d9004:	bf18      	it	ne
   d9006:	ea52 0643 	orrsne.w	r6, r2, r3, lsl #1
   d900a:	d1d1      	bne.n	d8fb0 <__aeabi_dmul+0x19c>
   d900c:	ea81 0103 	eor.w	r1, r1, r3
   d9010:	f001 4100 	and.w	r1, r1, #2147483648	; 0x80000000
   d9014:	f04f 0000 	mov.w	r0, #0
   d9018:	bd70      	pop	{r4, r5, r6, pc}
   d901a:	ea50 0641 	orrs.w	r6, r0, r1, lsl #1
   d901e:	bf06      	itte	eq
   d9020:	4610      	moveq	r0, r2
   d9022:	4619      	moveq	r1, r3
   d9024:	ea52 0643 	orrsne.w	r6, r2, r3, lsl #1
   d9028:	d019      	beq.n	d905e <__aeabi_dmul+0x24a>
   d902a:	ea94 0f0c 	teq	r4, ip
   d902e:	d102      	bne.n	d9036 <__aeabi_dmul+0x222>
   d9030:	ea50 3601 	orrs.w	r6, r0, r1, lsl #12
   d9034:	d113      	bne.n	d905e <__aeabi_dmul+0x24a>
   d9036:	ea95 0f0c 	teq	r5, ip
   d903a:	d105      	bne.n	d9048 <__aeabi_dmul+0x234>
   d903c:	ea52 3603 	orrs.w	r6, r2, r3, lsl #12
   d9040:	bf1c      	itt	ne
   d9042:	4610      	movne	r0, r2
   d9044:	4619      	movne	r1, r3
   d9046:	d10a      	bne.n	d905e <__aeabi_dmul+0x24a>
   d9048:	ea81 0103 	eor.w	r1, r1, r3
   d904c:	f001 4100 	and.w	r1, r1, #2147483648	; 0x80000000
   d9050:	f041 41fe 	orr.w	r1, r1, #2130706432	; 0x7f000000
   d9054:	f441 0170 	orr.w	r1, r1, #15728640	; 0xf00000
   d9058:	f04f 0000 	mov.w	r0, #0
   d905c:	bd70      	pop	{r4, r5, r6, pc}
   d905e:	f041 41fe 	orr.w	r1, r1, #2130706432	; 0x7f000000
   d9062:	f441 0178 	orr.w	r1, r1, #16252928	; 0xf80000
   d9066:	bd70      	pop	{r4, r5, r6, pc}

000d9068 <__aeabi_ddiv>:
   d9068:	b570      	push	{r4, r5, r6, lr}
   d906a:	f04f 0cff 	mov.w	ip, #255	; 0xff
   d906e:	f44c 6ce0 	orr.w	ip, ip, #1792	; 0x700
   d9072:	ea1c 5411 	ands.w	r4, ip, r1, lsr #20
   d9076:	bf1d      	ittte	ne
   d9078:	ea1c 5513 	andsne.w	r5, ip, r3, lsr #20
   d907c:	ea94 0f0c 	teqne	r4, ip
   d9080:	ea95 0f0c 	teqne	r5, ip
   d9084:	f000 f8a7 	bleq	d91d6 <__aeabi_ddiv+0x16e>
   d9088:	eba4 0405 	sub.w	r4, r4, r5
   d908c:	ea81 0e03 	eor.w	lr, r1, r3
   d9090:	ea52 3503 	orrs.w	r5, r2, r3, lsl #12
   d9094:	ea4f 3101 	mov.w	r1, r1, lsl #12
   d9098:	f000 8088 	beq.w	d91ac <__aeabi_ddiv+0x144>
   d909c:	ea4f 3303 	mov.w	r3, r3, lsl #12
   d90a0:	f04f 5580 	mov.w	r5, #268435456	; 0x10000000
   d90a4:	ea45 1313 	orr.w	r3, r5, r3, lsr #4
   d90a8:	ea43 6312 	orr.w	r3, r3, r2, lsr #24
   d90ac:	ea4f 2202 	mov.w	r2, r2, lsl #8
   d90b0:	ea45 1511 	orr.w	r5, r5, r1, lsr #4
   d90b4:	ea45 6510 	orr.w	r5, r5, r0, lsr #24
   d90b8:	ea4f 2600 	mov.w	r6, r0, lsl #8
   d90bc:	f00e 4100 	and.w	r1, lr, #2147483648	; 0x80000000
   d90c0:	429d      	cmp	r5, r3
   d90c2:	bf08      	it	eq
   d90c4:	4296      	cmpeq	r6, r2
   d90c6:	f144 04fd 	adc.w	r4, r4, #253	; 0xfd
   d90ca:	f504 7440 	add.w	r4, r4, #768	; 0x300
   d90ce:	d202      	bcs.n	d90d6 <__aeabi_ddiv+0x6e>
   d90d0:	085b      	lsrs	r3, r3, #1
   d90d2:	ea4f 0232 	mov.w	r2, r2, rrx
   d90d6:	1ab6      	subs	r6, r6, r2
   d90d8:	eb65 0503 	sbc.w	r5, r5, r3
   d90dc:	085b      	lsrs	r3, r3, #1
   d90de:	ea4f 0232 	mov.w	r2, r2, rrx
   d90e2:	f44f 1080 	mov.w	r0, #1048576	; 0x100000
   d90e6:	f44f 2c00 	mov.w	ip, #524288	; 0x80000
   d90ea:	ebb6 0e02 	subs.w	lr, r6, r2
   d90ee:	eb75 0e03 	sbcs.w	lr, r5, r3
   d90f2:	bf22      	ittt	cs
   d90f4:	1ab6      	subcs	r6, r6, r2
   d90f6:	4675      	movcs	r5, lr
   d90f8:	ea40 000c 	orrcs.w	r0, r0, ip
   d90fc:	085b      	lsrs	r3, r3, #1
   d90fe:	ea4f 0232 	mov.w	r2, r2, rrx
   d9102:	ebb6 0e02 	subs.w	lr, r6, r2
   d9106:	eb75 0e03 	sbcs.w	lr, r5, r3
   d910a:	bf22      	ittt	cs
   d910c:	1ab6      	subcs	r6, r6, r2
   d910e:	4675      	movcs	r5, lr
   d9110:	ea40 005c 	orrcs.w	r0, r0, ip, lsr #1
   d9114:	085b      	lsrs	r3, r3, #1
   d9116:	ea4f 0232 	mov.w	r2, r2, rrx
   d911a:	ebb6 0e02 	subs.w	lr, r6, r2
   d911e:	eb75 0e03 	sbcs.w	lr, r5, r3
   d9122:	bf22      	ittt	cs
   d9124:	1ab6      	subcs	r6, r6, r2
   d9126:	4675      	movcs	r5, lr
   d9128:	ea40 009c 	orrcs.w	r0, r0, ip, lsr #2
   d912c:	085b      	lsrs	r3, r3, #1
   d912e:	ea4f 0232 	mov.w	r2, r2, rrx
   d9132:	ebb6 0e02 	subs.w	lr, r6, r2
   d9136:	eb75 0e03 	sbcs.w	lr, r5, r3
   d913a:	bf22      	ittt	cs
   d913c:	1ab6      	subcs	r6, r6, r2
   d913e:	4675      	movcs	r5, lr
   d9140:	ea40 00dc 	orrcs.w	r0, r0, ip, lsr #3
   d9144:	ea55 0e06 	orrs.w	lr, r5, r6
   d9148:	d018      	beq.n	d917c <__aeabi_ddiv+0x114>
   d914a:	ea4f 1505 	mov.w	r5, r5, lsl #4
   d914e:	ea45 7516 	orr.w	r5, r5, r6, lsr #28
   d9152:	ea4f 1606 	mov.w	r6, r6, lsl #4
   d9156:	ea4f 03c3 	mov.w	r3, r3, lsl #3
   d915a:	ea43 7352 	orr.w	r3, r3, r2, lsr #29
   d915e:	ea4f 02c2 	mov.w	r2, r2, lsl #3
   d9162:	ea5f 1c1c 	movs.w	ip, ip, lsr #4
   d9166:	d1c0      	bne.n	d90ea <__aeabi_ddiv+0x82>
   d9168:	f411 1f80 	tst.w	r1, #1048576	; 0x100000
   d916c:	d10b      	bne.n	d9186 <__aeabi_ddiv+0x11e>
   d916e:	ea41 0100 	orr.w	r1, r1, r0
   d9172:	f04f 0000 	mov.w	r0, #0
   d9176:	f04f 4c00 	mov.w	ip, #2147483648	; 0x80000000
   d917a:	e7b6      	b.n	d90ea <__aeabi_ddiv+0x82>
   d917c:	f411 1f80 	tst.w	r1, #1048576	; 0x100000
   d9180:	bf04      	itt	eq
   d9182:	4301      	orreq	r1, r0
   d9184:	2000      	moveq	r0, #0
   d9186:	f1b4 0cfd 	subs.w	ip, r4, #253	; 0xfd
   d918a:	bf88      	it	hi
   d918c:	f5bc 6fe0 	cmphi.w	ip, #1792	; 0x700
   d9190:	f63f aeaf 	bhi.w	d8ef2 <__aeabi_dmul+0xde>
   d9194:	ebb5 0c03 	subs.w	ip, r5, r3
   d9198:	bf04      	itt	eq
   d919a:	ebb6 0c02 	subseq.w	ip, r6, r2
   d919e:	ea5f 0c50 	movseq.w	ip, r0, lsr #1
   d91a2:	f150 0000 	adcs.w	r0, r0, #0
   d91a6:	eb41 5104 	adc.w	r1, r1, r4, lsl #20
   d91aa:	bd70      	pop	{r4, r5, r6, pc}
   d91ac:	f00e 4e00 	and.w	lr, lr, #2147483648	; 0x80000000
   d91b0:	ea4e 3111 	orr.w	r1, lr, r1, lsr #12
   d91b4:	eb14 045c 	adds.w	r4, r4, ip, lsr #1
   d91b8:	bfc2      	ittt	gt
   d91ba:	ebd4 050c 	rsbsgt	r5, r4, ip
   d91be:	ea41 5104 	orrgt.w	r1, r1, r4, lsl #20
   d91c2:	bd70      	popgt	{r4, r5, r6, pc}
   d91c4:	f441 1180 	orr.w	r1, r1, #1048576	; 0x100000
   d91c8:	f04f 0e00 	mov.w	lr, #0
   d91cc:	3c01      	subs	r4, #1
   d91ce:	e690      	b.n	d8ef2 <__aeabi_dmul+0xde>
   d91d0:	ea45 0e06 	orr.w	lr, r5, r6
   d91d4:	e68d      	b.n	d8ef2 <__aeabi_dmul+0xde>
   d91d6:	ea0c 5513 	and.w	r5, ip, r3, lsr #20
   d91da:	ea94 0f0c 	teq	r4, ip
   d91de:	bf08      	it	eq
   d91e0:	ea95 0f0c 	teqeq	r5, ip
   d91e4:	f43f af3b 	beq.w	d905e <__aeabi_dmul+0x24a>
   d91e8:	ea94 0f0c 	teq	r4, ip
   d91ec:	d10a      	bne.n	d9204 <__aeabi_ddiv+0x19c>
   d91ee:	ea50 3401 	orrs.w	r4, r0, r1, lsl #12
   d91f2:	f47f af34 	bne.w	d905e <__aeabi_dmul+0x24a>
   d91f6:	ea95 0f0c 	teq	r5, ip
   d91fa:	f47f af25 	bne.w	d9048 <__aeabi_dmul+0x234>
   d91fe:	4610      	mov	r0, r2
   d9200:	4619      	mov	r1, r3
   d9202:	e72c      	b.n	d905e <__aeabi_dmul+0x24a>
   d9204:	ea95 0f0c 	teq	r5, ip
   d9208:	d106      	bne.n	d9218 <__aeabi_ddiv+0x1b0>
   d920a:	ea52 3503 	orrs.w	r5, r2, r3, lsl #12
   d920e:	f43f aefd 	beq.w	d900c <__aeabi_dmul+0x1f8>
   d9212:	4610      	mov	r0, r2
   d9214:	4619      	mov	r1, r3
   d9216:	e722      	b.n	d905e <__aeabi_dmul+0x24a>
   d9218:	ea50 0641 	orrs.w	r6, r0, r1, lsl #1
   d921c:	bf18      	it	ne
   d921e:	ea52 0643 	orrsne.w	r6, r2, r3, lsl #1
   d9222:	f47f aec5 	bne.w	d8fb0 <__aeabi_dmul+0x19c>
   d9226:	ea50 0441 	orrs.w	r4, r0, r1, lsl #1
   d922a:	f47f af0d 	bne.w	d9048 <__aeabi_dmul+0x234>
   d922e:	ea52 0543 	orrs.w	r5, r2, r3, lsl #1
   d9232:	f47f aeeb 	bne.w	d900c <__aeabi_dmul+0x1f8>
   d9236:	e712      	b.n	d905e <__aeabi_dmul+0x24a>

000d9238 <__gedf2>:
   d9238:	f04f 3cff 	mov.w	ip, #4294967295
   d923c:	e006      	b.n	d924c <__cmpdf2+0x4>
   d923e:	bf00      	nop

000d9240 <__ledf2>:
   d9240:	f04f 0c01 	mov.w	ip, #1
   d9244:	e002      	b.n	d924c <__cmpdf2+0x4>
   d9246:	bf00      	nop

000d9248 <__cmpdf2>:
   d9248:	f04f 0c01 	mov.w	ip, #1
   d924c:	f84d cd04 	str.w	ip, [sp, #-4]!
   d9250:	ea4f 0c41 	mov.w	ip, r1, lsl #1
   d9254:	ea7f 5c6c 	mvns.w	ip, ip, asr #21
   d9258:	ea4f 0c43 	mov.w	ip, r3, lsl #1
   d925c:	bf18      	it	ne
   d925e:	ea7f 5c6c 	mvnsne.w	ip, ip, asr #21
   d9262:	d01b      	beq.n	d929c <__cmpdf2+0x54>
   d9264:	b001      	add	sp, #4
   d9266:	ea50 0c41 	orrs.w	ip, r0, r1, lsl #1
   d926a:	bf0c      	ite	eq
   d926c:	ea52 0c43 	orrseq.w	ip, r2, r3, lsl #1
   d9270:	ea91 0f03 	teqne	r1, r3
   d9274:	bf02      	ittt	eq
   d9276:	ea90 0f02 	teqeq	r0, r2
   d927a:	2000      	moveq	r0, #0
   d927c:	4770      	bxeq	lr
   d927e:	f110 0f00 	cmn.w	r0, #0
   d9282:	ea91 0f03 	teq	r1, r3
   d9286:	bf58      	it	pl
   d9288:	4299      	cmppl	r1, r3
   d928a:	bf08      	it	eq
   d928c:	4290      	cmpeq	r0, r2
   d928e:	bf2c      	ite	cs
   d9290:	17d8      	asrcs	r0, r3, #31
   d9292:	ea6f 70e3 	mvncc.w	r0, r3, asr #31
   d9296:	f040 0001 	orr.w	r0, r0, #1
   d929a:	4770      	bx	lr
   d929c:	ea4f 0c41 	mov.w	ip, r1, lsl #1
   d92a0:	ea7f 5c6c 	mvns.w	ip, ip, asr #21
   d92a4:	d102      	bne.n	d92ac <__cmpdf2+0x64>
   d92a6:	ea50 3c01 	orrs.w	ip, r0, r1, lsl #12
   d92aa:	d107      	bne.n	d92bc <__cmpdf2+0x74>
   d92ac:	ea4f 0c43 	mov.w	ip, r3, lsl #1
   d92b0:	ea7f 5c6c 	mvns.w	ip, ip, asr #21
   d92b4:	d1d6      	bne.n	d9264 <__cmpdf2+0x1c>
   d92b6:	ea52 3c03 	orrs.w	ip, r2, r3, lsl #12
   d92ba:	d0d3      	beq.n	d9264 <__cmpdf2+0x1c>
   d92bc:	f85d 0b04 	ldr.w	r0, [sp], #4
   d92c0:	4770      	bx	lr
   d92c2:	bf00      	nop

000d92c4 <__aeabi_cdrcmple>:
   d92c4:	4684      	mov	ip, r0
   d92c6:	4610      	mov	r0, r2
   d92c8:	4662      	mov	r2, ip
   d92ca:	468c      	mov	ip, r1
   d92cc:	4619      	mov	r1, r3
   d92ce:	4663      	mov	r3, ip
   d92d0:	e000      	b.n	d92d4 <__aeabi_cdcmpeq>
   d92d2:	bf00      	nop

000d92d4 <__aeabi_cdcmpeq>:
   d92d4:	b501      	push	{r0, lr}
   d92d6:	f7ff ffb7 	bl	d9248 <__cmpdf2>
   d92da:	2800      	cmp	r0, #0
   d92dc:	bf48      	it	mi
   d92de:	f110 0f00 	cmnmi.w	r0, #0
   d92e2:	bd01      	pop	{r0, pc}

000d92e4 <__aeabi_dcmpeq>:
   d92e4:	f84d ed08 	str.w	lr, [sp, #-8]!
   d92e8:	f7ff fff4 	bl	d92d4 <__aeabi_cdcmpeq>
   d92ec:	bf0c      	ite	eq
   d92ee:	2001      	moveq	r0, #1
   d92f0:	2000      	movne	r0, #0
   d92f2:	f85d fb08 	ldr.w	pc, [sp], #8
   d92f6:	bf00      	nop

000d92f8 <__aeabi_dcmplt>:
   d92f8:	f84d ed08 	str.w	lr, [sp, #-8]!
   d92fc:	f7ff ffea 	bl	d92d4 <__aeabi_cdcmpeq>
   d9300:	bf34      	ite	cc
   d9302:	2001      	movcc	r0, #1
   d9304:	2000      	movcs	r0, #0
   d9306:	f85d fb08 	ldr.w	pc, [sp], #8
   d930a:	bf00      	nop

000d930c <__aeabi_dcmple>:
   d930c:	f84d ed08 	str.w	lr, [sp, #-8]!
   d9310:	f7ff ffe0 	bl	d92d4 <__aeabi_cdcmpeq>
   d9314:	bf94      	ite	ls
   d9316:	2001      	movls	r0, #1
   d9318:	2000      	movhi	r0, #0
   d931a:	f85d fb08 	ldr.w	pc, [sp], #8
   d931e:	bf00      	nop

000d9320 <__aeabi_dcmpge>:
   d9320:	f84d ed08 	str.w	lr, [sp, #-8]!
   d9324:	f7ff ffce 	bl	d92c4 <__aeabi_cdrcmple>
   d9328:	bf94      	ite	ls
   d932a:	2001      	movls	r0, #1
   d932c:	2000      	movhi	r0, #0
   d932e:	f85d fb08 	ldr.w	pc, [sp], #8
   d9332:	bf00      	nop

000d9334 <__aeabi_dcmpgt>:
   d9334:	f84d ed08 	str.w	lr, [sp, #-8]!
   d9338:	f7ff ffc4 	bl	d92c4 <__aeabi_cdrcmple>
   d933c:	bf34      	ite	cc
   d933e:	2001      	movcc	r0, #1
   d9340:	2000      	movcs	r0, #0
   d9342:	f85d fb08 	ldr.w	pc, [sp], #8
   d9346:	bf00      	nop

000d9348 <__aeabi_dcmpun>:
   d9348:	ea4f 0c41 	mov.w	ip, r1, lsl #1
   d934c:	ea7f 5c6c 	mvns.w	ip, ip, asr #21
   d9350:	d102      	bne.n	d9358 <__aeabi_dcmpun+0x10>
   d9352:	ea50 3c01 	orrs.w	ip, r0, r1, lsl #12
   d9356:	d10a      	bne.n	d936e <__aeabi_dcmpun+0x26>
   d9358:	ea4f 0c43 	mov.w	ip, r3, lsl #1
   d935c:	ea7f 5c6c 	mvns.w	ip, ip, asr #21
   d9360:	d102      	bne.n	d9368 <__aeabi_dcmpun+0x20>
   d9362:	ea52 3c03 	orrs.w	ip, r2, r3, lsl #12
   d9366:	d102      	bne.n	d936e <__aeabi_dcmpun+0x26>
   d9368:	f04f 0000 	mov.w	r0, #0
   d936c:	4770      	bx	lr
   d936e:	f04f 0001 	mov.w	r0, #1
   d9372:	4770      	bx	lr

000d9374 <__aeabi_d2iz>:
   d9374:	ea4f 0241 	mov.w	r2, r1, lsl #1
   d9378:	f512 1200 	adds.w	r2, r2, #2097152	; 0x200000
   d937c:	d215      	bcs.n	d93aa <__aeabi_d2iz+0x36>
   d937e:	d511      	bpl.n	d93a4 <__aeabi_d2iz+0x30>
   d9380:	f46f 7378 	mvn.w	r3, #992	; 0x3e0
   d9384:	ebb3 5262 	subs.w	r2, r3, r2, asr #21
   d9388:	d912      	bls.n	d93b0 <__aeabi_d2iz+0x3c>
   d938a:	ea4f 23c1 	mov.w	r3, r1, lsl #11
   d938e:	f043 4300 	orr.w	r3, r3, #2147483648	; 0x80000000
   d9392:	ea43 5350 	orr.w	r3, r3, r0, lsr #21
   d9396:	f011 4f00 	tst.w	r1, #2147483648	; 0x80000000
   d939a:	fa23 f002 	lsr.w	r0, r3, r2
   d939e:	bf18      	it	ne
   d93a0:	4240      	negne	r0, r0
   d93a2:	4770      	bx	lr
   d93a4:	f04f 0000 	mov.w	r0, #0
   d93a8:	4770      	bx	lr
   d93aa:	ea50 3001 	orrs.w	r0, r0, r1, lsl #12
   d93ae:	d105      	bne.n	d93bc <__aeabi_d2iz+0x48>
   d93b0:	f011 4000 	ands.w	r0, r1, #2147483648	; 0x80000000
   d93b4:	bf08      	it	eq
   d93b6:	f06f 4000 	mvneq.w	r0, #2147483648	; 0x80000000
   d93ba:	4770      	bx	lr
   d93bc:	f04f 0000 	mov.w	r0, #0
   d93c0:	4770      	bx	lr
   d93c2:	bf00      	nop

000d93c4 <__aeabi_d2uiz>:
   d93c4:	004a      	lsls	r2, r1, #1
   d93c6:	d211      	bcs.n	d93ec <__aeabi_d2uiz+0x28>
   d93c8:	f512 1200 	adds.w	r2, r2, #2097152	; 0x200000
   d93cc:	d211      	bcs.n	d93f2 <__aeabi_d2uiz+0x2e>
   d93ce:	d50d      	bpl.n	d93ec <__aeabi_d2uiz+0x28>
   d93d0:	f46f 7378 	mvn.w	r3, #992	; 0x3e0
   d93d4:	ebb3 5262 	subs.w	r2, r3, r2, asr #21
   d93d8:	d40e      	bmi.n	d93f8 <__aeabi_d2uiz+0x34>
   d93da:	ea4f 23c1 	mov.w	r3, r1, lsl #11
   d93de:	f043 4300 	orr.w	r3, r3, #2147483648	; 0x80000000
   d93e2:	ea43 5350 	orr.w	r3, r3, r0, lsr #21
   d93e6:	fa23 f002 	lsr.w	r0, r3, r2
   d93ea:	4770      	bx	lr
   d93ec:	f04f 0000 	mov.w	r0, #0
   d93f0:	4770      	bx	lr
   d93f2:	ea50 3001 	orrs.w	r0, r0, r1, lsl #12
   d93f6:	d102      	bne.n	d93fe <__aeabi_d2uiz+0x3a>
   d93f8:	f04f 30ff 	mov.w	r0, #4294967295
   d93fc:	4770      	bx	lr
   d93fe:	f04f 0000 	mov.w	r0, #0
   d9402:	4770      	bx	lr

000d9404 <__aeabi_uldivmod>:
   d9404:	b953      	cbnz	r3, d941c <__aeabi_uldivmod+0x18>
   d9406:	b94a      	cbnz	r2, d941c <__aeabi_uldivmod+0x18>
   d9408:	2900      	cmp	r1, #0
   d940a:	bf08      	it	eq
   d940c:	2800      	cmpeq	r0, #0
   d940e:	bf1c      	itt	ne
   d9410:	f04f 31ff 	movne.w	r1, #4294967295
   d9414:	f04f 30ff 	movne.w	r0, #4294967295
   d9418:	f000 b98c 	b.w	d9734 <__aeabi_idiv0>
   d941c:	f1ad 0c08 	sub.w	ip, sp, #8
   d9420:	e96d ce04 	strd	ip, lr, [sp, #-16]!
   d9424:	f000 f824 	bl	d9470 <__udivmoddi4>
   d9428:	f8dd e004 	ldr.w	lr, [sp, #4]
   d942c:	e9dd 2302 	ldrd	r2, r3, [sp, #8]
   d9430:	b004      	add	sp, #16
   d9432:	4770      	bx	lr

000d9434 <__aeabi_d2ulz>:
   d9434:	b5d0      	push	{r4, r6, r7, lr}
   d9436:	4b0c      	ldr	r3, [pc, #48]	; (d9468 <__aeabi_d2ulz+0x34>)
   d9438:	2200      	movs	r2, #0
   d943a:	4606      	mov	r6, r0
   d943c:	460f      	mov	r7, r1
   d943e:	f7ff fce9 	bl	d8e14 <__aeabi_dmul>
   d9442:	f7ff ffbf 	bl	d93c4 <__aeabi_d2uiz>
   d9446:	4604      	mov	r4, r0
   d9448:	f7ff fc6a 	bl	d8d20 <__aeabi_ui2d>
   d944c:	4b07      	ldr	r3, [pc, #28]	; (d946c <__aeabi_d2ulz+0x38>)
   d944e:	2200      	movs	r2, #0
   d9450:	f7ff fce0 	bl	d8e14 <__aeabi_dmul>
   d9454:	4602      	mov	r2, r0
   d9456:	460b      	mov	r3, r1
   d9458:	4630      	mov	r0, r6
   d945a:	4639      	mov	r1, r7
   d945c:	f7ff fb22 	bl	d8aa4 <__aeabi_dsub>
   d9460:	f7ff ffb0 	bl	d93c4 <__aeabi_d2uiz>
   d9464:	4621      	mov	r1, r4
   d9466:	bdd0      	pop	{r4, r6, r7, pc}
   d9468:	3df00000 	.word	0x3df00000
   d946c:	41f00000 	.word	0x41f00000

000d9470 <__udivmoddi4>:
   d9470:	e92d 47f0 	stmdb	sp!, {r4, r5, r6, r7, r8, r9, sl, lr}
   d9474:	9d08      	ldr	r5, [sp, #32]
   d9476:	4604      	mov	r4, r0
   d9478:	468c      	mov	ip, r1
   d947a:	2b00      	cmp	r3, #0
   d947c:	f040 8083 	bne.w	d9586 <__udivmoddi4+0x116>
   d9480:	428a      	cmp	r2, r1
   d9482:	4617      	mov	r7, r2
   d9484:	d947      	bls.n	d9516 <__udivmoddi4+0xa6>
   d9486:	fab2 f282 	clz	r2, r2
   d948a:	b142      	cbz	r2, d949e <__udivmoddi4+0x2e>
   d948c:	f1c2 0020 	rsb	r0, r2, #32
   d9490:	fa24 f000 	lsr.w	r0, r4, r0
   d9494:	4091      	lsls	r1, r2
   d9496:	4097      	lsls	r7, r2
   d9498:	ea40 0c01 	orr.w	ip, r0, r1
   d949c:	4094      	lsls	r4, r2
   d949e:	ea4f 4817 	mov.w	r8, r7, lsr #16
   d94a2:	0c23      	lsrs	r3, r4, #16
   d94a4:	fbbc f6f8 	udiv	r6, ip, r8
   d94a8:	fa1f fe87 	uxth.w	lr, r7
   d94ac:	fb08 c116 	mls	r1, r8, r6, ip
   d94b0:	ea43 4301 	orr.w	r3, r3, r1, lsl #16
   d94b4:	fb06 f10e 	mul.w	r1, r6, lr
   d94b8:	4299      	cmp	r1, r3
   d94ba:	d909      	bls.n	d94d0 <__udivmoddi4+0x60>
   d94bc:	18fb      	adds	r3, r7, r3
   d94be:	f106 30ff 	add.w	r0, r6, #4294967295
   d94c2:	f080 8119 	bcs.w	d96f8 <__udivmoddi4+0x288>
   d94c6:	4299      	cmp	r1, r3
   d94c8:	f240 8116 	bls.w	d96f8 <__udivmoddi4+0x288>
   d94cc:	3e02      	subs	r6, #2
   d94ce:	443b      	add	r3, r7
   d94d0:	1a5b      	subs	r3, r3, r1
   d94d2:	b2a4      	uxth	r4, r4
   d94d4:	fbb3 f0f8 	udiv	r0, r3, r8
   d94d8:	fb08 3310 	mls	r3, r8, r0, r3
   d94dc:	ea44 4403 	orr.w	r4, r4, r3, lsl #16
   d94e0:	fb00 fe0e 	mul.w	lr, r0, lr
   d94e4:	45a6      	cmp	lr, r4
   d94e6:	d909      	bls.n	d94fc <__udivmoddi4+0x8c>
   d94e8:	193c      	adds	r4, r7, r4
   d94ea:	f100 33ff 	add.w	r3, r0, #4294967295
   d94ee:	f080 8105 	bcs.w	d96fc <__udivmoddi4+0x28c>
   d94f2:	45a6      	cmp	lr, r4
   d94f4:	f240 8102 	bls.w	d96fc <__udivmoddi4+0x28c>
   d94f8:	3802      	subs	r0, #2
   d94fa:	443c      	add	r4, r7
   d94fc:	ea40 4006 	orr.w	r0, r0, r6, lsl #16
   d9500:	eba4 040e 	sub.w	r4, r4, lr
   d9504:	2600      	movs	r6, #0
   d9506:	b11d      	cbz	r5, d9510 <__udivmoddi4+0xa0>
   d9508:	40d4      	lsrs	r4, r2
   d950a:	2300      	movs	r3, #0
   d950c:	e9c5 4300 	strd	r4, r3, [r5]
   d9510:	4631      	mov	r1, r6
   d9512:	e8bd 87f0 	ldmia.w	sp!, {r4, r5, r6, r7, r8, r9, sl, pc}
   d9516:	b902      	cbnz	r2, d951a <__udivmoddi4+0xaa>
   d9518:	deff      	udf	#255	; 0xff
   d951a:	fab2 f282 	clz	r2, r2
   d951e:	2a00      	cmp	r2, #0
   d9520:	d150      	bne.n	d95c4 <__udivmoddi4+0x154>
   d9522:	1bcb      	subs	r3, r1, r7
   d9524:	ea4f 4e17 	mov.w	lr, r7, lsr #16
   d9528:	fa1f f887 	uxth.w	r8, r7
   d952c:	2601      	movs	r6, #1
   d952e:	fbb3 fcfe 	udiv	ip, r3, lr
   d9532:	0c21      	lsrs	r1, r4, #16
   d9534:	fb0e 331c 	mls	r3, lr, ip, r3
   d9538:	ea41 4103 	orr.w	r1, r1, r3, lsl #16
   d953c:	fb08 f30c 	mul.w	r3, r8, ip
   d9540:	428b      	cmp	r3, r1
   d9542:	d907      	bls.n	d9554 <__udivmoddi4+0xe4>
   d9544:	1879      	adds	r1, r7, r1
   d9546:	f10c 30ff 	add.w	r0, ip, #4294967295
   d954a:	d202      	bcs.n	d9552 <__udivmoddi4+0xe2>
   d954c:	428b      	cmp	r3, r1
   d954e:	f200 80e9 	bhi.w	d9724 <__udivmoddi4+0x2b4>
   d9552:	4684      	mov	ip, r0
   d9554:	1ac9      	subs	r1, r1, r3
   d9556:	b2a3      	uxth	r3, r4
   d9558:	fbb1 f0fe 	udiv	r0, r1, lr
   d955c:	fb0e 1110 	mls	r1, lr, r0, r1
   d9560:	ea43 4401 	orr.w	r4, r3, r1, lsl #16
   d9564:	fb08 f800 	mul.w	r8, r8, r0
   d9568:	45a0      	cmp	r8, r4
   d956a:	d907      	bls.n	d957c <__udivmoddi4+0x10c>
   d956c:	193c      	adds	r4, r7, r4
   d956e:	f100 33ff 	add.w	r3, r0, #4294967295
   d9572:	d202      	bcs.n	d957a <__udivmoddi4+0x10a>
   d9574:	45a0      	cmp	r8, r4
   d9576:	f200 80d9 	bhi.w	d972c <__udivmoddi4+0x2bc>
   d957a:	4618      	mov	r0, r3
   d957c:	eba4 0408 	sub.w	r4, r4, r8
   d9580:	ea40 400c 	orr.w	r0, r0, ip, lsl #16
   d9584:	e7bf      	b.n	d9506 <__udivmoddi4+0x96>
   d9586:	428b      	cmp	r3, r1
   d9588:	d909      	bls.n	d959e <__udivmoddi4+0x12e>
   d958a:	2d00      	cmp	r5, #0
   d958c:	f000 80b1 	beq.w	d96f2 <__udivmoddi4+0x282>
   d9590:	2600      	movs	r6, #0
   d9592:	e9c5 0100 	strd	r0, r1, [r5]
   d9596:	4630      	mov	r0, r6
   d9598:	4631      	mov	r1, r6
   d959a:	e8bd 87f0 	ldmia.w	sp!, {r4, r5, r6, r7, r8, r9, sl, pc}
   d959e:	fab3 f683 	clz	r6, r3
   d95a2:	2e00      	cmp	r6, #0
   d95a4:	d14a      	bne.n	d963c <__udivmoddi4+0x1cc>
   d95a6:	428b      	cmp	r3, r1
   d95a8:	d302      	bcc.n	d95b0 <__udivmoddi4+0x140>
   d95aa:	4282      	cmp	r2, r0
   d95ac:	f200 80b8 	bhi.w	d9720 <__udivmoddi4+0x2b0>
   d95b0:	1a84      	subs	r4, r0, r2
   d95b2:	eb61 0103 	sbc.w	r1, r1, r3
   d95b6:	2001      	movs	r0, #1
   d95b8:	468c      	mov	ip, r1
   d95ba:	2d00      	cmp	r5, #0
   d95bc:	d0a8      	beq.n	d9510 <__udivmoddi4+0xa0>
   d95be:	e9c5 4c00 	strd	r4, ip, [r5]
   d95c2:	e7a5      	b.n	d9510 <__udivmoddi4+0xa0>
   d95c4:	f1c2 0320 	rsb	r3, r2, #32
   d95c8:	fa20 f603 	lsr.w	r6, r0, r3
   d95cc:	4097      	lsls	r7, r2
   d95ce:	fa01 f002 	lsl.w	r0, r1, r2
   d95d2:	ea4f 4e17 	mov.w	lr, r7, lsr #16
   d95d6:	40d9      	lsrs	r1, r3
   d95d8:	4330      	orrs	r0, r6
   d95da:	0c03      	lsrs	r3, r0, #16
   d95dc:	fbb1 f6fe 	udiv	r6, r1, lr
   d95e0:	fa1f f887 	uxth.w	r8, r7
   d95e4:	fb0e 1116 	mls	r1, lr, r6, r1
   d95e8:	ea43 4301 	orr.w	r3, r3, r1, lsl #16
   d95ec:	fb06 f108 	mul.w	r1, r6, r8
   d95f0:	4299      	cmp	r1, r3
   d95f2:	fa04 f402 	lsl.w	r4, r4, r2
   d95f6:	d909      	bls.n	d960c <__udivmoddi4+0x19c>
   d95f8:	18fb      	adds	r3, r7, r3
   d95fa:	f106 3cff 	add.w	ip, r6, #4294967295
   d95fe:	f080 808d 	bcs.w	d971c <__udivmoddi4+0x2ac>
   d9602:	4299      	cmp	r1, r3
   d9604:	f240 808a 	bls.w	d971c <__udivmoddi4+0x2ac>
   d9608:	3e02      	subs	r6, #2
   d960a:	443b      	add	r3, r7
   d960c:	1a5b      	subs	r3, r3, r1
   d960e:	b281      	uxth	r1, r0
   d9610:	fbb3 f0fe 	udiv	r0, r3, lr
   d9614:	fb0e 3310 	mls	r3, lr, r0, r3
   d9618:	ea41 4103 	orr.w	r1, r1, r3, lsl #16
   d961c:	fb00 f308 	mul.w	r3, r0, r8
   d9620:	428b      	cmp	r3, r1
   d9622:	d907      	bls.n	d9634 <__udivmoddi4+0x1c4>
   d9624:	1879      	adds	r1, r7, r1
   d9626:	f100 3cff 	add.w	ip, r0, #4294967295
   d962a:	d273      	bcs.n	d9714 <__udivmoddi4+0x2a4>
   d962c:	428b      	cmp	r3, r1
   d962e:	d971      	bls.n	d9714 <__udivmoddi4+0x2a4>
   d9630:	3802      	subs	r0, #2
   d9632:	4439      	add	r1, r7
   d9634:	1acb      	subs	r3, r1, r3
   d9636:	ea40 4606 	orr.w	r6, r0, r6, lsl #16
   d963a:	e778      	b.n	d952e <__udivmoddi4+0xbe>
   d963c:	f1c6 0c20 	rsb	ip, r6, #32
   d9640:	fa03 f406 	lsl.w	r4, r3, r6
   d9644:	fa22 f30c 	lsr.w	r3, r2, ip
   d9648:	431c      	orrs	r4, r3
   d964a:	fa20 f70c 	lsr.w	r7, r0, ip
   d964e:	fa01 f306 	lsl.w	r3, r1, r6
   d9652:	ea4f 4e14 	mov.w	lr, r4, lsr #16
   d9656:	fa21 f10c 	lsr.w	r1, r1, ip
   d965a:	431f      	orrs	r7, r3
   d965c:	0c3b      	lsrs	r3, r7, #16
   d965e:	fbb1 f9fe 	udiv	r9, r1, lr
   d9662:	fa1f f884 	uxth.w	r8, r4
   d9666:	fb0e 1119 	mls	r1, lr, r9, r1
   d966a:	ea43 4101 	orr.w	r1, r3, r1, lsl #16
   d966e:	fb09 fa08 	mul.w	sl, r9, r8
   d9672:	458a      	cmp	sl, r1
   d9674:	fa02 f206 	lsl.w	r2, r2, r6
   d9678:	fa00 f306 	lsl.w	r3, r0, r6
   d967c:	d908      	bls.n	d9690 <__udivmoddi4+0x220>
   d967e:	1861      	adds	r1, r4, r1
   d9680:	f109 30ff 	add.w	r0, r9, #4294967295
   d9684:	d248      	bcs.n	d9718 <__udivmoddi4+0x2a8>
   d9686:	458a      	cmp	sl, r1
   d9688:	d946      	bls.n	d9718 <__udivmoddi4+0x2a8>
   d968a:	f1a9 0902 	sub.w	r9, r9, #2
   d968e:	4421      	add	r1, r4
   d9690:	eba1 010a 	sub.w	r1, r1, sl
   d9694:	b2bf      	uxth	r7, r7
   d9696:	fbb1 f0fe 	udiv	r0, r1, lr
   d969a:	fb0e 1110 	mls	r1, lr, r0, r1
   d969e:	ea47 4701 	orr.w	r7, r7, r1, lsl #16
   d96a2:	fb00 f808 	mul.w	r8, r0, r8
   d96a6:	45b8      	cmp	r8, r7
   d96a8:	d907      	bls.n	d96ba <__udivmoddi4+0x24a>
   d96aa:	19e7      	adds	r7, r4, r7
   d96ac:	f100 31ff 	add.w	r1, r0, #4294967295
   d96b0:	d22e      	bcs.n	d9710 <__udivmoddi4+0x2a0>
   d96b2:	45b8      	cmp	r8, r7
   d96b4:	d92c      	bls.n	d9710 <__udivmoddi4+0x2a0>
   d96b6:	3802      	subs	r0, #2
   d96b8:	4427      	add	r7, r4
   d96ba:	ea40 4009 	orr.w	r0, r0, r9, lsl #16
   d96be:	eba7 0708 	sub.w	r7, r7, r8
   d96c2:	fba0 8902 	umull	r8, r9, r0, r2
   d96c6:	454f      	cmp	r7, r9
   d96c8:	46c6      	mov	lr, r8
   d96ca:	4649      	mov	r1, r9
   d96cc:	d31a      	bcc.n	d9704 <__udivmoddi4+0x294>
   d96ce:	d017      	beq.n	d9700 <__udivmoddi4+0x290>
   d96d0:	b15d      	cbz	r5, d96ea <__udivmoddi4+0x27a>
   d96d2:	ebb3 020e 	subs.w	r2, r3, lr
   d96d6:	eb67 0701 	sbc.w	r7, r7, r1
   d96da:	fa07 fc0c 	lsl.w	ip, r7, ip
   d96de:	40f2      	lsrs	r2, r6
   d96e0:	ea4c 0202 	orr.w	r2, ip, r2
   d96e4:	40f7      	lsrs	r7, r6
   d96e6:	e9c5 2700 	strd	r2, r7, [r5]
   d96ea:	2600      	movs	r6, #0
   d96ec:	4631      	mov	r1, r6
   d96ee:	e8bd 87f0 	ldmia.w	sp!, {r4, r5, r6, r7, r8, r9, sl, pc}
   d96f2:	462e      	mov	r6, r5
   d96f4:	4628      	mov	r0, r5
   d96f6:	e70b      	b.n	d9510 <__udivmoddi4+0xa0>
   d96f8:	4606      	mov	r6, r0
   d96fa:	e6e9      	b.n	d94d0 <__udivmoddi4+0x60>
   d96fc:	4618      	mov	r0, r3
   d96fe:	e6fd      	b.n	d94fc <__udivmoddi4+0x8c>
   d9700:	4543      	cmp	r3, r8
   d9702:	d2e5      	bcs.n	d96d0 <__udivmoddi4+0x260>
   d9704:	ebb8 0e02 	subs.w	lr, r8, r2
   d9708:	eb69 0104 	sbc.w	r1, r9, r4
   d970c:	3801      	subs	r0, #1
   d970e:	e7df      	b.n	d96d0 <__udivmoddi4+0x260>
   d9710:	4608      	mov	r0, r1
   d9712:	e7d2      	b.n	d96ba <__udivmoddi4+0x24a>
   d9714:	4660      	mov	r0, ip
   d9716:	e78d      	b.n	d9634 <__udivmoddi4+0x1c4>
   d9718:	4681      	mov	r9, r0
   d971a:	e7b9      	b.n	d9690 <__udivmoddi4+0x220>
   d971c:	4666      	mov	r6, ip
   d971e:	e775      	b.n	d960c <__udivmoddi4+0x19c>
   d9720:	4630      	mov	r0, r6
   d9722:	e74a      	b.n	d95ba <__udivmoddi4+0x14a>
   d9724:	f1ac 0c02 	sub.w	ip, ip, #2
   d9728:	4439      	add	r1, r7
   d972a:	e713      	b.n	d9554 <__udivmoddi4+0xe4>
   d972c:	3802      	subs	r0, #2
   d972e:	443c      	add	r4, r7
   d9730:	e724      	b.n	d957c <__udivmoddi4+0x10c>
   d9732:	bf00      	nop

000d9734 <__aeabi_idiv0>:
   d9734:	4770      	bx	lr
   d9736:	bf00      	nop

000d9738 <__cxa_atexit>:
   d9738:	b510      	push	{r4, lr}
   d973a:	4c05      	ldr	r4, [pc, #20]	; (d9750 <__cxa_atexit+0x18>)
   d973c:	4613      	mov	r3, r2
   d973e:	b12c      	cbz	r4, d974c <__cxa_atexit+0x14>
   d9740:	460a      	mov	r2, r1
   d9742:	4601      	mov	r1, r0
   d9744:	2002      	movs	r0, #2
   d9746:	f3af 8000 	nop.w
   d974a:	bd10      	pop	{r4, pc}
   d974c:	4620      	mov	r0, r4
   d974e:	e7fc      	b.n	d974a <__cxa_atexit+0x12>
   d9750:	00000000 	.word	0x00000000

000d9754 <memcpy>:
   d9754:	440a      	add	r2, r1
   d9756:	4291      	cmp	r1, r2
   d9758:	f100 33ff 	add.w	r3, r0, #4294967295
   d975c:	d100      	bne.n	d9760 <memcpy+0xc>
   d975e:	4770      	bx	lr
   d9760:	b510      	push	{r4, lr}
   d9762:	f811 4b01 	ldrb.w	r4, [r1], #1
   d9766:	f803 4f01 	strb.w	r4, [r3, #1]!
   d976a:	4291      	cmp	r1, r2
   d976c:	d1f9      	bne.n	d9762 <memcpy+0xe>
   d976e:	bd10      	pop	{r4, pc}

000d9770 <memset>:
   d9770:	4402      	add	r2, r0
   d9772:	4603      	mov	r3, r0
   d9774:	4293      	cmp	r3, r2
   d9776:	d100      	bne.n	d977a <memset+0xa>
   d9778:	4770      	bx	lr
   d977a:	f803 1b01 	strb.w	r1, [r3], #1
   d977e:	e7f9      	b.n	d9774 <memset+0x4>

000d9780 <srand>:
   d9780:	b538      	push	{r3, r4, r5, lr}
   d9782:	4b0d      	ldr	r3, [pc, #52]	; (d97b8 <srand+0x38>)
   d9784:	681d      	ldr	r5, [r3, #0]
   d9786:	6bab      	ldr	r3, [r5, #56]	; 0x38
   d9788:	4604      	mov	r4, r0
   d978a:	b97b      	cbnz	r3, d97ac <srand+0x2c>
   d978c:	2018      	movs	r0, #24
   d978e:	f7fd fc95 	bl	d70bc <malloc>
   d9792:	4a0a      	ldr	r2, [pc, #40]	; (d97bc <srand+0x3c>)
   d9794:	4b0a      	ldr	r3, [pc, #40]	; (d97c0 <srand+0x40>)
   d9796:	63a8      	str	r0, [r5, #56]	; 0x38
   d9798:	e9c0 2300 	strd	r2, r3, [r0]
   d979c:	4b09      	ldr	r3, [pc, #36]	; (d97c4 <srand+0x44>)
   d979e:	6083      	str	r3, [r0, #8]
   d97a0:	230b      	movs	r3, #11
   d97a2:	8183      	strh	r3, [r0, #12]
   d97a4:	2201      	movs	r2, #1
   d97a6:	2300      	movs	r3, #0
   d97a8:	e9c0 2304 	strd	r2, r3, [r0, #16]
   d97ac:	6bab      	ldr	r3, [r5, #56]	; 0x38
   d97ae:	2200      	movs	r2, #0
   d97b0:	611c      	str	r4, [r3, #16]
   d97b2:	615a      	str	r2, [r3, #20]
   d97b4:	bd38      	pop	{r3, r4, r5, pc}
   d97b6:	bf00      	nop
   d97b8:	2003e0d0 	.word	0x2003e0d0
   d97bc:	abcd330e 	.word	0xabcd330e
   d97c0:	e66d1234 	.word	0xe66d1234
   d97c4:	0005deec 	.word	0x0005deec

000d97c8 <strcmp>:
   d97c8:	f810 2b01 	ldrb.w	r2, [r0], #1
   d97cc:	f811 3b01 	ldrb.w	r3, [r1], #1
   d97d0:	2a01      	cmp	r2, #1
   d97d2:	bf28      	it	cs
   d97d4:	429a      	cmpcs	r2, r3
   d97d6:	d0f7      	beq.n	d97c8 <strcmp>
   d97d8:	1ad0      	subs	r0, r2, r3
   d97da:	4770      	bx	lr

000d97dc <strcpy>:
   d97dc:	4603      	mov	r3, r0
   d97de:	f811 2b01 	ldrb.w	r2, [r1], #1
   d97e2:	f803 2b01 	strb.w	r2, [r3], #1
   d97e6:	2a00      	cmp	r2, #0
   d97e8:	d1f9      	bne.n	d97de <strcpy+0x2>
   d97ea:	4770      	bx	lr

000d97ec <strdup>:
   d97ec:	4b02      	ldr	r3, [pc, #8]	; (d97f8 <strdup+0xc>)
   d97ee:	4601      	mov	r1, r0
   d97f0:	6818      	ldr	r0, [r3, #0]
   d97f2:	f000 b803 	b.w	d97fc <_strdup_r>
   d97f6:	bf00      	nop
   d97f8:	2003e0d0 	.word	0x2003e0d0

000d97fc <_strdup_r>:
   d97fc:	b537      	push	{r0, r1, r2, r4, r5, lr}
   d97fe:	4604      	mov	r4, r0
   d9800:	4608      	mov	r0, r1
   d9802:	460d      	mov	r5, r1
   d9804:	f000 f80f 	bl	d9826 <strlen>
   d9808:	1c42      	adds	r2, r0, #1
   d980a:	4611      	mov	r1, r2
   d980c:	4620      	mov	r0, r4
   d980e:	9201      	str	r2, [sp, #4]
   d9810:	f7fd fc74 	bl	d70fc <_malloc_r>
   d9814:	4604      	mov	r4, r0
   d9816:	b118      	cbz	r0, d9820 <_strdup_r+0x24>
   d9818:	9a01      	ldr	r2, [sp, #4]
   d981a:	4629      	mov	r1, r5
   d981c:	f7ff ff9a 	bl	d9754 <memcpy>
   d9820:	4620      	mov	r0, r4
   d9822:	b003      	add	sp, #12
   d9824:	bd30      	pop	{r4, r5, pc}

000d9826 <strlen>:
   d9826:	4603      	mov	r3, r0
   d9828:	f813 2b01 	ldrb.w	r2, [r3], #1
   d982c:	2a00      	cmp	r2, #0
   d982e:	d1fb      	bne.n	d9828 <strlen+0x2>
   d9830:	1a18      	subs	r0, r3, r0
   d9832:	3801      	subs	r0, #1
   d9834:	4770      	bx	lr

000d9836 <link_code_end>:
	...

000d9838 <dynalib_user>:
   d9838:	4021 000d 405d 000d 4085 000d 4089 000d     !@..]@...@...@..
   d9848:	0000 0000 6573 646e 4e00 746f 6669 6369     ....send.Notific
   d9858:	7461 6f69 736e 6120 6c6c 776f 6465 002e     ations allowed..
   d9868:	7473 706f 4e00 746f 6669 6369 7461 6f69     stop.Notificatio
   d9878:	736e 7320 6c69 6e65 6563 2e64 6f00 6666     ns silenced..off
   d9888:	6400 7369 7261 006d 6944 6173 6d72 6465     .disarm.Disarmed
   d9898:	4100 6d72 6465 4400 7369 6261 696c 676e     .Armed.Disabling
   d98a8:	7220 6c65 7961 3220 6400 7369 6261 656c      relay 2.disable
   d98b8:	6500 616e 6c62 0065 6547 7474 6e69 2067     .enable.Getting 
   d98c8:	6f6c 6163 6974 6e6f 2e2e 2e2e 2e2e 2e2e     location........
   d98d8:	2e2e 2e2e 2e2e 2e2e 2e2e 2e2e 2e2e 2e2e     ................
   d98e8:	2e2e 2e2e 2e2e 2e2e 5200 6165 7964 7420     .........Ready t
   d98f8:	206f 6373 6e61 7320 6d6f 2065 6174 7367     o scan some tags
   d9908:	0021 6f43 6c75 2064 6f6e 2074 6f63 6d6d     !.Could not comm
   d9918:	6e75 6369 7461 2065 6977 6874 5120 6977     unicate with Qwi
   d9928:	6369 5220 4946 2144 2000 6341 6563 656c     ic RFID!. Accele
   d9938:	6f72 656d 6574 2072 6f6e 2074 6f43 6e6e     rometer not Conn
   d9948:	6365 6574 2e64 5020 656c 7361 2065 6863     ected. Please ch
   d9958:	6365 206b 6f63 6e6e 6365 6974 6e6f 2e73     eck connections.
   d9968:	4100 6363 6c65 7265 6d6f 7465 7265 7320     .Accelerometer s
   d9978:	6174 7472 6465 002e 6255 6f6c 2078 5047     tarted..Ublox GP
   d9988:	2053 6f6e 2074 6564 6574 7463 6465 6120     S not detected a
   d9998:	2074 6564 6166 6c75 2074 3249 2043 6461     t default I2C ad
   d99a8:	7264 7365 2e73 5020 656c 7361 2065 6863     dress. Please ch
   d99b8:	6365 206b 6977 6972 676e 002e 5047 2053     eck wiring..GPS 
   d99c8:	7473 7261 6574 2e64 6300 6568 6b63 6e69     started..checkin
   d99d8:	2067 6f6d 6576 656d 746e 4d00 766f 6d65     g movement.Movem
   d99e8:	6e65 2074 6564 6574 7463 6465 002e 7547     ent detected..Gu
   d99f8:	7261 6964 676e 2e2e 002e 5453 4c4f 4e45     arding....STOLEN
   d9a08:	4d20 5345 4153 4547 5320 4e45 0054 7774      MESSAGE SENT.tw
   d9a18:	6c69 6f69 735f 736d 5300 6f74 656c 2e6e     ilio_sms.Stolen.
   d9a28:	4c20 7361 2074 6f6c 6163 6974 6e6f 203a      Last location: 
   d9a38:	7468 7074 3a73 2f2f 7777 2e77 6f67 676f     https://www.goog
   d9a48:	656c 632e 6d6f 6d2f 7061 2f73 6573 7261     le.com/maps/sear
   d9a58:	6863 3f2f 7061 3d69 2631 7571 7265 3d79     ch/?api=1&query=
   d9a68:	2c00 4300 6568 6b63 6e69 2067 4652 4449     .,.Checking RFID
   d9a78:	3000 3030 3030 0030 6154 3a67 0020 3538     .000000.Tag: .85
   d9a88:	3730 3731 3135 3234 3131 0035 7541 6874     07175142115.Auth
   d9a98:	726f 7a69 6465 4120 6363 7365 0073 3431     orized Access.14
   d9aa8:	3830 3139 3330 3233 3631 3800 3035 3137     0891033216.85071
   d9ab8:	3739 3631 3535 0030 614d 7473 7265 4b20     9716550.Master K
   d9ac8:	7965 4120 7475 6f68 6972 657a 0064 4120     ey Authorized. A
   d9ad8:	6363 7365 2073 6564 696e 6465 6800 7265     ccess denied.her
   d9ae8:	0065 6556 6968 6c63 2065 6e4f 5600 6865     e.Vehicle On.Veh
   d9af8:	6369 656c 4f20 6666 2320 2323 2323 2323     icle Off #######
   d9b08:	2323 2323 2323 2323 2323 2323 2323 2323     ################
   d9b18:	2323 2323 2323 2323 2323 0023 6552 6461     ###########.Read
   d9b28:	2079 6f74 7320 6174 7472 5600 6865 6369     y to start.Vehic
   d9b38:	656c 6420 7369 6261 656c 0064 616c 6974     le disabled.lati
   d9b48:	7574 6564 6c00 6e6f 6967 7574 6564 7300     tude.longitude.s
   d9b58:	6e65 4164 656c 7472 7300 6c69 6e65 6563     endAlert.silence
   d9b68:	4600 6961 656c 2064 6572 6967 7473 6172     .Failed registra
   d9b78:	6974 6e6f 002e 6552 6967 7473 6172 6974     tion..Registrati
   d9b88:	6e6f 5320 6375 6563 7373 7566 2e6c 5500     on Successful..U
   d9b98:	6b6e 6f6e 6e77 5320 6174 7574 0073 4c43     nknown Status.CL
   d9ba8:	3a53 4e00 5641 4100 4b43 4300 4746 4d00     S:.NAV.ACK.CFG.M
   d9bb8:	4e4f 2000 4449 003a 5650 0054 4152 4554     ON. ID:.PVT.RATE
   d9bc8:	5300 5641 0045 4c20 6e65 203a 7830 2000     .SAVE. Len: 0x. 
   d9bd8:	6150 6c79 616f 3a64 2000 6150 6c79 616f     Payload:. Payloa
   d9be8:	3a64 4920 4e47 524f 4445 7000 6f72 6563     d: IGNORED.proce
   d9bf8:	7373 4255 3a58 4e20 4341 204b 6572 6563     ssUBX: NACK rece
   d9c08:	7669 6465 203a 6552 7571 7365 6574 2064     ived: Requested 
   d9c18:	6c43 7361 3a73 3020 0078 7270 636f 7365     Class: 0x.proces
   d9c28:	5573 5842 203a 7561 6f74 4e20 5641 5020     sUBX: auto NAV P
   d9c38:	5456 482f 5050 534f 4c4c 2f48 4f44 2050     VT/HPPOSLLH/DOP 
   d9c48:	6f63 6c6c 7369 6f69 3a6e 5220 7165 6575     collision: Reque
   d9c58:	7473 6465 4920 3a44 3020 0078 4d20 7365     sted ID: 0x. Mes
   d9c68:	6173 6567 4920 3a44 3020 0078 7270 636f     sage ID: 0x.proc
   d9c78:	7365 5573 5842 203a 7561 6f74 4820 524e     essUBX: auto HNR
   d9c88:	4120 5454 492f 534e 502f 5456 6320 6c6f      ATT/INS/PVT col
   d9c98:	696c 6973 6e6f 203a 6552 7571 7365 6574     lision: Requeste
   d9ca8:	2064 4449 203a 7830 4900 636e 6d6f 6e69     d ID: 0x.Incomin
   d9cb8:	3a67 5320 7a69 3a65 0020 5220 6365 6965     g: Size: . Recei
   d9cc8:	6576 3a64 0020 6170 6b63 7465 6643 2067     ved: .packetCfg 
   d9cd8:	6f6e 2077 6176 696c 0064 6170 6b63 7465     now valid.packet
   d9ce8:	6341 206b 6f6e 2077 6176 696c 0064 6170     Ack now valid.pa
   d9cf8:	6b63 7465 6643 2067 6c63 7361 4173 646e     cketCfg classAnd
   d9d08:	4449 616d 6374 0068 6170 6b63 7465 6341     IDmatch.packetAc
   d9d18:	206b 6c63 7361 4173 646e 4449 616d 6374     k classAndIDmatc
   d9d28:	0068 6843 6365 736b 6d75 6620 6961 656c     h.Checksum faile
   d9d38:	3a64 2000 6863 6365 736b 6d75 3a41 0020     d:. checksumA: .
   d9d48:	6320 6568 6b63 7573 426d 203a 2000 6f72      checksumB: . ro
   d9d58:	6c6c 6e69 4367 6568 6b63 7573 416d 203a     llingChecksumA: 
   d9d68:	2000 6f72 6c6c 6e69 4367 6568 6b63 7573     . rollingChecksu
   d9d78:	426d 203a 4600 6961 656c 2064 3a20 0020     mB: .Failed  : .
   d9d88:	7270 636f 7365 5573 5842 203a 7562 6666     processUBX: buff
   d9d98:	7265 6f20 6576 7272 6e75 6420 7465 6365     er overrun detec
   d9da8:	6574 0064 7270 636f 7365 5573 5842 203a     ted.processUBX: 
   d9db8:	6f63 6e75 6574 2072 6968 2074 414d 5f58     counter hit MAX_
   d9dc8:	4150 4c59 414f 5f44 4953 455a 7000 6f72     PAYLOAD_SIZE.pro
   d9dd8:	6563 7373 203a 7561 6f74 4e20 5641 5020     cess: auto NAV P
   d9de8:	5456 482f 5050 534f 4c4c 2f48 4f44 2050     VT/HPPOSLLH/DOP 
   d9df8:	6f63 6c6c 7369 6f69 3a6e 5220 7165 6575     collision: Reque
   d9e08:	7473 6465 4920 3a44 3020 0078 7270 636f     sted ID: 0x.proc
   d9e18:	7365 3a73 6120 7475 206f 4e48 2052 5441     ess: auto HNR AT
   d9e28:	2f54 4e49 2f53 5650 2054 6f63 6c6c 7369     T/INS/PVT collis
   d9e38:	6f69 3a6e 5220 7165 6575 7473 6465 4920     ion: Requested I
   d9e48:	3a44 3020 0078 7270 636f 7365 3a73 5a20     D: 0x.process: Z
   d9e58:	5245 204f 454c 474e 4854 7020 6361 656b     ERO LENGTH packe
   d9e68:	2074 6572 6563 7669 6465 203a 6c43 7361     t received: Clas
   d9e78:	3a73 3020 0078 7270 636f 7365 3a73 4120     s: 0x.process: A
   d9e88:	4b43 7220 6365 6965 6576 2064 6977 6874     CK received with
   d9e98:	2e20 656c 206e 3d21 3220 203a 6c43 7361      .len != 2: Clas
   d9ea8:	3a73 3020 0078 6c20 6e65 203a 6300 6568     s: 0x. len: .che
   d9eb8:	6b63 6255 6f6c 4978 4332 203a 2d75 6c62     ckUbloxI2C: u-bl
   d9ec8:	786f 6220 6775 202c 656c 676e 6874 6c20     ox bug, length l
   d9ed8:	6273 6920 2073 7830 4646 6300 6568 6b63     sb is 0xFF.check
   d9ee8:	6255 6f6c 4978 4332 203a 4b4f 202c 657a     UbloxI2C: OK, ze
   d9ef8:	6f72 6220 7479 7365 6120 6176 6c69 6261     ro bytes availab
   d9f08:	656c 6300 6568 6b63 6255 6f6c 4978 4332     le.checkUbloxI2C
   d9f18:	203a 7942 6574 2073 7661 6961 616c 6c62     : Bytes availabl
   d9f28:	2065 7265 6f72 3a72 6300 6568 6b63 6255     e error:.checkUb
   d9f38:	6f6c 4978 4332 203a 614c 6772 2065 6170     loxI2C: Large pa
   d9f48:	6b63 7465 6f20 2066 2000 7962 6574 2073     cket of . bytes 
   d9f58:	6572 6563 7669 6465 6300 6568 6b63 6255     received.checkUb
   d9f68:	6f6c 4978 4332 203a 6552 6461 6e69 2067     loxI2C: Reading 
   d9f78:	2000 7962 6574 0073 6863 6365 556b 6c62     . bytes.checkUbl
   d9f88:	786f 3255 3a43 7520 622d 6f6c 2078 7265     oxU2C: u-blox er
   d9f98:	6f72 2c72 6d20 646f 6c75 2065 6f6e 2074     ror, module not 
   d9fa8:	6572 6461 2079 6977 6874 6420 7461 0061     ready with data.
   d9fb8:	6177 7469 6f46 4172 4b43 6552 7073 6e6f     waitForACKRespon
   d9fc8:	6573 203a 6176 696c 2064 6164 6174 6120     se: valid data a
   d9fd8:	646e 7620 6c61 6469 4120 4b43 7220 6365     nd valid ACK rec
   d9fe8:	6965 6576 2064 6661 6574 2072 2000 736d     eived after . ms
   d9ff8:	6365 7700 6961 4674 726f 4341 524b 7365     ec.waitForACKRes
   da008:	6f70 736e 3a65 6e20 206f 6164 6174 6120     ponse: no data a
   da018:	646e 7620 6c61 6469 4120 4b43 6120 7466     nd valid ACK aft
   da028:	7265 0020 6177 7469 6f46 4172 4b43 6552     er .waitForACKRe
   da038:	7073 6e6f 6573 203a 6164 6174 6220 6965     sponse: data bei
   da048:	676e 4f20 4556 5752 4952 5454 4e45 6120     ng OVERWRITTEN a
   da058:	7466 7265 0020 6177 7469 6f46 4172 4b43     fter .waitForACK
   da068:	6552 7073 6e6f 6573 203a 5243 2043 6166     Response: CRC fa
   da078:	6c69 6465 6120 7466 7265 0020 6177 7469     iled after .wait
   da088:	6f46 4172 4b43 6552 7073 6e6f 6573 203a     ForACKResponse: 
   da098:	6164 6174 7720 7361 4e20 544f 4341 4e4b     data was NOTACKN
   da0a8:	574f 454c 4744 4445 2820 414e 4b43 2029     OWLEDGED (NACK) 
   da0b8:	6661 6574 2072 7700 6961 4674 726f 4341     after .waitForAC
   da0c8:	524b 7365 6f70 736e 3a65 5620 4c41 4449     KResponse: VALID
   da0d8:	6420 7461 2061 6e61 2064 4e49 4156 494c      data and INVALI
   da0e8:	2044 4341 204b 6572 6563 7669 6465 6120     D ACK received a
   da0f8:	7466 7265 0020 6177 7469 6f46 4172 4b43     fter .waitForACK
   da108:	6552 7073 6e6f 6573 203a 4e49 4156 494c     Response: INVALI
   da118:	2044 6164 6174 6120 646e 4920 564e 4c41     D data and INVAL
   da128:	4449 4120 4b43 7220 6365 6965 6576 2064     ID ACK received 
   da138:	6661 6574 2072 7700 6961 4674 726f 4341     after .waitForAC
   da148:	524b 7365 6f70 736e 3a65 7620 6c61 6469     KResponse: valid
   da158:	6420 7461 2061 6661 6574 2072 2000 736d      data after . ms
   da168:	6365 202e 6157 7469 6e69 2067 6f66 2072     ec. Waiting for 
   da178:	4341 2e4b 7700 6961 4674 726f 4341 524b     ACK..waitForACKR
   da188:	7365 6f70 736e 3a65 5420 4d49 4f45 5455     esponse: TIMEOUT
   da198:	7720 7469 2068 6176 696c 2064 6164 6174      with valid data
   da1a8:	6120 7466 7265 0020 6d20 6573 2e63 0020      after . msec. .
   da1b8:	6177 7469 6f46 4172 4b43 6552 7073 6e6f     waitForACKRespon
   da1c8:	6573 203a 4954 454d 554f 2054 6661 6574     se: TIMEOUT afte
   da1d8:	2072 2000 736d 6365 002e 6177 7469 6f46     r . msec..waitFo
   da1e8:	4e72 416f 4b43 6552 7073 6e6f 6573 203a     rNoACKResponse: 
   da1f8:	6176 696c 2064 6164 6174 7720 7469 2068     valid data with 
   da208:	4c43 2f53 4449 6d20 7461 6863 6120 7466     CLS/ID match aft
   da218:	7265 0020 6177 7469 6f46 4e72 416f 4b43     er .waitForNoACK
   da228:	6552 7073 6e6f 6573 203a 6164 6174 6220     Response: data b
   da238:	6965 676e 4f20 4556 5752 4952 5454 4e45     eing OVERWRITTEN
   da248:	6120 7466 7265 0020 6177 7469 6f46 4e72      after .waitForN
   da258:	416f 4b43 6552 7073 6e6f 6573 203a 4c43     oACKResponse: CL
   da268:	2f53 4449 6d20 7461 6863 6220 7475 6620     S/ID match but f
   da278:	6961 656c 2064 5243 2043 6661 6574 2072     ailed CRC after 
   da288:	7700 6961 4674 726f 6f4e 4341 524b 7365     .waitForNoACKRes
   da298:	6f70 736e 3a65 5420 4d49 4f45 5455 6120     ponse: TIMEOUT a
   da2a8:	7466 7265 0020 6d20 6573 2e63 4e20 206f     fter . msec. No 
   da2b8:	6170 6b63 7465 7220 6365 6965 6576 2e64     packet received.
   da2c8:	0a00 6553 646e 6e69 3a67 0020 6553 646e     ..Sending: .Send
   da2d8:	4920 4332 4320 6d6f 616d 646e 6620 6961      I2C Command fai
   da2e8:	656c 0064 6573 646e 6f43 6d6d 6e61 3a64     led.sendCommand:
   da2f8:	5720 6961 6974 676e 6620 726f 4120 4b43      Waiting for ACK
   da308:	7220 7365 6f70 736e 0065 6573 646e 6f43      response.sendCo
   da318:	6d6d 6e61 3a64 5720 6961 6974 676e 6620     mmand: Waiting f
   da328:	726f 4e20 206f 4341 204b 6572 7073 6e6f     or No ACK respon
   da338:	6573 6700 7465 5650 3a54 4120 7475 726f     se.getPVT: Autor
   da348:	7065 726f 6974 676e 6700 7465 5650 3a54     eporting.getPVT:
   da358:	4520 6978 2074 6d69 656d 6964 7461 6c65      Exit immediatel
   da368:	0079 6567 5074 5456 203a 6f50 6c6c 6e69     y.getPVT: Pollin
   da378:	0067 6567 5074 5456 203a 6164 6174 7720     g.getPVT: data w
   da388:	7361 4f20 4556 5752 4952 5454 4e45 6220     as OVERWRITTEN b
   da398:	2079 6e61 746f 6568 2072 414e 2056 656d     y another NAV me
   da3a8:	7373 6761 2065 6228 7475 7420 6168 2774     ssage (but that'
   da3b8:	2073 4b4f 0029 6567 5074 5456 203a 6164     s OK).getPVT: da
   da3c8:	6174 7720 7361 4f20 4556 5752 4952 5454     ta was OVERWRITT
   da3d8:	4e45 6220 2079 2061 4e48 2052 656d 7373     EN by a HNR mess
   da3e8:	6761 2065 6128 646e 7420 6168 2774 2073     age (and that's 
   da3f8:	6f6e 2074 4b4f 0029 6567 5074 5456 7220     not OK).getPVT r
   da408:	7465 6156 3a6c 0020 7553 6363 7365 0073     etVal: .Success.
   da418:	6547 656e 6172 206c 6146 6c69 7275 0065     General Failure.
   da428:	5243 2043 6146 6c69 5400 6d69 6f65 7475     CRC Fail.Timeout
   da438:	4300 6d6f 616d 646e 6e20 746f 6120 6b63     .Command not ack
   da448:	6f6e 6c77 6465 6567 2064 4e28 4341 294b     nowledged (NACK)
   da458:	4f00 7475 6f20 2066 6172 676e 0065 6e49     .Out of range.In
   da468:	6176 696c 2064 7241 0067 6e49 6176 696c     valid Arg.Invali
   da478:	2064 706f 7265 7461 6f69 006e 654d 6f6d     d operation.Memo
   da488:	7972 4520 7272 726f 4800 7261 7764 7261     ry Error.Hardwar
   da498:	2065 7245 6f72 0072 6144 6174 5320 6e65     e Error.Data Sen
   da4a8:	0074 6144 6174 5220 6365 6965 6576 0064     t.Data Received.
   da4b8:	3249 2043 6f43 6d6d 4620 6961 756c 6572     I2C Comm Failure
   da4c8:	4400 7461 2061 6150 6b63 7465 4f20 6576     .Data Packet Ove
   da4d8:	7772 6972 7474 6e65 0000 0000               rwritten....

000da4e4 <CSWTCH.102>:
   da4e4:	a410 000d a418 000d a428 000d a431 000d     ........(...1...
   da4f4:	a439 000d a459 000d a466 000d a472 000d     9...Y...f...r...
   da504:	a484 000d a491 000d a4a0 000d a4aa 000d     ................
   da514:	a4b8 000d a4c9 000d                         ........

000da51c <_ZTVN5spark13EthernetClassE>:
	...
   da524:	72ab 000d 72a1 000d 7297 000d 728d 000d     .r...r...r...r..
   da534:	7281 000d 7275 000d 7269 000d 7261 000d     .r..ur..ir..ar..
   da544:	7257 000d 724d 000d 87a3 000d 6977 6972     Wr..Mr......wiri
   da554:	676e 5300 7379 6574 206d 6c73 6565 2070     ng.System sleep 
   da564:	6f63 666e 6769 7275 7461 6f69 206e 7369     configuration is
   da574:	6920 766e 6c61 6469 002e 616e 006e 6e69      invalid..nan.in
   da584:	0066 766f 0066 7061 0070 5925 252d 2d6d     f.ovf.app.%Y-%m-
   da594:	6425 2554 3a48 4d25 253a 2553 007a 7361     %dT%H:%M:%S%z.as
   da5a4:	7463 6d69 0065 0000                         ctime...

000da5ac <_ZTVSt15_Sp_counted_ptrIPN8particle6detail10FutureImplIbNS1_13FutureContextEEELN9__gnu_cxx12_Lock_policyE0EE>:
	...
   da5b4:	7c89 000d 7c8f 000d 7ccd 000d 7c9d 000d     .|...|...|...|..
   da5c4:	7c8b 000d                                   .|..

000da5c8 <_ZTV9IPAddress>:
	...
   da5d0:	8221 000d 8211 000d 8213 000d               !...........

000da5dc <_ZTV9USBSerial>:
	...
   da5e4:	82f7 000d 835f 000d 8335 000d 7861 000d     ...._...5...ax..
   da5f4:	8327 000d 82f9 000d 8309 000d 8359 000d     '...........Y...
   da604:	8319 000d 82f3 000d                         ........

000da60c <_ZTVN5spark13CellularClassE>:
	...
   da614:	845f 000d 8455 000d 844b 000d 8401 000d     _...U...K.......
   da624:	843f 000d 8433 000d 8427 000d 841f 000d     ?...3...'.......
   da634:	8415 000d 840b 000d 87a3 000d               ............

000da640 <_ZTV11USARTSerial>:
	...
   da648:	8499 000d 8505 000d 84dd 000d 7861 000d     ............ax..
   da658:	84ad 000d 84c9 000d 84bb 000d 84d7 000d     ................
   da668:	849b 000d 849f 000d                         ........

000da670 <_ZTV7TwoWire>:
	...
   da678:	85f1 000d 863b 000d 8613 000d 85f3 000d     ....;...........
   da688:	861b 000d 8623 000d 862b 000d 8633 000d     ....#...+...3...

000da698 <_ZTVN5spark12NetworkClassE>:
	...
   da6a0:	873b 000d 8745 000d 874f 000d 8759 000d     ;...E...O...Y...
   da6b0:	8763 000d 876f 000d 877b 000d 8787 000d     c...o...{.......
   da6c0:	878f 000d 8799 000d 87a3 000d               ............

000da6cc <_ZSt7nothrow>:
	...

000da6cd <link_const_variable_data_end>:
   da6cd:	00          	.byte	0x00
	...

000da6d0 <link_constructors_location>:
   da6d0:	000d4c0d 	.word	0x000d4c0d
   da6d4:	000d72b5 	.word	0x000d72b5
   da6d8:	000d741d 	.word	0x000d741d
   da6dc:	000d7839 	.word	0x000d7839
   da6e0:	000d7add 	.word	0x000d7add
   da6e4:	000d7aed 	.word	0x000d7aed
   da6e8:	000d7b49 	.word	0x000d7b49
   da6ec:	000d8469 	.word	0x000d8469
   da6f0:	000d8875 	.word	0x000d8875

000da6f4 <link_constructors_end>:
	...
